   1               		.file	"lufa.c"
   2               	__SP_H__ = 0x3e
   3               	__SP_L__ = 0x3d
   4               	__SREG__ = 0x3f
   5               	__tmp_reg__ = 0
   6               	__zero_reg__ = 1
   7               		.text
   8               	.Ltext0:
   9               		.cfi_sections	.debug_frame
  10               		.section	.text.keyboard_leds,"ax",@progbits
  12               	keyboard_leds:
  13               	.LFB122:
  14               		.file 1 "../../tmk_core/protocol/lufa/lufa.c"
   1:../../tmk_core/protocol/lufa/lufa.c **** /*
   2:../../tmk_core/protocol/lufa/lufa.c ****  * Copyright 2012 Jun Wako <wakojun@gmail.com>
   3:../../tmk_core/protocol/lufa/lufa.c ****  * This file is based on:
   4:../../tmk_core/protocol/lufa/lufa.c ****  *     LUFA-120219/Demos/Device/Lowlevel/KeyboardMouse
   5:../../tmk_core/protocol/lufa/lufa.c ****  *     LUFA-120219/Demos/Device/Lowlevel/GenericHID
   6:../../tmk_core/protocol/lufa/lufa.c ****  */
   7:../../tmk_core/protocol/lufa/lufa.c **** 
   8:../../tmk_core/protocol/lufa/lufa.c **** /*
   9:../../tmk_core/protocol/lufa/lufa.c ****              LUFA Library
  10:../../tmk_core/protocol/lufa/lufa.c ****      Copyright (C) Dean Camera, 2012.
  11:../../tmk_core/protocol/lufa/lufa.c **** 
  12:../../tmk_core/protocol/lufa/lufa.c ****   dean [at] fourwalledcubicle [dot] com
  13:../../tmk_core/protocol/lufa/lufa.c ****            www.lufa-lib.org
  14:../../tmk_core/protocol/lufa/lufa.c **** */
  15:../../tmk_core/protocol/lufa/lufa.c **** 
  16:../../tmk_core/protocol/lufa/lufa.c **** /*
  17:../../tmk_core/protocol/lufa/lufa.c ****   Copyright 2012  Dean Camera (dean [at] fourwalledcubicle [dot] com)
  18:../../tmk_core/protocol/lufa/lufa.c ****   Copyright 2010  Denver Gingerich (denver [at] ossguy [dot] com)
  19:../../tmk_core/protocol/lufa/lufa.c **** 
  20:../../tmk_core/protocol/lufa/lufa.c ****   Permission to use, copy, modify, distribute, and sell this
  21:../../tmk_core/protocol/lufa/lufa.c ****   software and its documentation for any purpose is hereby granted
  22:../../tmk_core/protocol/lufa/lufa.c ****   without fee, provided that the above copyright notice appear in
  23:../../tmk_core/protocol/lufa/lufa.c ****   all copies and that both that the copyright notice and this
  24:../../tmk_core/protocol/lufa/lufa.c ****   permission notice and warranty disclaimer appear in supporting
  25:../../tmk_core/protocol/lufa/lufa.c ****   documentation, and that the name of the author not be used in
  26:../../tmk_core/protocol/lufa/lufa.c ****   advertising or publicity pertaining to distribution of the
  27:../../tmk_core/protocol/lufa/lufa.c ****   software without specific, written prior permission.
  28:../../tmk_core/protocol/lufa/lufa.c **** 
  29:../../tmk_core/protocol/lufa/lufa.c ****   The author disclaim all warranties with regard to this
  30:../../tmk_core/protocol/lufa/lufa.c ****   software, including all implied warranties of merchantability
  31:../../tmk_core/protocol/lufa/lufa.c ****   and fitness.  In no event shall the author be liable for any
  32:../../tmk_core/protocol/lufa/lufa.c ****   special, indirect or consequential damages or any damages
  33:../../tmk_core/protocol/lufa/lufa.c ****   whatsoever resulting from loss of use, data or profits, whether
  34:../../tmk_core/protocol/lufa/lufa.c ****   in an action of contract, negligence or other tortious action,
  35:../../tmk_core/protocol/lufa/lufa.c ****   arising out of or in connection with the use or performance of
  36:../../tmk_core/protocol/lufa/lufa.c ****   this software.
  37:../../tmk_core/protocol/lufa/lufa.c **** */
  38:../../tmk_core/protocol/lufa/lufa.c **** 
  39:../../tmk_core/protocol/lufa/lufa.c **** #include "report.h"
  40:../../tmk_core/protocol/lufa/lufa.c **** #include "host.h"
  41:../../tmk_core/protocol/lufa/lufa.c **** #include "host_driver.h"
  42:../../tmk_core/protocol/lufa/lufa.c **** #include "keyboard.h"
  43:../../tmk_core/protocol/lufa/lufa.c **** #include "action.h"
  44:../../tmk_core/protocol/lufa/lufa.c **** #include "led.h"
  45:../../tmk_core/protocol/lufa/lufa.c **** #include "sendchar.h"
  46:../../tmk_core/protocol/lufa/lufa.c **** #include "ringbuf.h"
  47:../../tmk_core/protocol/lufa/lufa.c **** #include "debug.h"
  48:../../tmk_core/protocol/lufa/lufa.c **** #ifdef SLEEP_LED_ENABLE
  49:../../tmk_core/protocol/lufa/lufa.c **** #include "sleep_led.h"
  50:../../tmk_core/protocol/lufa/lufa.c **** #endif
  51:../../tmk_core/protocol/lufa/lufa.c **** #include "suspend.h"
  52:../../tmk_core/protocol/lufa/lufa.c **** #include "hook.h"
  53:../../tmk_core/protocol/lufa/lufa.c **** #include "timer.h"
  54:../../tmk_core/protocol/lufa/lufa.c **** 
  55:../../tmk_core/protocol/lufa/lufa.c **** #ifdef LUFA_DEBUG_SUART
  56:../../tmk_core/protocol/lufa/lufa.c **** #include "avr/suart.h"
  57:../../tmk_core/protocol/lufa/lufa.c **** #endif
  58:../../tmk_core/protocol/lufa/lufa.c **** 
  59:../../tmk_core/protocol/lufa/lufa.c **** #ifdef LUFA_DEBUG_UART
  60:../../tmk_core/protocol/lufa/lufa.c **** #include "uart.h"
  61:../../tmk_core/protocol/lufa/lufa.c **** #endif
  62:../../tmk_core/protocol/lufa/lufa.c **** 
  63:../../tmk_core/protocol/lufa/lufa.c **** #include "matrix.h"
  64:../../tmk_core/protocol/lufa/lufa.c **** #include "descriptor.h"
  65:../../tmk_core/protocol/lufa/lufa.c **** #include "lufa.h"
  66:../../tmk_core/protocol/lufa/lufa.c **** 
  67:../../tmk_core/protocol/lufa/lufa.c **** 
  68:../../tmk_core/protocol/lufa/lufa.c **** //#define LUFA_DEBUG
  69:../../tmk_core/protocol/lufa/lufa.c **** 
  70:../../tmk_core/protocol/lufa/lufa.c **** 
  71:../../tmk_core/protocol/lufa/lufa.c **** uint8_t keyboard_idle = 0;
  72:../../tmk_core/protocol/lufa/lufa.c **** /* 0: Boot Protocol, 1: Report Protocol(default) */
  73:../../tmk_core/protocol/lufa/lufa.c **** uint8_t keyboard_protocol = 1;
  74:../../tmk_core/protocol/lufa/lufa.c **** static uint8_t keyboard_led_stats = 0;
  75:../../tmk_core/protocol/lufa/lufa.c **** 
  76:../../tmk_core/protocol/lufa/lufa.c **** static report_keyboard_t keyboard_report_sent;
  77:../../tmk_core/protocol/lufa/lufa.c **** 
  78:../../tmk_core/protocol/lufa/lufa.c **** 
  79:../../tmk_core/protocol/lufa/lufa.c **** /* Host driver */
  80:../../tmk_core/protocol/lufa/lufa.c **** static uint8_t keyboard_leds(void);
  81:../../tmk_core/protocol/lufa/lufa.c **** static void send_keyboard(report_keyboard_t *report);
  82:../../tmk_core/protocol/lufa/lufa.c **** static void send_mouse(report_mouse_t *report);
  83:../../tmk_core/protocol/lufa/lufa.c **** static void send_system(uint16_t data);
  84:../../tmk_core/protocol/lufa/lufa.c **** static void send_consumer(uint16_t data);
  85:../../tmk_core/protocol/lufa/lufa.c **** host_driver_t lufa_driver = {
  86:../../tmk_core/protocol/lufa/lufa.c ****     keyboard_leds,
  87:../../tmk_core/protocol/lufa/lufa.c ****     send_keyboard,
  88:../../tmk_core/protocol/lufa/lufa.c ****     send_mouse,
  89:../../tmk_core/protocol/lufa/lufa.c ****     send_system,
  90:../../tmk_core/protocol/lufa/lufa.c ****     send_consumer
  91:../../tmk_core/protocol/lufa/lufa.c **** };
  92:../../tmk_core/protocol/lufa/lufa.c **** 
  93:../../tmk_core/protocol/lufa/lufa.c **** 
  94:../../tmk_core/protocol/lufa/lufa.c **** /*******************************************************************************
  95:../../tmk_core/protocol/lufa/lufa.c ****  * Console
  96:../../tmk_core/protocol/lufa/lufa.c ****  ******************************************************************************/
  97:../../tmk_core/protocol/lufa/lufa.c **** #ifdef CONSOLE_ENABLE
  98:../../tmk_core/protocol/lufa/lufa.c **** #define SENDBUF_SIZE 256
  99:../../tmk_core/protocol/lufa/lufa.c **** static uint8_t sbuf[SENDBUF_SIZE];
 100:../../tmk_core/protocol/lufa/lufa.c **** static ringbuf_t sendbuf = {
 101:../../tmk_core/protocol/lufa/lufa.c ****     .buffer = sbuf,
 102:../../tmk_core/protocol/lufa/lufa.c ****     .head = 0,
 103:../../tmk_core/protocol/lufa/lufa.c ****     .tail = 0,
 104:../../tmk_core/protocol/lufa/lufa.c ****     .size_mask = SENDBUF_SIZE - 1
 105:../../tmk_core/protocol/lufa/lufa.c **** };
 106:../../tmk_core/protocol/lufa/lufa.c **** 
 107:../../tmk_core/protocol/lufa/lufa.c **** // TODO: Around 2500ms delay often works anyhoo but proper startup would be better
 108:../../tmk_core/protocol/lufa/lufa.c **** // 1000ms delay of hid_listen affects this probably
 109:../../tmk_core/protocol/lufa/lufa.c **** /* wait for Console startup */
 110:../../tmk_core/protocol/lufa/lufa.c **** static bool console_is_ready(void)
 111:../../tmk_core/protocol/lufa/lufa.c **** {
 112:../../tmk_core/protocol/lufa/lufa.c ****     static bool hid_listen_ready = false;
 113:../../tmk_core/protocol/lufa/lufa.c ****     if (!hid_listen_ready) {
 114:../../tmk_core/protocol/lufa/lufa.c ****         if (timer_read32() < 2500)
 115:../../tmk_core/protocol/lufa/lufa.c ****             return false;
 116:../../tmk_core/protocol/lufa/lufa.c ****         hid_listen_ready = true;
 117:../../tmk_core/protocol/lufa/lufa.c ****     }
 118:../../tmk_core/protocol/lufa/lufa.c ****     return true;
 119:../../tmk_core/protocol/lufa/lufa.c **** }
 120:../../tmk_core/protocol/lufa/lufa.c **** 
 121:../../tmk_core/protocol/lufa/lufa.c **** static bool console_putc(uint8_t c)
 122:../../tmk_core/protocol/lufa/lufa.c **** {
 123:../../tmk_core/protocol/lufa/lufa.c ****     if (!console_is_ready())
 124:../../tmk_core/protocol/lufa/lufa.c ****         goto EXIT;
 125:../../tmk_core/protocol/lufa/lufa.c **** 
 126:../../tmk_core/protocol/lufa/lufa.c ****     // return immediately if called while interrupt
 127:../../tmk_core/protocol/lufa/lufa.c ****     if (!(SREG & (1<<SREG_I)))
 128:../../tmk_core/protocol/lufa/lufa.c ****         goto EXIT;
 129:../../tmk_core/protocol/lufa/lufa.c **** 
 130:../../tmk_core/protocol/lufa/lufa.c ****     if (USB_DeviceState != DEVICE_STATE_Configured)
 131:../../tmk_core/protocol/lufa/lufa.c ****         goto EXIT;
 132:../../tmk_core/protocol/lufa/lufa.c **** 
 133:../../tmk_core/protocol/lufa/lufa.c ****     uint8_t ep = Endpoint_GetCurrentEndpoint();
 134:../../tmk_core/protocol/lufa/lufa.c **** 
 135:../../tmk_core/protocol/lufa/lufa.c ****     Endpoint_SelectEndpoint(CONSOLE_IN_EPNUM);
 136:../../tmk_core/protocol/lufa/lufa.c ****     if (!Endpoint_IsEnabled() || !Endpoint_IsConfigured()) {
 137:../../tmk_core/protocol/lufa/lufa.c ****         goto EXIT_RESTORE_EP;
 138:../../tmk_core/protocol/lufa/lufa.c ****     }
 139:../../tmk_core/protocol/lufa/lufa.c **** 
 140:../../tmk_core/protocol/lufa/lufa.c ****     // write from buffer to endpoint bank
 141:../../tmk_core/protocol/lufa/lufa.c ****     while (!ringbuf_is_empty(&sendbuf) && Endpoint_IsReadWriteAllowed()) {
 142:../../tmk_core/protocol/lufa/lufa.c ****         Endpoint_Write_8(ringbuf_get(&sendbuf));
 143:../../tmk_core/protocol/lufa/lufa.c **** 
 144:../../tmk_core/protocol/lufa/lufa.c ****         // clear bank when it is full
 145:../../tmk_core/protocol/lufa/lufa.c ****         if (!Endpoint_IsReadWriteAllowed() && Endpoint_IsINReady()) {
 146:../../tmk_core/protocol/lufa/lufa.c ****             Endpoint_ClearIN();
 147:../../tmk_core/protocol/lufa/lufa.c ****         }
 148:../../tmk_core/protocol/lufa/lufa.c ****     }
 149:../../tmk_core/protocol/lufa/lufa.c **** 
 150:../../tmk_core/protocol/lufa/lufa.c ****     // write c to bank directly if there is no others in buffer
 151:../../tmk_core/protocol/lufa/lufa.c ****     if (ringbuf_is_empty(&sendbuf) && Endpoint_IsReadWriteAllowed()) {
 152:../../tmk_core/protocol/lufa/lufa.c ****         Endpoint_Write_8(c);
 153:../../tmk_core/protocol/lufa/lufa.c ****         Endpoint_SelectEndpoint(ep);
 154:../../tmk_core/protocol/lufa/lufa.c ****         return true;
 155:../../tmk_core/protocol/lufa/lufa.c ****     }
 156:../../tmk_core/protocol/lufa/lufa.c **** 
 157:../../tmk_core/protocol/lufa/lufa.c **** EXIT_RESTORE_EP:
 158:../../tmk_core/protocol/lufa/lufa.c ****     Endpoint_SelectEndpoint(ep);
 159:../../tmk_core/protocol/lufa/lufa.c **** EXIT:
 160:../../tmk_core/protocol/lufa/lufa.c ****     return ringbuf_put(&sendbuf, c);
 161:../../tmk_core/protocol/lufa/lufa.c **** }
 162:../../tmk_core/protocol/lufa/lufa.c **** 
 163:../../tmk_core/protocol/lufa/lufa.c **** static void console_flush(void)
 164:../../tmk_core/protocol/lufa/lufa.c **** {
 165:../../tmk_core/protocol/lufa/lufa.c ****     if (!console_is_ready())
 166:../../tmk_core/protocol/lufa/lufa.c ****         return;
 167:../../tmk_core/protocol/lufa/lufa.c **** 
 168:../../tmk_core/protocol/lufa/lufa.c ****     if (USB_DeviceState != DEVICE_STATE_Configured)
 169:../../tmk_core/protocol/lufa/lufa.c ****         return;
 170:../../tmk_core/protocol/lufa/lufa.c **** 
 171:../../tmk_core/protocol/lufa/lufa.c ****     uint8_t ep = Endpoint_GetCurrentEndpoint();
 172:../../tmk_core/protocol/lufa/lufa.c **** 
 173:../../tmk_core/protocol/lufa/lufa.c ****     Endpoint_SelectEndpoint(CONSOLE_IN_EPNUM);
 174:../../tmk_core/protocol/lufa/lufa.c ****     if (!Endpoint_IsEnabled() || !Endpoint_IsConfigured()) {
 175:../../tmk_core/protocol/lufa/lufa.c ****         Endpoint_SelectEndpoint(ep);
 176:../../tmk_core/protocol/lufa/lufa.c ****         return;
 177:../../tmk_core/protocol/lufa/lufa.c ****     }
 178:../../tmk_core/protocol/lufa/lufa.c **** 
 179:../../tmk_core/protocol/lufa/lufa.c ****     // write from buffer to endpoint bank
 180:../../tmk_core/protocol/lufa/lufa.c ****     while (!ringbuf_is_empty(&sendbuf) && Endpoint_IsReadWriteAllowed()) {
 181:../../tmk_core/protocol/lufa/lufa.c ****         Endpoint_Write_8(ringbuf_get(&sendbuf));
 182:../../tmk_core/protocol/lufa/lufa.c **** 
 183:../../tmk_core/protocol/lufa/lufa.c ****         // clear bank when it is full
 184:../../tmk_core/protocol/lufa/lufa.c ****         if (!Endpoint_IsReadWriteAllowed() && Endpoint_IsINReady()) {
 185:../../tmk_core/protocol/lufa/lufa.c ****             Endpoint_ClearIN();
 186:../../tmk_core/protocol/lufa/lufa.c ****         }
 187:../../tmk_core/protocol/lufa/lufa.c ****     }
 188:../../tmk_core/protocol/lufa/lufa.c **** 
 189:../../tmk_core/protocol/lufa/lufa.c ****     // clear bank when there are chars in bank
 190:../../tmk_core/protocol/lufa/lufa.c ****     if (Endpoint_BytesInEndpoint() && Endpoint_IsINReady()) {
 191:../../tmk_core/protocol/lufa/lufa.c ****         // Windows needs to fill packet with 0
 192:../../tmk_core/protocol/lufa/lufa.c ****         while (Endpoint_IsReadWriteAllowed()) {
 193:../../tmk_core/protocol/lufa/lufa.c ****                 Endpoint_Write_8(0);
 194:../../tmk_core/protocol/lufa/lufa.c ****         }
 195:../../tmk_core/protocol/lufa/lufa.c ****         Endpoint_ClearIN();
 196:../../tmk_core/protocol/lufa/lufa.c ****     }
 197:../../tmk_core/protocol/lufa/lufa.c **** 
 198:../../tmk_core/protocol/lufa/lufa.c ****     Endpoint_SelectEndpoint(ep);
 199:../../tmk_core/protocol/lufa/lufa.c **** }
 200:../../tmk_core/protocol/lufa/lufa.c **** 
 201:../../tmk_core/protocol/lufa/lufa.c **** static void console_task(void)
 202:../../tmk_core/protocol/lufa/lufa.c **** {
 203:../../tmk_core/protocol/lufa/lufa.c ****     static uint16_t fn = 0;
 204:../../tmk_core/protocol/lufa/lufa.c ****     if (fn == USB_Device_GetFrameNumber()) {
 205:../../tmk_core/protocol/lufa/lufa.c ****         return;
 206:../../tmk_core/protocol/lufa/lufa.c ****     }
 207:../../tmk_core/protocol/lufa/lufa.c ****     fn = USB_Device_GetFrameNumber();
 208:../../tmk_core/protocol/lufa/lufa.c ****     console_flush();
 209:../../tmk_core/protocol/lufa/lufa.c **** }
 210:../../tmk_core/protocol/lufa/lufa.c **** #endif
 211:../../tmk_core/protocol/lufa/lufa.c **** 
 212:../../tmk_core/protocol/lufa/lufa.c **** 
 213:../../tmk_core/protocol/lufa/lufa.c **** /*******************************************************************************
 214:../../tmk_core/protocol/lufa/lufa.c ****  * USB Events
 215:../../tmk_core/protocol/lufa/lufa.c ****  ******************************************************************************/
 216:../../tmk_core/protocol/lufa/lufa.c **** /*
 217:../../tmk_core/protocol/lufa/lufa.c ****  * Event Order of Plug in:
 218:../../tmk_core/protocol/lufa/lufa.c ****  * 0) EVENT_USB_Device_Connect
 219:../../tmk_core/protocol/lufa/lufa.c ****  * 1) EVENT_USB_Device_Suspend
 220:../../tmk_core/protocol/lufa/lufa.c ****  * 2) EVENT_USB_Device_Reset
 221:../../tmk_core/protocol/lufa/lufa.c ****  * 3) EVENT_USB_Device_Wake
 222:../../tmk_core/protocol/lufa/lufa.c **** */
 223:../../tmk_core/protocol/lufa/lufa.c **** void EVENT_USB_Device_Connect(void)
 224:../../tmk_core/protocol/lufa/lufa.c **** {
 225:../../tmk_core/protocol/lufa/lufa.c **** #ifdef LUFA_DEBUG
 226:../../tmk_core/protocol/lufa/lufa.c ****     print("[C]");
 227:../../tmk_core/protocol/lufa/lufa.c **** #endif
 228:../../tmk_core/protocol/lufa/lufa.c ****     /* For battery powered device */
 229:../../tmk_core/protocol/lufa/lufa.c ****     if (!USB_IsInitialized) {
 230:../../tmk_core/protocol/lufa/lufa.c ****         USB_Disable();
 231:../../tmk_core/protocol/lufa/lufa.c ****         USB_Init();
 232:../../tmk_core/protocol/lufa/lufa.c ****         USB_Device_EnableSOFEvents();
 233:../../tmk_core/protocol/lufa/lufa.c ****     }
 234:../../tmk_core/protocol/lufa/lufa.c **** }
 235:../../tmk_core/protocol/lufa/lufa.c **** 
 236:../../tmk_core/protocol/lufa/lufa.c **** void EVENT_USB_Device_Disconnect(void)
 237:../../tmk_core/protocol/lufa/lufa.c **** {
 238:../../tmk_core/protocol/lufa/lufa.c **** #ifdef LUFA_DEBUG
 239:../../tmk_core/protocol/lufa/lufa.c ****     print("[D]");
 240:../../tmk_core/protocol/lufa/lufa.c **** #endif
 241:../../tmk_core/protocol/lufa/lufa.c ****     /* For battery powered device */
 242:../../tmk_core/protocol/lufa/lufa.c ****     USB_IsInitialized = false;
 243:../../tmk_core/protocol/lufa/lufa.c **** /* TODO: This doesn't work. After several plug in/outs can not be enumerated.
 244:../../tmk_core/protocol/lufa/lufa.c ****     if (USB_IsInitialized) {
 245:../../tmk_core/protocol/lufa/lufa.c ****         USB_Disable();  // Disable all interrupts
 246:../../tmk_core/protocol/lufa/lufa.c **** 	USB_Controller_Enable();
 247:../../tmk_core/protocol/lufa/lufa.c ****         USB_INT_Enable(USB_INT_VBUSTI);
 248:../../tmk_core/protocol/lufa/lufa.c ****     }
 249:../../tmk_core/protocol/lufa/lufa.c **** */
 250:../../tmk_core/protocol/lufa/lufa.c **** }
 251:../../tmk_core/protocol/lufa/lufa.c **** 
 252:../../tmk_core/protocol/lufa/lufa.c **** void EVENT_USB_Device_Reset(void)
 253:../../tmk_core/protocol/lufa/lufa.c **** {
 254:../../tmk_core/protocol/lufa/lufa.c **** #ifdef LUFA_DEBUG
 255:../../tmk_core/protocol/lufa/lufa.c ****     print("[R]");
 256:../../tmk_core/protocol/lufa/lufa.c **** #endif
 257:../../tmk_core/protocol/lufa/lufa.c **** }
 258:../../tmk_core/protocol/lufa/lufa.c **** 
 259:../../tmk_core/protocol/lufa/lufa.c **** void EVENT_USB_Device_Suspend()
 260:../../tmk_core/protocol/lufa/lufa.c **** {
 261:../../tmk_core/protocol/lufa/lufa.c **** #ifdef LUFA_DEBUG
 262:../../tmk_core/protocol/lufa/lufa.c ****     print("[S]");
 263:../../tmk_core/protocol/lufa/lufa.c **** #endif
 264:../../tmk_core/protocol/lufa/lufa.c ****     hook_usb_suspend_entry();
 265:../../tmk_core/protocol/lufa/lufa.c **** }
 266:../../tmk_core/protocol/lufa/lufa.c **** 
 267:../../tmk_core/protocol/lufa/lufa.c **** void EVENT_USB_Device_WakeUp()
 268:../../tmk_core/protocol/lufa/lufa.c **** {
 269:../../tmk_core/protocol/lufa/lufa.c **** #ifdef LUFA_DEBUG
 270:../../tmk_core/protocol/lufa/lufa.c ****     print("[W]");
 271:../../tmk_core/protocol/lufa/lufa.c **** #endif
 272:../../tmk_core/protocol/lufa/lufa.c ****     hook_usb_wakeup();
 273:../../tmk_core/protocol/lufa/lufa.c **** }
 274:../../tmk_core/protocol/lufa/lufa.c **** 
 275:../../tmk_core/protocol/lufa/lufa.c **** // called every 1ms
 276:../../tmk_core/protocol/lufa/lufa.c **** void EVENT_USB_Device_StartOfFrame(void)
 277:../../tmk_core/protocol/lufa/lufa.c **** {
 278:../../tmk_core/protocol/lufa/lufa.c **** }
 279:../../tmk_core/protocol/lufa/lufa.c **** 
 280:../../tmk_core/protocol/lufa/lufa.c **** /** Event handler for the USB_ConfigurationChanged event.
 281:../../tmk_core/protocol/lufa/lufa.c ****  * This is fired when the host sets the current configuration of the USB device after enumeration.
 282:../../tmk_core/protocol/lufa/lufa.c ****  *
 283:../../tmk_core/protocol/lufa/lufa.c ****  * ATMega32u2 supports dual bank(ping-pong mode) only on endpoint 3 and 4,
 284:../../tmk_core/protocol/lufa/lufa.c ****  * it is safe to use singl bank for all endpoints.
 285:../../tmk_core/protocol/lufa/lufa.c ****  */
 286:../../tmk_core/protocol/lufa/lufa.c **** void EVENT_USB_Device_ConfigurationChanged(void)
 287:../../tmk_core/protocol/lufa/lufa.c **** {
 288:../../tmk_core/protocol/lufa/lufa.c **** #ifdef LUFA_DEBUG
 289:../../tmk_core/protocol/lufa/lufa.c ****     print("[c]");
 290:../../tmk_core/protocol/lufa/lufa.c **** #endif
 291:../../tmk_core/protocol/lufa/lufa.c ****     bool ConfigSuccess = true;
 292:../../tmk_core/protocol/lufa/lufa.c **** 
 293:../../tmk_core/protocol/lufa/lufa.c ****     /* Setup Keyboard HID Report Endpoints */
 294:../../tmk_core/protocol/lufa/lufa.c ****     ConfigSuccess &= ENDPOINT_CONFIG(KEYBOARD_IN_EPNUM, EP_TYPE_INTERRUPT, ENDPOINT_DIR_IN,
 295:../../tmk_core/protocol/lufa/lufa.c ****                                      KEYBOARD_EPSIZE, ENDPOINT_BANK_SINGLE);
 296:../../tmk_core/protocol/lufa/lufa.c **** 
 297:../../tmk_core/protocol/lufa/lufa.c **** #ifdef MOUSE_ENABLE
 298:../../tmk_core/protocol/lufa/lufa.c ****     /* Setup Mouse HID Report Endpoint */
 299:../../tmk_core/protocol/lufa/lufa.c ****     ConfigSuccess &= ENDPOINT_CONFIG(MOUSE_IN_EPNUM, EP_TYPE_INTERRUPT, ENDPOINT_DIR_IN,
 300:../../tmk_core/protocol/lufa/lufa.c ****                                      MOUSE_EPSIZE, ENDPOINT_BANK_SINGLE);
 301:../../tmk_core/protocol/lufa/lufa.c **** #endif
 302:../../tmk_core/protocol/lufa/lufa.c **** 
 303:../../tmk_core/protocol/lufa/lufa.c **** #ifdef EXTRAKEY_ENABLE
 304:../../tmk_core/protocol/lufa/lufa.c ****     /* Setup Extra HID Report Endpoint */
 305:../../tmk_core/protocol/lufa/lufa.c ****     ConfigSuccess &= ENDPOINT_CONFIG(EXTRAKEY_IN_EPNUM, EP_TYPE_INTERRUPT, ENDPOINT_DIR_IN,
 306:../../tmk_core/protocol/lufa/lufa.c ****                                      EXTRAKEY_EPSIZE, ENDPOINT_BANK_SINGLE);
 307:../../tmk_core/protocol/lufa/lufa.c **** #endif
 308:../../tmk_core/protocol/lufa/lufa.c **** 
 309:../../tmk_core/protocol/lufa/lufa.c **** #ifdef CONSOLE_ENABLE
 310:../../tmk_core/protocol/lufa/lufa.c ****     /* Setup Console HID Report Endpoints */
 311:../../tmk_core/protocol/lufa/lufa.c ****     ConfigSuccess &= ENDPOINT_CONFIG(CONSOLE_IN_EPNUM, EP_TYPE_INTERRUPT, ENDPOINT_DIR_IN,
 312:../../tmk_core/protocol/lufa/lufa.c ****                                      CONSOLE_EPSIZE, ENDPOINT_BANK_SINGLE);
 313:../../tmk_core/protocol/lufa/lufa.c **** #if 0
 314:../../tmk_core/protocol/lufa/lufa.c ****     ConfigSuccess &= ENDPOINT_CONFIG(CONSOLE_OUT_EPNUM, EP_TYPE_INTERRUPT, ENDPOINT_DIR_OUT,
 315:../../tmk_core/protocol/lufa/lufa.c ****                                      CONSOLE_EPSIZE, ENDPOINT_BANK_SINGLE);
 316:../../tmk_core/protocol/lufa/lufa.c **** #endif
 317:../../tmk_core/protocol/lufa/lufa.c **** #endif
 318:../../tmk_core/protocol/lufa/lufa.c **** 
 319:../../tmk_core/protocol/lufa/lufa.c **** #ifdef NKRO_ENABLE
 320:../../tmk_core/protocol/lufa/lufa.c ****     /* Setup NKRO HID Report Endpoints */
 321:../../tmk_core/protocol/lufa/lufa.c ****     ConfigSuccess &= ENDPOINT_CONFIG(NKRO_IN_EPNUM, EP_TYPE_INTERRUPT, ENDPOINT_DIR_IN,
 322:../../tmk_core/protocol/lufa/lufa.c ****                                      NKRO_EPSIZE, ENDPOINT_BANK_SINGLE);
 323:../../tmk_core/protocol/lufa/lufa.c **** #endif
 324:../../tmk_core/protocol/lufa/lufa.c **** }
 325:../../tmk_core/protocol/lufa/lufa.c **** 
 326:../../tmk_core/protocol/lufa/lufa.c **** /*
 327:../../tmk_core/protocol/lufa/lufa.c **** Appendix G: HID Request Support Requirements
 328:../../tmk_core/protocol/lufa/lufa.c **** 
 329:../../tmk_core/protocol/lufa/lufa.c **** The following table enumerates the requests that need to be supported by various types of HID class
 330:../../tmk_core/protocol/lufa/lufa.c **** 
 331:../../tmk_core/protocol/lufa/lufa.c **** Device type     GetReport   SetReport   GetIdle     SetIdle     GetProtocol SetProtocol
 332:../../tmk_core/protocol/lufa/lufa.c **** ------------------------------------------------------------------------------------------
 333:../../tmk_core/protocol/lufa/lufa.c **** Boot Mouse      Required    Optional    Optional    Optional    Required    Required
 334:../../tmk_core/protocol/lufa/lufa.c **** Non-Boot Mouse  Required    Optional    Optional    Optional    Optional    Optional
 335:../../tmk_core/protocol/lufa/lufa.c **** Boot Keyboard   Required    Optional    Required    Required    Required    Required
 336:../../tmk_core/protocol/lufa/lufa.c **** Non-Boot Keybrd Required    Optional    Required    Required    Optional    Optional
 337:../../tmk_core/protocol/lufa/lufa.c **** Other Device    Required    Optional    Optional    Optional    Optional    Optional
 338:../../tmk_core/protocol/lufa/lufa.c **** */
 339:../../tmk_core/protocol/lufa/lufa.c **** /** Event handler for the USB_ControlRequest event.
 340:../../tmk_core/protocol/lufa/lufa.c ****  *  This is fired before passing along unhandled control requests to the library for processing int
 341:../../tmk_core/protocol/lufa/lufa.c ****  */
 342:../../tmk_core/protocol/lufa/lufa.c **** void EVENT_USB_Device_ControlRequest(void)
 343:../../tmk_core/protocol/lufa/lufa.c **** {
 344:../../tmk_core/protocol/lufa/lufa.c ****     uint8_t* ReportData = NULL;
 345:../../tmk_core/protocol/lufa/lufa.c ****     uint8_t  ReportSize = 0;
 346:../../tmk_core/protocol/lufa/lufa.c **** 
 347:../../tmk_core/protocol/lufa/lufa.c ****     /* Handle HID Class specific requests */
 348:../../tmk_core/protocol/lufa/lufa.c ****     switch (USB_ControlRequest.bRequest)
 349:../../tmk_core/protocol/lufa/lufa.c ****     {
 350:../../tmk_core/protocol/lufa/lufa.c ****         case HID_REQ_GetReport:
 351:../../tmk_core/protocol/lufa/lufa.c ****             if (USB_ControlRequest.bmRequestType == (REQDIR_DEVICETOHOST | REQTYPE_CLASS | REQREC_I
 352:../../tmk_core/protocol/lufa/lufa.c ****             {
 353:../../tmk_core/protocol/lufa/lufa.c ****                 Endpoint_ClearSETUP();
 354:../../tmk_core/protocol/lufa/lufa.c **** 
 355:../../tmk_core/protocol/lufa/lufa.c ****                 // Interface
 356:../../tmk_core/protocol/lufa/lufa.c ****                 switch (USB_ControlRequest.wIndex) {
 357:../../tmk_core/protocol/lufa/lufa.c ****                 case KEYBOARD_INTERFACE:
 358:../../tmk_core/protocol/lufa/lufa.c ****                     // TODO: test/check
 359:../../tmk_core/protocol/lufa/lufa.c ****                     ReportData = (uint8_t*)&keyboard_report_sent;
 360:../../tmk_core/protocol/lufa/lufa.c ****                     ReportSize = sizeof(keyboard_report_sent);
 361:../../tmk_core/protocol/lufa/lufa.c ****                     break;
 362:../../tmk_core/protocol/lufa/lufa.c ****                 }
 363:../../tmk_core/protocol/lufa/lufa.c **** 
 364:../../tmk_core/protocol/lufa/lufa.c ****                 /* Write the report data to the control endpoint */
 365:../../tmk_core/protocol/lufa/lufa.c ****                 Endpoint_Write_Control_Stream_LE(ReportData, ReportSize);
 366:../../tmk_core/protocol/lufa/lufa.c ****                 Endpoint_ClearOUT();
 367:../../tmk_core/protocol/lufa/lufa.c **** #ifdef LUFA_DEBUG
 368:../../tmk_core/protocol/lufa/lufa.c ****                 xprintf("[r%d]", USB_ControlRequest.wIndex);
 369:../../tmk_core/protocol/lufa/lufa.c **** #endif
 370:../../tmk_core/protocol/lufa/lufa.c ****             }
 371:../../tmk_core/protocol/lufa/lufa.c **** 
 372:../../tmk_core/protocol/lufa/lufa.c ****             break;
 373:../../tmk_core/protocol/lufa/lufa.c ****         case HID_REQ_SetReport:
 374:../../tmk_core/protocol/lufa/lufa.c ****             if (USB_ControlRequest.bmRequestType == (REQDIR_HOSTTODEVICE | REQTYPE_CLASS | REQREC_I
 375:../../tmk_core/protocol/lufa/lufa.c ****             {
 376:../../tmk_core/protocol/lufa/lufa.c **** 
 377:../../tmk_core/protocol/lufa/lufa.c ****                 // Interface
 378:../../tmk_core/protocol/lufa/lufa.c ****                 switch (USB_ControlRequest.wIndex) {
 379:../../tmk_core/protocol/lufa/lufa.c ****                 case KEYBOARD_INTERFACE:
 380:../../tmk_core/protocol/lufa/lufa.c **** #ifdef NKRO_ENABLE
 381:../../tmk_core/protocol/lufa/lufa.c ****                 case NKRO_INTERFACE:
 382:../../tmk_core/protocol/lufa/lufa.c **** #endif
 383:../../tmk_core/protocol/lufa/lufa.c ****                     Endpoint_ClearSETUP();
 384:../../tmk_core/protocol/lufa/lufa.c **** 
 385:../../tmk_core/protocol/lufa/lufa.c ****                     while (!(Endpoint_IsOUTReceived())) {
 386:../../tmk_core/protocol/lufa/lufa.c ****                         if (USB_DeviceState == DEVICE_STATE_Unattached)
 387:../../tmk_core/protocol/lufa/lufa.c ****                           return;
 388:../../tmk_core/protocol/lufa/lufa.c ****                     }
 389:../../tmk_core/protocol/lufa/lufa.c ****                     keyboard_led_stats = Endpoint_Read_8();
 390:../../tmk_core/protocol/lufa/lufa.c **** 
 391:../../tmk_core/protocol/lufa/lufa.c ****                     Endpoint_ClearOUT();
 392:../../tmk_core/protocol/lufa/lufa.c ****                     Endpoint_ClearStatusStage();
 393:../../tmk_core/protocol/lufa/lufa.c **** #ifdef LUFA_DEBUG
 394:../../tmk_core/protocol/lufa/lufa.c ****                     xprintf("[L%d]", USB_ControlRequest.wIndex);
 395:../../tmk_core/protocol/lufa/lufa.c **** #endif
 396:../../tmk_core/protocol/lufa/lufa.c ****                     break;
 397:../../tmk_core/protocol/lufa/lufa.c ****                 }
 398:../../tmk_core/protocol/lufa/lufa.c **** 
 399:../../tmk_core/protocol/lufa/lufa.c ****             }
 400:../../tmk_core/protocol/lufa/lufa.c **** 
 401:../../tmk_core/protocol/lufa/lufa.c ****             break;
 402:../../tmk_core/protocol/lufa/lufa.c **** 
 403:../../tmk_core/protocol/lufa/lufa.c ****         case HID_REQ_GetProtocol:
 404:../../tmk_core/protocol/lufa/lufa.c ****             if (USB_ControlRequest.bmRequestType == (REQDIR_DEVICETOHOST | REQTYPE_CLASS | REQREC_I
 405:../../tmk_core/protocol/lufa/lufa.c ****             {
 406:../../tmk_core/protocol/lufa/lufa.c ****                 if (USB_ControlRequest.wIndex == KEYBOARD_INTERFACE) {
 407:../../tmk_core/protocol/lufa/lufa.c ****                     Endpoint_ClearSETUP();
 408:../../tmk_core/protocol/lufa/lufa.c ****                     while (!(Endpoint_IsINReady()));
 409:../../tmk_core/protocol/lufa/lufa.c ****                     Endpoint_Write_8(keyboard_protocol);
 410:../../tmk_core/protocol/lufa/lufa.c ****                     Endpoint_ClearIN();
 411:../../tmk_core/protocol/lufa/lufa.c ****                     Endpoint_ClearStatusStage();
 412:../../tmk_core/protocol/lufa/lufa.c **** #ifdef LUFA_DEBUG
 413:../../tmk_core/protocol/lufa/lufa.c ****                     print("[p]");
 414:../../tmk_core/protocol/lufa/lufa.c **** #endif
 415:../../tmk_core/protocol/lufa/lufa.c ****                 }
 416:../../tmk_core/protocol/lufa/lufa.c ****             }
 417:../../tmk_core/protocol/lufa/lufa.c **** 
 418:../../tmk_core/protocol/lufa/lufa.c ****             break;
 419:../../tmk_core/protocol/lufa/lufa.c ****         case HID_REQ_SetProtocol:
 420:../../tmk_core/protocol/lufa/lufa.c ****             if (USB_ControlRequest.bmRequestType == (REQDIR_HOSTTODEVICE | REQTYPE_CLASS | REQREC_I
 421:../../tmk_core/protocol/lufa/lufa.c ****             {
 422:../../tmk_core/protocol/lufa/lufa.c ****                 if (USB_ControlRequest.wIndex == KEYBOARD_INTERFACE) {
 423:../../tmk_core/protocol/lufa/lufa.c ****                     Endpoint_ClearSETUP();
 424:../../tmk_core/protocol/lufa/lufa.c ****                     Endpoint_ClearStatusStage();
 425:../../tmk_core/protocol/lufa/lufa.c **** 
 426:../../tmk_core/protocol/lufa/lufa.c ****                     keyboard_protocol = (USB_ControlRequest.wValue & 0xFF);
 427:../../tmk_core/protocol/lufa/lufa.c ****                     clear_keyboard();
 428:../../tmk_core/protocol/lufa/lufa.c **** #ifdef LUFA_DEBUG
 429:../../tmk_core/protocol/lufa/lufa.c ****                     print("[P]");
 430:../../tmk_core/protocol/lufa/lufa.c **** #endif
 431:../../tmk_core/protocol/lufa/lufa.c ****                 }
 432:../../tmk_core/protocol/lufa/lufa.c ****             }
 433:../../tmk_core/protocol/lufa/lufa.c **** 
 434:../../tmk_core/protocol/lufa/lufa.c ****             break;
 435:../../tmk_core/protocol/lufa/lufa.c ****         case HID_REQ_SetIdle:
 436:../../tmk_core/protocol/lufa/lufa.c ****             if (USB_ControlRequest.bmRequestType == (REQDIR_HOSTTODEVICE | REQTYPE_CLASS | REQREC_I
 437:../../tmk_core/protocol/lufa/lufa.c ****             {
 438:../../tmk_core/protocol/lufa/lufa.c ****                 Endpoint_ClearSETUP();
 439:../../tmk_core/protocol/lufa/lufa.c ****                 Endpoint_ClearStatusStage();
 440:../../tmk_core/protocol/lufa/lufa.c **** 
 441:../../tmk_core/protocol/lufa/lufa.c ****                 keyboard_idle = ((USB_ControlRequest.wValue & 0xFF00) >> 8);
 442:../../tmk_core/protocol/lufa/lufa.c **** #ifdef LUFA_DEBUG
 443:../../tmk_core/protocol/lufa/lufa.c ****                 xprintf("[I%d]%d", USB_ControlRequest.wIndex, (USB_ControlRequest.wValue & 0xFF00) 
 444:../../tmk_core/protocol/lufa/lufa.c **** #endif
 445:../../tmk_core/protocol/lufa/lufa.c ****             }
 446:../../tmk_core/protocol/lufa/lufa.c **** 
 447:../../tmk_core/protocol/lufa/lufa.c ****             break;
 448:../../tmk_core/protocol/lufa/lufa.c ****         case HID_REQ_GetIdle:
 449:../../tmk_core/protocol/lufa/lufa.c ****             if (USB_ControlRequest.bmRequestType == (REQDIR_DEVICETOHOST | REQTYPE_CLASS | REQREC_I
 450:../../tmk_core/protocol/lufa/lufa.c ****             {
 451:../../tmk_core/protocol/lufa/lufa.c ****                 Endpoint_ClearSETUP();
 452:../../tmk_core/protocol/lufa/lufa.c ****                 while (!(Endpoint_IsINReady()));
 453:../../tmk_core/protocol/lufa/lufa.c ****                 Endpoint_Write_8(keyboard_idle);
 454:../../tmk_core/protocol/lufa/lufa.c ****                 Endpoint_ClearIN();
 455:../../tmk_core/protocol/lufa/lufa.c ****                 Endpoint_ClearStatusStage();
 456:../../tmk_core/protocol/lufa/lufa.c **** #ifdef LUFA_DEBUG
 457:../../tmk_core/protocol/lufa/lufa.c ****                 print("[i]");
 458:../../tmk_core/protocol/lufa/lufa.c **** #endif
 459:../../tmk_core/protocol/lufa/lufa.c ****             }
 460:../../tmk_core/protocol/lufa/lufa.c **** 
 461:../../tmk_core/protocol/lufa/lufa.c ****             break;
 462:../../tmk_core/protocol/lufa/lufa.c ****     }
 463:../../tmk_core/protocol/lufa/lufa.c **** }
 464:../../tmk_core/protocol/lufa/lufa.c **** 
 465:../../tmk_core/protocol/lufa/lufa.c **** /*******************************************************************************
 466:../../tmk_core/protocol/lufa/lufa.c ****  * Host driver
 467:../../tmk_core/protocol/lufa/lufa.c ****  ******************************************************************************/
 468:../../tmk_core/protocol/lufa/lufa.c **** static uint8_t keyboard_leds(void)
 469:../../tmk_core/protocol/lufa/lufa.c **** {
  15               		.loc 1 469 1 view -0
  16               		.cfi_startproc
  17               	/* prologue: function */
  18               	/* frame size = 0 */
  19               	/* stack size = 0 */
  20               	.L__stack_usage = 0
 470:../../tmk_core/protocol/lufa/lufa.c ****     return keyboard_led_stats;
  21               		.loc 1 470 5 view .LVU1
 471:../../tmk_core/protocol/lufa/lufa.c **** }
  22               		.loc 1 471 1 is_stmt 0 view .LVU2
  23 0000 8091 0000 		lds r24,keyboard_led_stats
  24               	/* epilogue start */
  25 0004 0895      		ret
  26               		.cfi_endproc
  27               	.LFE122:
  29               		.section	.text.send_consumer,"ax",@progbits
  31               	send_consumer:
  32               	.LVL0:
  33               	.LFB126:
 472:../../tmk_core/protocol/lufa/lufa.c **** 
 473:../../tmk_core/protocol/lufa/lufa.c **** static void send_keyboard(report_keyboard_t *report)
 474:../../tmk_core/protocol/lufa/lufa.c **** {
 475:../../tmk_core/protocol/lufa/lufa.c ****     uint8_t timeout = 128;
 476:../../tmk_core/protocol/lufa/lufa.c **** 
 477:../../tmk_core/protocol/lufa/lufa.c ****     if (USB_DeviceState != DEVICE_STATE_Configured)
 478:../../tmk_core/protocol/lufa/lufa.c ****         return;
 479:../../tmk_core/protocol/lufa/lufa.c **** 
 480:../../tmk_core/protocol/lufa/lufa.c ****     /* Select the Keyboard Report Endpoint */
 481:../../tmk_core/protocol/lufa/lufa.c **** #ifdef NKRO_ENABLE
 482:../../tmk_core/protocol/lufa/lufa.c ****     if (keyboard_protocol && keyboard_nkro) {
 483:../../tmk_core/protocol/lufa/lufa.c ****         /* Report protocol - NKRO */
 484:../../tmk_core/protocol/lufa/lufa.c ****         Endpoint_SelectEndpoint(NKRO_IN_EPNUM);
 485:../../tmk_core/protocol/lufa/lufa.c **** 
 486:../../tmk_core/protocol/lufa/lufa.c ****         /* Check if write ready for a polling interval around 1ms */
 487:../../tmk_core/protocol/lufa/lufa.c ****         while (timeout-- && !Endpoint_IsReadWriteAllowed()) _delay_us(8);
 488:../../tmk_core/protocol/lufa/lufa.c ****         if (!Endpoint_IsReadWriteAllowed()) return;
 489:../../tmk_core/protocol/lufa/lufa.c **** 
 490:../../tmk_core/protocol/lufa/lufa.c ****         /* Write Keyboard Report Data */
 491:../../tmk_core/protocol/lufa/lufa.c ****         Endpoint_Write_Stream_LE(report, NKRO_EPSIZE, NULL);
 492:../../tmk_core/protocol/lufa/lufa.c ****     }
 493:../../tmk_core/protocol/lufa/lufa.c ****     else
 494:../../tmk_core/protocol/lufa/lufa.c **** #endif
 495:../../tmk_core/protocol/lufa/lufa.c ****     {
 496:../../tmk_core/protocol/lufa/lufa.c ****         /* Boot protocol */
 497:../../tmk_core/protocol/lufa/lufa.c ****         Endpoint_SelectEndpoint(KEYBOARD_IN_EPNUM);
 498:../../tmk_core/protocol/lufa/lufa.c **** 
 499:../../tmk_core/protocol/lufa/lufa.c ****         /* Check if write ready for a polling interval around 10ms */
 500:../../tmk_core/protocol/lufa/lufa.c ****         while (timeout-- && !Endpoint_IsReadWriteAllowed()) _delay_us(80);
 501:../../tmk_core/protocol/lufa/lufa.c ****         if (!Endpoint_IsReadWriteAllowed()) return;
 502:../../tmk_core/protocol/lufa/lufa.c **** 
 503:../../tmk_core/protocol/lufa/lufa.c ****         /* Write Keyboard Report Data */
 504:../../tmk_core/protocol/lufa/lufa.c ****         Endpoint_Write_Stream_LE(report, KEYBOARD_EPSIZE, NULL);
 505:../../tmk_core/protocol/lufa/lufa.c ****     }
 506:../../tmk_core/protocol/lufa/lufa.c **** 
 507:../../tmk_core/protocol/lufa/lufa.c ****     /* Finalize the stream transfer to send the last packet */
 508:../../tmk_core/protocol/lufa/lufa.c ****     Endpoint_ClearIN();
 509:../../tmk_core/protocol/lufa/lufa.c **** 
 510:../../tmk_core/protocol/lufa/lufa.c ****     keyboard_report_sent = *report;
 511:../../tmk_core/protocol/lufa/lufa.c **** }
 512:../../tmk_core/protocol/lufa/lufa.c **** 
 513:../../tmk_core/protocol/lufa/lufa.c **** static void send_mouse(report_mouse_t *report)
 514:../../tmk_core/protocol/lufa/lufa.c **** {
 515:../../tmk_core/protocol/lufa/lufa.c **** #ifdef MOUSE_ENABLE
 516:../../tmk_core/protocol/lufa/lufa.c ****     uint8_t timeout = 255;
 517:../../tmk_core/protocol/lufa/lufa.c **** 
 518:../../tmk_core/protocol/lufa/lufa.c ****     if (USB_DeviceState != DEVICE_STATE_Configured)
 519:../../tmk_core/protocol/lufa/lufa.c ****         return;
 520:../../tmk_core/protocol/lufa/lufa.c **** 
 521:../../tmk_core/protocol/lufa/lufa.c ****     /* Select the Mouse Report Endpoint */
 522:../../tmk_core/protocol/lufa/lufa.c ****     Endpoint_SelectEndpoint(MOUSE_IN_EPNUM);
 523:../../tmk_core/protocol/lufa/lufa.c **** 
 524:../../tmk_core/protocol/lufa/lufa.c ****     /* Check if write ready for a polling interval around 10ms */
 525:../../tmk_core/protocol/lufa/lufa.c ****     while (timeout-- && !Endpoint_IsReadWriteAllowed()) _delay_us(40);
 526:../../tmk_core/protocol/lufa/lufa.c ****     if (!Endpoint_IsReadWriteAllowed()) return;
 527:../../tmk_core/protocol/lufa/lufa.c **** 
 528:../../tmk_core/protocol/lufa/lufa.c ****     /* Write Mouse Report Data */
 529:../../tmk_core/protocol/lufa/lufa.c ****     Endpoint_Write_Stream_LE(report, sizeof(report_mouse_t), NULL);
 530:../../tmk_core/protocol/lufa/lufa.c **** 
 531:../../tmk_core/protocol/lufa/lufa.c ****     /* Finalize the stream transfer to send the last packet */
 532:../../tmk_core/protocol/lufa/lufa.c ****     Endpoint_ClearIN();
 533:../../tmk_core/protocol/lufa/lufa.c **** #endif
 534:../../tmk_core/protocol/lufa/lufa.c **** }
 535:../../tmk_core/protocol/lufa/lufa.c **** 
 536:../../tmk_core/protocol/lufa/lufa.c **** static void send_system(uint16_t data)
 537:../../tmk_core/protocol/lufa/lufa.c **** {
 538:../../tmk_core/protocol/lufa/lufa.c **** #ifdef EXTRAKEY_ENABLE
 539:../../tmk_core/protocol/lufa/lufa.c ****     uint8_t timeout = 255;
 540:../../tmk_core/protocol/lufa/lufa.c **** 
 541:../../tmk_core/protocol/lufa/lufa.c ****     if (USB_DeviceState != DEVICE_STATE_Configured)
 542:../../tmk_core/protocol/lufa/lufa.c ****         return;
 543:../../tmk_core/protocol/lufa/lufa.c **** 
 544:../../tmk_core/protocol/lufa/lufa.c ****     report_extra_t r = {
 545:../../tmk_core/protocol/lufa/lufa.c ****         .report_id = REPORT_ID_SYSTEM,
 546:../../tmk_core/protocol/lufa/lufa.c ****         .usage = data - SYSTEM_POWER_DOWN + 1
 547:../../tmk_core/protocol/lufa/lufa.c ****     };
 548:../../tmk_core/protocol/lufa/lufa.c ****     Endpoint_SelectEndpoint(EXTRAKEY_IN_EPNUM);
 549:../../tmk_core/protocol/lufa/lufa.c **** 
 550:../../tmk_core/protocol/lufa/lufa.c ****     /* Check if write ready for a polling interval around 10ms */
 551:../../tmk_core/protocol/lufa/lufa.c ****     while (timeout-- && !Endpoint_IsReadWriteAllowed()) _delay_us(40);
 552:../../tmk_core/protocol/lufa/lufa.c ****     if (!Endpoint_IsReadWriteAllowed()) return;
 553:../../tmk_core/protocol/lufa/lufa.c **** 
 554:../../tmk_core/protocol/lufa/lufa.c ****     Endpoint_Write_Stream_LE(&r, sizeof(report_extra_t), NULL);
 555:../../tmk_core/protocol/lufa/lufa.c ****     Endpoint_ClearIN();
 556:../../tmk_core/protocol/lufa/lufa.c **** #endif
 557:../../tmk_core/protocol/lufa/lufa.c **** }
 558:../../tmk_core/protocol/lufa/lufa.c **** 
 559:../../tmk_core/protocol/lufa/lufa.c **** static void send_consumer(uint16_t data)
 560:../../tmk_core/protocol/lufa/lufa.c **** {
  34               		.loc 1 560 1 is_stmt 1 view -0
  35               		.cfi_startproc
  36               		.loc 1 560 1 is_stmt 0 view .LVU4
  37 0000 CF93      		push r28
  38               	.LCFI0:
  39               		.cfi_def_cfa_offset 3
  40               		.cfi_offset 28, -2
  41 0002 DF93      		push r29
  42               	.LCFI1:
  43               		.cfi_def_cfa_offset 4
  44               		.cfi_offset 29, -3
  45 0004 00D0      		rcall .
  46 0006 0F92      		push __tmp_reg__
  47               	.LCFI2:
  48               		.cfi_def_cfa_offset 7
  49 0008 CDB7      		in r28,__SP_L__
  50 000a DEB7      		in r29,__SP_H__
  51               	.LCFI3:
  52               		.cfi_def_cfa_register 28
  53               	/* prologue: function */
  54               	/* frame size = 3 */
  55               	/* stack size = 5 */
  56               	.L__stack_usage = 5
 561:../../tmk_core/protocol/lufa/lufa.c **** #ifdef EXTRAKEY_ENABLE
 562:../../tmk_core/protocol/lufa/lufa.c ****     uint8_t timeout = 255;
  57               		.loc 1 562 5 is_stmt 1 view .LVU5
  58               	.LVL1:
 563:../../tmk_core/protocol/lufa/lufa.c **** 
 564:../../tmk_core/protocol/lufa/lufa.c ****     if (USB_DeviceState != DEVICE_STATE_Configured)
  59               		.loc 1 564 5 view .LVU6
  60               		.loc 1 564 25 is_stmt 0 view .LVU7
  61 000c 2091 0000 		lds r18,USB_DeviceState
  62               		.loc 1 564 8 view .LVU8
  63 0010 2430      		cpi r18,lo8(4)
  64 0012 01F4      		brne .L2
 565:../../tmk_core/protocol/lufa/lufa.c ****         return;
 566:../../tmk_core/protocol/lufa/lufa.c **** 
 567:../../tmk_core/protocol/lufa/lufa.c ****     report_extra_t r = {
  65               		.loc 1 567 5 is_stmt 1 view .LVU9
  66               		.loc 1 567 20 is_stmt 0 view .LVU10
  67 0014 23E0      		ldi r18,lo8(3)
  68 0016 2983      		std Y+1,r18
  69 0018 8A83      		std Y+2,r24
  70 001a 9B83      		std Y+3,r25
 568:../../tmk_core/protocol/lufa/lufa.c ****         .report_id = REPORT_ID_CONSUMER,
 569:../../tmk_core/protocol/lufa/lufa.c ****         .usage = data
 570:../../tmk_core/protocol/lufa/lufa.c ****     };
 571:../../tmk_core/protocol/lufa/lufa.c ****     Endpoint_SelectEndpoint(EXTRAKEY_IN_EPNUM);
  71               		.loc 1 571 5 is_stmt 1 view .LVU11
  72               	.LVL2:
  73               	.LBB247:
  74               	.LBI247:
  75               		.file 2 "../../tmk_core/protocol/lufa/LUFA-git/LUFA/Drivers/USB/Core/AVR8/../AVR8/Endpoint_AVR8.h"
   1:../../tmk_core/protocol/lufa/LUFA-git/LUFA/Drivers/USB/Core/AVR8/../AVR8/Endpoint_AVR8.h **** /*
   2:../../tmk_core/protocol/lufa/LUFA-git/LUFA/Drivers/USB/Core/AVR8/../AVR8/Endpoint_AVR8.h ****              LUFA Library
   3:../../tmk_core/protocol/lufa/LUFA-git/LUFA/Drivers/USB/Core/AVR8/../AVR8/Endpoint_AVR8.h ****      Copyright (C) Dean Camera, 2014.
   4:../../tmk_core/protocol/lufa/LUFA-git/LUFA/Drivers/USB/Core/AVR8/../AVR8/Endpoint_AVR8.h **** 
   5:../../tmk_core/protocol/lufa/LUFA-git/LUFA/Drivers/USB/Core/AVR8/../AVR8/Endpoint_AVR8.h ****   dean [at] fourwalledcubicle [dot] com
   6:../../tmk_core/protocol/lufa/LUFA-git/LUFA/Drivers/USB/Core/AVR8/../AVR8/Endpoint_AVR8.h ****            www.lufa-lib.org
   7:../../tmk_core/protocol/lufa/LUFA-git/LUFA/Drivers/USB/Core/AVR8/../AVR8/Endpoint_AVR8.h **** */
   8:../../tmk_core/protocol/lufa/LUFA-git/LUFA/Drivers/USB/Core/AVR8/../AVR8/Endpoint_AVR8.h **** 
   9:../../tmk_core/protocol/lufa/LUFA-git/LUFA/Drivers/USB/Core/AVR8/../AVR8/Endpoint_AVR8.h **** /*
  10:../../tmk_core/protocol/lufa/LUFA-git/LUFA/Drivers/USB/Core/AVR8/../AVR8/Endpoint_AVR8.h ****   Copyright 2014  Dean Camera (dean [at] fourwalledcubicle [dot] com)
  11:../../tmk_core/protocol/lufa/LUFA-git/LUFA/Drivers/USB/Core/AVR8/../AVR8/Endpoint_AVR8.h **** 
  12:../../tmk_core/protocol/lufa/LUFA-git/LUFA/Drivers/USB/Core/AVR8/../AVR8/Endpoint_AVR8.h ****   Permission to use, copy, modify, distribute, and sell this
  13:../../tmk_core/protocol/lufa/LUFA-git/LUFA/Drivers/USB/Core/AVR8/../AVR8/Endpoint_AVR8.h ****   software and its documentation for any purpose is hereby granted
  14:../../tmk_core/protocol/lufa/LUFA-git/LUFA/Drivers/USB/Core/AVR8/../AVR8/Endpoint_AVR8.h ****   without fee, provided that the above copyright notice appear in
  15:../../tmk_core/protocol/lufa/LUFA-git/LUFA/Drivers/USB/Core/AVR8/../AVR8/Endpoint_AVR8.h ****   all copies and that both that the copyright notice and this
  16:../../tmk_core/protocol/lufa/LUFA-git/LUFA/Drivers/USB/Core/AVR8/../AVR8/Endpoint_AVR8.h ****   permission notice and warranty disclaimer appear in supporting
  17:../../tmk_core/protocol/lufa/LUFA-git/LUFA/Drivers/USB/Core/AVR8/../AVR8/Endpoint_AVR8.h ****   documentation, and that the name of the author not be used in
  18:../../tmk_core/protocol/lufa/LUFA-git/LUFA/Drivers/USB/Core/AVR8/../AVR8/Endpoint_AVR8.h ****   advertising or publicity pertaining to distribution of the
  19:../../tmk_core/protocol/lufa/LUFA-git/LUFA/Drivers/USB/Core/AVR8/../AVR8/Endpoint_AVR8.h ****   software without specific, written prior permission.
  20:../../tmk_core/protocol/lufa/LUFA-git/LUFA/Drivers/USB/Core/AVR8/../AVR8/Endpoint_AVR8.h **** 
  21:../../tmk_core/protocol/lufa/LUFA-git/LUFA/Drivers/USB/Core/AVR8/../AVR8/Endpoint_AVR8.h ****   The author disclaims all warranties with regard to this
  22:../../tmk_core/protocol/lufa/LUFA-git/LUFA/Drivers/USB/Core/AVR8/../AVR8/Endpoint_AVR8.h ****   software, including all implied warranties of merchantability
  23:../../tmk_core/protocol/lufa/LUFA-git/LUFA/Drivers/USB/Core/AVR8/../AVR8/Endpoint_AVR8.h ****   and fitness.  In no event shall the author be liable for any
  24:../../tmk_core/protocol/lufa/LUFA-git/LUFA/Drivers/USB/Core/AVR8/../AVR8/Endpoint_AVR8.h ****   special, indirect or consequential damages or any damages
  25:../../tmk_core/protocol/lufa/LUFA-git/LUFA/Drivers/USB/Core/AVR8/../AVR8/Endpoint_AVR8.h ****   whatsoever resulting from loss of use, data or profits, whether
  26:../../tmk_core/protocol/lufa/LUFA-git/LUFA/Drivers/USB/Core/AVR8/../AVR8/Endpoint_AVR8.h ****   in an action of contract, negligence or other tortious action,
  27:../../tmk_core/protocol/lufa/LUFA-git/LUFA/Drivers/USB/Core/AVR8/../AVR8/Endpoint_AVR8.h ****   arising out of or in connection with the use or performance of
  28:../../tmk_core/protocol/lufa/LUFA-git/LUFA/Drivers/USB/Core/AVR8/../AVR8/Endpoint_AVR8.h ****   this software.
  29:../../tmk_core/protocol/lufa/LUFA-git/LUFA/Drivers/USB/Core/AVR8/../AVR8/Endpoint_AVR8.h **** */
  30:../../tmk_core/protocol/lufa/LUFA-git/LUFA/Drivers/USB/Core/AVR8/../AVR8/Endpoint_AVR8.h **** 
  31:../../tmk_core/protocol/lufa/LUFA-git/LUFA/Drivers/USB/Core/AVR8/../AVR8/Endpoint_AVR8.h **** /** \file
  32:../../tmk_core/protocol/lufa/LUFA-git/LUFA/Drivers/USB/Core/AVR8/../AVR8/Endpoint_AVR8.h ****  *  \brief USB Endpoint definitions for the AVR8 microcontrollers.
  33:../../tmk_core/protocol/lufa/LUFA-git/LUFA/Drivers/USB/Core/AVR8/../AVR8/Endpoint_AVR8.h ****  *  \copydetails Group_EndpointManagement_AVR8
  34:../../tmk_core/protocol/lufa/LUFA-git/LUFA/Drivers/USB/Core/AVR8/../AVR8/Endpoint_AVR8.h ****  *
  35:../../tmk_core/protocol/lufa/LUFA-git/LUFA/Drivers/USB/Core/AVR8/../AVR8/Endpoint_AVR8.h ****  *  \note This file should not be included directly. It is automatically included as needed by the 
  36:../../tmk_core/protocol/lufa/LUFA-git/LUFA/Drivers/USB/Core/AVR8/../AVR8/Endpoint_AVR8.h ****  *        dispatch header located in LUFA/Drivers/USB/USB.h.
  37:../../tmk_core/protocol/lufa/LUFA-git/LUFA/Drivers/USB/Core/AVR8/../AVR8/Endpoint_AVR8.h ****  */
  38:../../tmk_core/protocol/lufa/LUFA-git/LUFA/Drivers/USB/Core/AVR8/../AVR8/Endpoint_AVR8.h **** 
  39:../../tmk_core/protocol/lufa/LUFA-git/LUFA/Drivers/USB/Core/AVR8/../AVR8/Endpoint_AVR8.h **** /** \ingroup Group_EndpointRW
  40:../../tmk_core/protocol/lufa/LUFA-git/LUFA/Drivers/USB/Core/AVR8/../AVR8/Endpoint_AVR8.h ****  *  \defgroup Group_EndpointRW_AVR8 Endpoint Data Reading and Writing (AVR8)
  41:../../tmk_core/protocol/lufa/LUFA-git/LUFA/Drivers/USB/Core/AVR8/../AVR8/Endpoint_AVR8.h ****  *  \brief Endpoint data read/write definitions for the Atmel AVR8 architecture.
  42:../../tmk_core/protocol/lufa/LUFA-git/LUFA/Drivers/USB/Core/AVR8/../AVR8/Endpoint_AVR8.h ****  *
  43:../../tmk_core/protocol/lufa/LUFA-git/LUFA/Drivers/USB/Core/AVR8/../AVR8/Endpoint_AVR8.h ****  *  Functions, macros, variables, enums and types related to data reading and writing from and to e
  44:../../tmk_core/protocol/lufa/LUFA-git/LUFA/Drivers/USB/Core/AVR8/../AVR8/Endpoint_AVR8.h ****  */
  45:../../tmk_core/protocol/lufa/LUFA-git/LUFA/Drivers/USB/Core/AVR8/../AVR8/Endpoint_AVR8.h **** 
  46:../../tmk_core/protocol/lufa/LUFA-git/LUFA/Drivers/USB/Core/AVR8/../AVR8/Endpoint_AVR8.h **** /** \ingroup Group_EndpointPrimitiveRW
  47:../../tmk_core/protocol/lufa/LUFA-git/LUFA/Drivers/USB/Core/AVR8/../AVR8/Endpoint_AVR8.h ****  *  \defgroup Group_EndpointPrimitiveRW_AVR8 Read/Write of Primitive Data Types (AVR8)
  48:../../tmk_core/protocol/lufa/LUFA-git/LUFA/Drivers/USB/Core/AVR8/../AVR8/Endpoint_AVR8.h ****  *  \brief Endpoint primitive read/write definitions for the Atmel AVR8 architecture.
  49:../../tmk_core/protocol/lufa/LUFA-git/LUFA/Drivers/USB/Core/AVR8/../AVR8/Endpoint_AVR8.h ****  *
  50:../../tmk_core/protocol/lufa/LUFA-git/LUFA/Drivers/USB/Core/AVR8/../AVR8/Endpoint_AVR8.h ****  *  Functions, macros, variables, enums and types related to data reading and writing of primitive 
  51:../../tmk_core/protocol/lufa/LUFA-git/LUFA/Drivers/USB/Core/AVR8/../AVR8/Endpoint_AVR8.h ****  *  from and to endpoints.
  52:../../tmk_core/protocol/lufa/LUFA-git/LUFA/Drivers/USB/Core/AVR8/../AVR8/Endpoint_AVR8.h ****  */
  53:../../tmk_core/protocol/lufa/LUFA-git/LUFA/Drivers/USB/Core/AVR8/../AVR8/Endpoint_AVR8.h **** 
  54:../../tmk_core/protocol/lufa/LUFA-git/LUFA/Drivers/USB/Core/AVR8/../AVR8/Endpoint_AVR8.h **** /** \ingroup Group_EndpointPacketManagement
  55:../../tmk_core/protocol/lufa/LUFA-git/LUFA/Drivers/USB/Core/AVR8/../AVR8/Endpoint_AVR8.h ****  *  \defgroup Group_EndpointPacketManagement_AVR8 Endpoint Packet Management (AVR8)
  56:../../tmk_core/protocol/lufa/LUFA-git/LUFA/Drivers/USB/Core/AVR8/../AVR8/Endpoint_AVR8.h ****  *  \brief Endpoint packet management definitions for the Atmel AVR8 architecture.
  57:../../tmk_core/protocol/lufa/LUFA-git/LUFA/Drivers/USB/Core/AVR8/../AVR8/Endpoint_AVR8.h ****  *
  58:../../tmk_core/protocol/lufa/LUFA-git/LUFA/Drivers/USB/Core/AVR8/../AVR8/Endpoint_AVR8.h ****  *  Functions, macros, variables, enums and types related to packet management of endpoints.
  59:../../tmk_core/protocol/lufa/LUFA-git/LUFA/Drivers/USB/Core/AVR8/../AVR8/Endpoint_AVR8.h ****  */
  60:../../tmk_core/protocol/lufa/LUFA-git/LUFA/Drivers/USB/Core/AVR8/../AVR8/Endpoint_AVR8.h **** 
  61:../../tmk_core/protocol/lufa/LUFA-git/LUFA/Drivers/USB/Core/AVR8/../AVR8/Endpoint_AVR8.h **** /** \ingroup Group_EndpointManagement
  62:../../tmk_core/protocol/lufa/LUFA-git/LUFA/Drivers/USB/Core/AVR8/../AVR8/Endpoint_AVR8.h ****  *  \defgroup Group_EndpointManagement_AVR8 Endpoint Management (AVR8)
  63:../../tmk_core/protocol/lufa/LUFA-git/LUFA/Drivers/USB/Core/AVR8/../AVR8/Endpoint_AVR8.h ****  *  \brief Endpoint management definitions for the Atmel AVR8 architecture.
  64:../../tmk_core/protocol/lufa/LUFA-git/LUFA/Drivers/USB/Core/AVR8/../AVR8/Endpoint_AVR8.h ****  *
  65:../../tmk_core/protocol/lufa/LUFA-git/LUFA/Drivers/USB/Core/AVR8/../AVR8/Endpoint_AVR8.h ****  *  Functions, macros and enums related to endpoint management when in USB Device mode. This
  66:../../tmk_core/protocol/lufa/LUFA-git/LUFA/Drivers/USB/Core/AVR8/../AVR8/Endpoint_AVR8.h ****  *  module contains the endpoint management macros, as well as endpoint interrupt and data
  67:../../tmk_core/protocol/lufa/LUFA-git/LUFA/Drivers/USB/Core/AVR8/../AVR8/Endpoint_AVR8.h ****  *  send/receive functions for various data types.
  68:../../tmk_core/protocol/lufa/LUFA-git/LUFA/Drivers/USB/Core/AVR8/../AVR8/Endpoint_AVR8.h ****  *
  69:../../tmk_core/protocol/lufa/LUFA-git/LUFA/Drivers/USB/Core/AVR8/../AVR8/Endpoint_AVR8.h ****  *  @{
  70:../../tmk_core/protocol/lufa/LUFA-git/LUFA/Drivers/USB/Core/AVR8/../AVR8/Endpoint_AVR8.h ****  */
  71:../../tmk_core/protocol/lufa/LUFA-git/LUFA/Drivers/USB/Core/AVR8/../AVR8/Endpoint_AVR8.h **** 
  72:../../tmk_core/protocol/lufa/LUFA-git/LUFA/Drivers/USB/Core/AVR8/../AVR8/Endpoint_AVR8.h **** #ifndef __ENDPOINT_AVR8_H__
  73:../../tmk_core/protocol/lufa/LUFA-git/LUFA/Drivers/USB/Core/AVR8/../AVR8/Endpoint_AVR8.h **** #define __ENDPOINT_AVR8_H__
  74:../../tmk_core/protocol/lufa/LUFA-git/LUFA/Drivers/USB/Core/AVR8/../AVR8/Endpoint_AVR8.h **** 
  75:../../tmk_core/protocol/lufa/LUFA-git/LUFA/Drivers/USB/Core/AVR8/../AVR8/Endpoint_AVR8.h **** 	/* Includes: */
  76:../../tmk_core/protocol/lufa/LUFA-git/LUFA/Drivers/USB/Core/AVR8/../AVR8/Endpoint_AVR8.h **** 		#include "../../../../Common/Common.h"
  77:../../tmk_core/protocol/lufa/LUFA-git/LUFA/Drivers/USB/Core/AVR8/../AVR8/Endpoint_AVR8.h **** 		#include "../USBTask.h"
  78:../../tmk_core/protocol/lufa/LUFA-git/LUFA/Drivers/USB/Core/AVR8/../AVR8/Endpoint_AVR8.h **** 		#include "../USBInterrupt.h"
  79:../../tmk_core/protocol/lufa/LUFA-git/LUFA/Drivers/USB/Core/AVR8/../AVR8/Endpoint_AVR8.h **** 
  80:../../tmk_core/protocol/lufa/LUFA-git/LUFA/Drivers/USB/Core/AVR8/../AVR8/Endpoint_AVR8.h **** 	/* Enable C linkage for C++ Compilers: */
  81:../../tmk_core/protocol/lufa/LUFA-git/LUFA/Drivers/USB/Core/AVR8/../AVR8/Endpoint_AVR8.h **** 		#if defined(__cplusplus)
  82:../../tmk_core/protocol/lufa/LUFA-git/LUFA/Drivers/USB/Core/AVR8/../AVR8/Endpoint_AVR8.h **** 			extern "C" {
  83:../../tmk_core/protocol/lufa/LUFA-git/LUFA/Drivers/USB/Core/AVR8/../AVR8/Endpoint_AVR8.h **** 		#endif
  84:../../tmk_core/protocol/lufa/LUFA-git/LUFA/Drivers/USB/Core/AVR8/../AVR8/Endpoint_AVR8.h **** 
  85:../../tmk_core/protocol/lufa/LUFA-git/LUFA/Drivers/USB/Core/AVR8/../AVR8/Endpoint_AVR8.h **** 	/* Preprocessor Checks: */
  86:../../tmk_core/protocol/lufa/LUFA-git/LUFA/Drivers/USB/Core/AVR8/../AVR8/Endpoint_AVR8.h **** 		#if !defined(__INCLUDE_FROM_USB_DRIVER)
  87:../../tmk_core/protocol/lufa/LUFA-git/LUFA/Drivers/USB/Core/AVR8/../AVR8/Endpoint_AVR8.h **** 			#error Do not include this file directly. Include LUFA/Drivers/USB/USB.h instead.
  88:../../tmk_core/protocol/lufa/LUFA-git/LUFA/Drivers/USB/Core/AVR8/../AVR8/Endpoint_AVR8.h **** 		#endif
  89:../../tmk_core/protocol/lufa/LUFA-git/LUFA/Drivers/USB/Core/AVR8/../AVR8/Endpoint_AVR8.h **** 
  90:../../tmk_core/protocol/lufa/LUFA-git/LUFA/Drivers/USB/Core/AVR8/../AVR8/Endpoint_AVR8.h **** 	/* Private Interface - For use in library only: */
  91:../../tmk_core/protocol/lufa/LUFA-git/LUFA/Drivers/USB/Core/AVR8/../AVR8/Endpoint_AVR8.h **** 	#if !defined(__DOXYGEN__)
  92:../../tmk_core/protocol/lufa/LUFA-git/LUFA/Drivers/USB/Core/AVR8/../AVR8/Endpoint_AVR8.h **** 		/* Inline Functions: */
  93:../../tmk_core/protocol/lufa/LUFA-git/LUFA/Drivers/USB/Core/AVR8/../AVR8/Endpoint_AVR8.h **** 			static inline uint8_t Endpoint_BytesToEPSizeMask(const uint16_t Bytes) ATTR_WARN_UNUSED_RESULT A
  94:../../tmk_core/protocol/lufa/LUFA-git/LUFA/Drivers/USB/Core/AVR8/../AVR8/Endpoint_AVR8.h **** 			                                                                       ATTR_ALWAYS_INLINE;
  95:../../tmk_core/protocol/lufa/LUFA-git/LUFA/Drivers/USB/Core/AVR8/../AVR8/Endpoint_AVR8.h **** 			static inline uint8_t Endpoint_BytesToEPSizeMask(const uint16_t Bytes)
  96:../../tmk_core/protocol/lufa/LUFA-git/LUFA/Drivers/USB/Core/AVR8/../AVR8/Endpoint_AVR8.h **** 			{
  97:../../tmk_core/protocol/lufa/LUFA-git/LUFA/Drivers/USB/Core/AVR8/../AVR8/Endpoint_AVR8.h **** 				uint8_t  MaskVal    = 0;
  98:../../tmk_core/protocol/lufa/LUFA-git/LUFA/Drivers/USB/Core/AVR8/../AVR8/Endpoint_AVR8.h **** 				uint16_t CheckBytes = 8;
  99:../../tmk_core/protocol/lufa/LUFA-git/LUFA/Drivers/USB/Core/AVR8/../AVR8/Endpoint_AVR8.h **** 
 100:../../tmk_core/protocol/lufa/LUFA-git/LUFA/Drivers/USB/Core/AVR8/../AVR8/Endpoint_AVR8.h **** 				while (CheckBytes < Bytes)
 101:../../tmk_core/protocol/lufa/LUFA-git/LUFA/Drivers/USB/Core/AVR8/../AVR8/Endpoint_AVR8.h **** 				{
 102:../../tmk_core/protocol/lufa/LUFA-git/LUFA/Drivers/USB/Core/AVR8/../AVR8/Endpoint_AVR8.h **** 					MaskVal++;
 103:../../tmk_core/protocol/lufa/LUFA-git/LUFA/Drivers/USB/Core/AVR8/../AVR8/Endpoint_AVR8.h **** 					CheckBytes <<= 1;
 104:../../tmk_core/protocol/lufa/LUFA-git/LUFA/Drivers/USB/Core/AVR8/../AVR8/Endpoint_AVR8.h **** 				}
 105:../../tmk_core/protocol/lufa/LUFA-git/LUFA/Drivers/USB/Core/AVR8/../AVR8/Endpoint_AVR8.h **** 
 106:../../tmk_core/protocol/lufa/LUFA-git/LUFA/Drivers/USB/Core/AVR8/../AVR8/Endpoint_AVR8.h **** 				return (MaskVal << EPSIZE0);
 107:../../tmk_core/protocol/lufa/LUFA-git/LUFA/Drivers/USB/Core/AVR8/../AVR8/Endpoint_AVR8.h **** 			}
 108:../../tmk_core/protocol/lufa/LUFA-git/LUFA/Drivers/USB/Core/AVR8/../AVR8/Endpoint_AVR8.h **** 
 109:../../tmk_core/protocol/lufa/LUFA-git/LUFA/Drivers/USB/Core/AVR8/../AVR8/Endpoint_AVR8.h **** 		/* Function Prototypes: */
 110:../../tmk_core/protocol/lufa/LUFA-git/LUFA/Drivers/USB/Core/AVR8/../AVR8/Endpoint_AVR8.h **** 			void Endpoint_ClearEndpoints(void);
 111:../../tmk_core/protocol/lufa/LUFA-git/LUFA/Drivers/USB/Core/AVR8/../AVR8/Endpoint_AVR8.h **** 			bool Endpoint_ConfigureEndpoint_Prv(const uint8_t Number,
 112:../../tmk_core/protocol/lufa/LUFA-git/LUFA/Drivers/USB/Core/AVR8/../AVR8/Endpoint_AVR8.h **** 			                                    const uint8_t UECFG0XData,
 113:../../tmk_core/protocol/lufa/LUFA-git/LUFA/Drivers/USB/Core/AVR8/../AVR8/Endpoint_AVR8.h **** 			                                    const uint8_t UECFG1XData);
 114:../../tmk_core/protocol/lufa/LUFA-git/LUFA/Drivers/USB/Core/AVR8/../AVR8/Endpoint_AVR8.h **** 
 115:../../tmk_core/protocol/lufa/LUFA-git/LUFA/Drivers/USB/Core/AVR8/../AVR8/Endpoint_AVR8.h **** 	#endif
 116:../../tmk_core/protocol/lufa/LUFA-git/LUFA/Drivers/USB/Core/AVR8/../AVR8/Endpoint_AVR8.h **** 
 117:../../tmk_core/protocol/lufa/LUFA-git/LUFA/Drivers/USB/Core/AVR8/../AVR8/Endpoint_AVR8.h **** 	/* Public Interface - May be used in end-application: */
 118:../../tmk_core/protocol/lufa/LUFA-git/LUFA/Drivers/USB/Core/AVR8/../AVR8/Endpoint_AVR8.h **** 		/* Macros: */
 119:../../tmk_core/protocol/lufa/LUFA-git/LUFA/Drivers/USB/Core/AVR8/../AVR8/Endpoint_AVR8.h **** 			#if (!defined(FIXED_CONTROL_ENDPOINT_SIZE) || defined(__DOXYGEN__))
 120:../../tmk_core/protocol/lufa/LUFA-git/LUFA/Drivers/USB/Core/AVR8/../AVR8/Endpoint_AVR8.h **** 				/** Default size of the default control endpoint's bank, until altered by the control endpoint 
 121:../../tmk_core/protocol/lufa/LUFA-git/LUFA/Drivers/USB/Core/AVR8/../AVR8/Endpoint_AVR8.h **** 				 *  value in the device descriptor. Not available if the \c FIXED_CONTROL_ENDPOINT_SIZE token i
 122:../../tmk_core/protocol/lufa/LUFA-git/LUFA/Drivers/USB/Core/AVR8/../AVR8/Endpoint_AVR8.h **** 				 */
 123:../../tmk_core/protocol/lufa/LUFA-git/LUFA/Drivers/USB/Core/AVR8/../AVR8/Endpoint_AVR8.h **** 				#define ENDPOINT_CONTROLEP_DEFAULT_SIZE     8
 124:../../tmk_core/protocol/lufa/LUFA-git/LUFA/Drivers/USB/Core/AVR8/../AVR8/Endpoint_AVR8.h **** 			#endif
 125:../../tmk_core/protocol/lufa/LUFA-git/LUFA/Drivers/USB/Core/AVR8/../AVR8/Endpoint_AVR8.h **** 
 126:../../tmk_core/protocol/lufa/LUFA-git/LUFA/Drivers/USB/Core/AVR8/../AVR8/Endpoint_AVR8.h **** 			#if !defined(CONTROL_ONLY_DEVICE) || defined(__DOXYGEN__)
 127:../../tmk_core/protocol/lufa/LUFA-git/LUFA/Drivers/USB/Core/AVR8/../AVR8/Endpoint_AVR8.h **** 				#if defined(USB_SERIES_4_AVR) || defined(USB_SERIES_6_AVR) || defined(USB_SERIES_7_AVR) || defi
 128:../../tmk_core/protocol/lufa/LUFA-git/LUFA/Drivers/USB/Core/AVR8/../AVR8/Endpoint_AVR8.h **** 					/** Total number of endpoints (including the default control endpoint at address 0) which may
 129:../../tmk_core/protocol/lufa/LUFA-git/LUFA/Drivers/USB/Core/AVR8/../AVR8/Endpoint_AVR8.h **** 					 *  be used in the device. Different USB AVR models support different amounts of endpoints,
 130:../../tmk_core/protocol/lufa/LUFA-git/LUFA/Drivers/USB/Core/AVR8/../AVR8/Endpoint_AVR8.h **** 					 *  this value reflects the maximum number of endpoints for the currently selected AVR model.
 131:../../tmk_core/protocol/lufa/LUFA-git/LUFA/Drivers/USB/Core/AVR8/../AVR8/Endpoint_AVR8.h **** 					 */
 132:../../tmk_core/protocol/lufa/LUFA-git/LUFA/Drivers/USB/Core/AVR8/../AVR8/Endpoint_AVR8.h **** 					#define ENDPOINT_TOTAL_ENDPOINTS        7
 133:../../tmk_core/protocol/lufa/LUFA-git/LUFA/Drivers/USB/Core/AVR8/../AVR8/Endpoint_AVR8.h **** 				#else
 134:../../tmk_core/protocol/lufa/LUFA-git/LUFA/Drivers/USB/Core/AVR8/../AVR8/Endpoint_AVR8.h **** 					#define ENDPOINT_TOTAL_ENDPOINTS        5
 135:../../tmk_core/protocol/lufa/LUFA-git/LUFA/Drivers/USB/Core/AVR8/../AVR8/Endpoint_AVR8.h **** 				#endif
 136:../../tmk_core/protocol/lufa/LUFA-git/LUFA/Drivers/USB/Core/AVR8/../AVR8/Endpoint_AVR8.h **** 			#else
 137:../../tmk_core/protocol/lufa/LUFA-git/LUFA/Drivers/USB/Core/AVR8/../AVR8/Endpoint_AVR8.h **** 				#define ENDPOINT_TOTAL_ENDPOINTS            1
 138:../../tmk_core/protocol/lufa/LUFA-git/LUFA/Drivers/USB/Core/AVR8/../AVR8/Endpoint_AVR8.h **** 			#endif
 139:../../tmk_core/protocol/lufa/LUFA-git/LUFA/Drivers/USB/Core/AVR8/../AVR8/Endpoint_AVR8.h **** 
 140:../../tmk_core/protocol/lufa/LUFA-git/LUFA/Drivers/USB/Core/AVR8/../AVR8/Endpoint_AVR8.h **** 		/* Enums: */
 141:../../tmk_core/protocol/lufa/LUFA-git/LUFA/Drivers/USB/Core/AVR8/../AVR8/Endpoint_AVR8.h **** 			/** Enum for the possible error return codes of the \ref Endpoint_WaitUntilReady() function.
 142:../../tmk_core/protocol/lufa/LUFA-git/LUFA/Drivers/USB/Core/AVR8/../AVR8/Endpoint_AVR8.h **** 			 *
 143:../../tmk_core/protocol/lufa/LUFA-git/LUFA/Drivers/USB/Core/AVR8/../AVR8/Endpoint_AVR8.h **** 			 *  \ingroup Group_EndpointRW_AVR8
 144:../../tmk_core/protocol/lufa/LUFA-git/LUFA/Drivers/USB/Core/AVR8/../AVR8/Endpoint_AVR8.h **** 			 */
 145:../../tmk_core/protocol/lufa/LUFA-git/LUFA/Drivers/USB/Core/AVR8/../AVR8/Endpoint_AVR8.h **** 			enum Endpoint_WaitUntilReady_ErrorCodes_t
 146:../../tmk_core/protocol/lufa/LUFA-git/LUFA/Drivers/USB/Core/AVR8/../AVR8/Endpoint_AVR8.h **** 			{
 147:../../tmk_core/protocol/lufa/LUFA-git/LUFA/Drivers/USB/Core/AVR8/../AVR8/Endpoint_AVR8.h **** 				ENDPOINT_READYWAIT_NoError                 = 0, /**< Endpoint is ready for next packet, no erro
 148:../../tmk_core/protocol/lufa/LUFA-git/LUFA/Drivers/USB/Core/AVR8/../AVR8/Endpoint_AVR8.h **** 				ENDPOINT_READYWAIT_EndpointStalled         = 1, /**< The endpoint was stalled during the stream
 149:../../tmk_core/protocol/lufa/LUFA-git/LUFA/Drivers/USB/Core/AVR8/../AVR8/Endpoint_AVR8.h **** 				                                                 *   transfer by the host or device.
 150:../../tmk_core/protocol/lufa/LUFA-git/LUFA/Drivers/USB/Core/AVR8/../AVR8/Endpoint_AVR8.h **** 				                                                 */
 151:../../tmk_core/protocol/lufa/LUFA-git/LUFA/Drivers/USB/Core/AVR8/../AVR8/Endpoint_AVR8.h **** 				ENDPOINT_READYWAIT_DeviceDisconnected      = 2,	/**< Device was disconnected from the host whil
 152:../../tmk_core/protocol/lufa/LUFA-git/LUFA/Drivers/USB/Core/AVR8/../AVR8/Endpoint_AVR8.h **** 				                                                 *   waiting for the endpoint to become ready.
 153:../../tmk_core/protocol/lufa/LUFA-git/LUFA/Drivers/USB/Core/AVR8/../AVR8/Endpoint_AVR8.h **** 				                                                 */
 154:../../tmk_core/protocol/lufa/LUFA-git/LUFA/Drivers/USB/Core/AVR8/../AVR8/Endpoint_AVR8.h **** 				ENDPOINT_READYWAIT_BusSuspended            = 3, /**< The USB bus has been suspended by the host
 155:../../tmk_core/protocol/lufa/LUFA-git/LUFA/Drivers/USB/Core/AVR8/../AVR8/Endpoint_AVR8.h **** 				                                                 *   no USB endpoint traffic can occur until th
 156:../../tmk_core/protocol/lufa/LUFA-git/LUFA/Drivers/USB/Core/AVR8/../AVR8/Endpoint_AVR8.h **** 				                                                 *   has resumed.
 157:../../tmk_core/protocol/lufa/LUFA-git/LUFA/Drivers/USB/Core/AVR8/../AVR8/Endpoint_AVR8.h **** 				                                                 */
 158:../../tmk_core/protocol/lufa/LUFA-git/LUFA/Drivers/USB/Core/AVR8/../AVR8/Endpoint_AVR8.h **** 				ENDPOINT_READYWAIT_Timeout                 = 4, /**< The host failed to accept or send the next
 159:../../tmk_core/protocol/lufa/LUFA-git/LUFA/Drivers/USB/Core/AVR8/../AVR8/Endpoint_AVR8.h **** 				                                                 *   within the software timeout period set by 
 160:../../tmk_core/protocol/lufa/LUFA-git/LUFA/Drivers/USB/Core/AVR8/../AVR8/Endpoint_AVR8.h **** 				                                                 *   \ref USB_STREAM_TIMEOUT_MS macro.
 161:../../tmk_core/protocol/lufa/LUFA-git/LUFA/Drivers/USB/Core/AVR8/../AVR8/Endpoint_AVR8.h **** 				                                                 */
 162:../../tmk_core/protocol/lufa/LUFA-git/LUFA/Drivers/USB/Core/AVR8/../AVR8/Endpoint_AVR8.h **** 			};
 163:../../tmk_core/protocol/lufa/LUFA-git/LUFA/Drivers/USB/Core/AVR8/../AVR8/Endpoint_AVR8.h **** 
 164:../../tmk_core/protocol/lufa/LUFA-git/LUFA/Drivers/USB/Core/AVR8/../AVR8/Endpoint_AVR8.h **** 		/* Inline Functions: */
 165:../../tmk_core/protocol/lufa/LUFA-git/LUFA/Drivers/USB/Core/AVR8/../AVR8/Endpoint_AVR8.h **** 			/** Configures the specified endpoint address with the given endpoint type, bank size and number
 166:../../tmk_core/protocol/lufa/LUFA-git/LUFA/Drivers/USB/Core/AVR8/../AVR8/Endpoint_AVR8.h **** 			 *  banks. Once configured, the endpoint may be read from or written to, depending on its direct
 167:../../tmk_core/protocol/lufa/LUFA-git/LUFA/Drivers/USB/Core/AVR8/../AVR8/Endpoint_AVR8.h **** 			 *
 168:../../tmk_core/protocol/lufa/LUFA-git/LUFA/Drivers/USB/Core/AVR8/../AVR8/Endpoint_AVR8.h **** 			 *  \param[in] Address    Endpoint address to configure.
 169:../../tmk_core/protocol/lufa/LUFA-git/LUFA/Drivers/USB/Core/AVR8/../AVR8/Endpoint_AVR8.h **** 			 *
 170:../../tmk_core/protocol/lufa/LUFA-git/LUFA/Drivers/USB/Core/AVR8/../AVR8/Endpoint_AVR8.h **** 			 *  \param[in] Type       Type of endpoint to configure, a \c EP_TYPE_* mask. Not all endpoint t
 171:../../tmk_core/protocol/lufa/LUFA-git/LUFA/Drivers/USB/Core/AVR8/../AVR8/Endpoint_AVR8.h **** 			 *                        are available on Low Speed USB devices - refer to the USB 2.0 specific
 172:../../tmk_core/protocol/lufa/LUFA-git/LUFA/Drivers/USB/Core/AVR8/../AVR8/Endpoint_AVR8.h **** 			 *
 173:../../tmk_core/protocol/lufa/LUFA-git/LUFA/Drivers/USB/Core/AVR8/../AVR8/Endpoint_AVR8.h **** 			 *  \param[in] Size       Size of the endpoint's bank, where packets are stored before they are 
 174:../../tmk_core/protocol/lufa/LUFA-git/LUFA/Drivers/USB/Core/AVR8/../AVR8/Endpoint_AVR8.h **** 			 *                        to the USB host, or after they have been received from the USB host (d
 175:../../tmk_core/protocol/lufa/LUFA-git/LUFA/Drivers/USB/Core/AVR8/../AVR8/Endpoint_AVR8.h **** 			 *                        the endpoint's data direction). The bank size must indicate the maximu
 176:../../tmk_core/protocol/lufa/LUFA-git/LUFA/Drivers/USB/Core/AVR8/../AVR8/Endpoint_AVR8.h **** 			 *                        that the endpoint can handle.
 177:../../tmk_core/protocol/lufa/LUFA-git/LUFA/Drivers/USB/Core/AVR8/../AVR8/Endpoint_AVR8.h **** 			 *
 178:../../tmk_core/protocol/lufa/LUFA-git/LUFA/Drivers/USB/Core/AVR8/../AVR8/Endpoint_AVR8.h **** 			 *  \param[in] Banks      Number of banks to use for the endpoint being configured.
 179:../../tmk_core/protocol/lufa/LUFA-git/LUFA/Drivers/USB/Core/AVR8/../AVR8/Endpoint_AVR8.h **** 			 *
 180:../../tmk_core/protocol/lufa/LUFA-git/LUFA/Drivers/USB/Core/AVR8/../AVR8/Endpoint_AVR8.h **** 			 *  \attention When the \c ORDERED_EP_CONFIG compile time option is used, Endpoints <b>must</b> 
 181:../../tmk_core/protocol/lufa/LUFA-git/LUFA/Drivers/USB/Core/AVR8/../AVR8/Endpoint_AVR8.h **** 			 *             ascending order, or bank corruption will occur.
 182:../../tmk_core/protocol/lufa/LUFA-git/LUFA/Drivers/USB/Core/AVR8/../AVR8/Endpoint_AVR8.h **** 			 *
 183:../../tmk_core/protocol/lufa/LUFA-git/LUFA/Drivers/USB/Core/AVR8/../AVR8/Endpoint_AVR8.h **** 			 *  \note Different endpoints may have different maximum packet sizes based on the endpoint's in
 184:../../tmk_core/protocol/lufa/LUFA-git/LUFA/Drivers/USB/Core/AVR8/../AVR8/Endpoint_AVR8.h **** 			 *        refer to the chosen microcontroller model's datasheet to determine the maximum bank si
 185:../../tmk_core/protocol/lufa/LUFA-git/LUFA/Drivers/USB/Core/AVR8/../AVR8/Endpoint_AVR8.h **** 			 *        \n\n
 186:../../tmk_core/protocol/lufa/LUFA-git/LUFA/Drivers/USB/Core/AVR8/../AVR8/Endpoint_AVR8.h **** 			 *
 187:../../tmk_core/protocol/lufa/LUFA-git/LUFA/Drivers/USB/Core/AVR8/../AVR8/Endpoint_AVR8.h **** 			 *  \note The default control endpoint should not be manually configured by the user application
 188:../../tmk_core/protocol/lufa/LUFA-git/LUFA/Drivers/USB/Core/AVR8/../AVR8/Endpoint_AVR8.h **** 			 *        it is automatically configured by the library internally.
 189:../../tmk_core/protocol/lufa/LUFA-git/LUFA/Drivers/USB/Core/AVR8/../AVR8/Endpoint_AVR8.h **** 			 *        \n\n
 190:../../tmk_core/protocol/lufa/LUFA-git/LUFA/Drivers/USB/Core/AVR8/../AVR8/Endpoint_AVR8.h **** 			 *
 191:../../tmk_core/protocol/lufa/LUFA-git/LUFA/Drivers/USB/Core/AVR8/../AVR8/Endpoint_AVR8.h **** 			 *  \note This routine will automatically select the specified endpoint upon success. Upon failu
 192:../../tmk_core/protocol/lufa/LUFA-git/LUFA/Drivers/USB/Core/AVR8/../AVR8/Endpoint_AVR8.h **** 			 *        which failed to reconfigure correctly will be selected.
 193:../../tmk_core/protocol/lufa/LUFA-git/LUFA/Drivers/USB/Core/AVR8/../AVR8/Endpoint_AVR8.h **** 			 *
 194:../../tmk_core/protocol/lufa/LUFA-git/LUFA/Drivers/USB/Core/AVR8/../AVR8/Endpoint_AVR8.h **** 			 *  \return Boolean \c true if the configuration succeeded, \c false otherwise.
 195:../../tmk_core/protocol/lufa/LUFA-git/LUFA/Drivers/USB/Core/AVR8/../AVR8/Endpoint_AVR8.h **** 			 */
 196:../../tmk_core/protocol/lufa/LUFA-git/LUFA/Drivers/USB/Core/AVR8/../AVR8/Endpoint_AVR8.h **** 			static inline bool Endpoint_ConfigureEndpoint(const uint8_t Address,
 197:../../tmk_core/protocol/lufa/LUFA-git/LUFA/Drivers/USB/Core/AVR8/../AVR8/Endpoint_AVR8.h **** 			                                              const uint8_t Type,
 198:../../tmk_core/protocol/lufa/LUFA-git/LUFA/Drivers/USB/Core/AVR8/../AVR8/Endpoint_AVR8.h **** 			                                              const uint16_t Size,
 199:../../tmk_core/protocol/lufa/LUFA-git/LUFA/Drivers/USB/Core/AVR8/../AVR8/Endpoint_AVR8.h **** 			                                              const uint8_t Banks) ATTR_ALWAYS_INLINE;
 200:../../tmk_core/protocol/lufa/LUFA-git/LUFA/Drivers/USB/Core/AVR8/../AVR8/Endpoint_AVR8.h **** 			static inline bool Endpoint_ConfigureEndpoint(const uint8_t Address,
 201:../../tmk_core/protocol/lufa/LUFA-git/LUFA/Drivers/USB/Core/AVR8/../AVR8/Endpoint_AVR8.h **** 			                                              const uint8_t Type,
 202:../../tmk_core/protocol/lufa/LUFA-git/LUFA/Drivers/USB/Core/AVR8/../AVR8/Endpoint_AVR8.h **** 			                                              const uint16_t Size,
 203:../../tmk_core/protocol/lufa/LUFA-git/LUFA/Drivers/USB/Core/AVR8/../AVR8/Endpoint_AVR8.h **** 			                                              const uint8_t Banks)
 204:../../tmk_core/protocol/lufa/LUFA-git/LUFA/Drivers/USB/Core/AVR8/../AVR8/Endpoint_AVR8.h **** 			{
 205:../../tmk_core/protocol/lufa/LUFA-git/LUFA/Drivers/USB/Core/AVR8/../AVR8/Endpoint_AVR8.h **** 				uint8_t Number = (Address & ENDPOINT_EPNUM_MASK);
 206:../../tmk_core/protocol/lufa/LUFA-git/LUFA/Drivers/USB/Core/AVR8/../AVR8/Endpoint_AVR8.h **** 
 207:../../tmk_core/protocol/lufa/LUFA-git/LUFA/Drivers/USB/Core/AVR8/../AVR8/Endpoint_AVR8.h **** 				if (Number >= ENDPOINT_TOTAL_ENDPOINTS)
 208:../../tmk_core/protocol/lufa/LUFA-git/LUFA/Drivers/USB/Core/AVR8/../AVR8/Endpoint_AVR8.h **** 				  return false;
 209:../../tmk_core/protocol/lufa/LUFA-git/LUFA/Drivers/USB/Core/AVR8/../AVR8/Endpoint_AVR8.h **** 
 210:../../tmk_core/protocol/lufa/LUFA-git/LUFA/Drivers/USB/Core/AVR8/../AVR8/Endpoint_AVR8.h **** 				return Endpoint_ConfigureEndpoint_Prv(Number,
 211:../../tmk_core/protocol/lufa/LUFA-git/LUFA/Drivers/USB/Core/AVR8/../AVR8/Endpoint_AVR8.h **** 				                                      ((Type << EPTYPE0) | ((Address & ENDPOINT_DIR_IN) ? (1 <<
 212:../../tmk_core/protocol/lufa/LUFA-git/LUFA/Drivers/USB/Core/AVR8/../AVR8/Endpoint_AVR8.h **** 				                                      ((1 << ALLOC) | ((Banks > 1) ? (1 << EPBK0) : 0) | Endpoi
 213:../../tmk_core/protocol/lufa/LUFA-git/LUFA/Drivers/USB/Core/AVR8/../AVR8/Endpoint_AVR8.h **** 			}
 214:../../tmk_core/protocol/lufa/LUFA-git/LUFA/Drivers/USB/Core/AVR8/../AVR8/Endpoint_AVR8.h **** 
 215:../../tmk_core/protocol/lufa/LUFA-git/LUFA/Drivers/USB/Core/AVR8/../AVR8/Endpoint_AVR8.h **** 			/** Indicates the number of bytes currently stored in the current endpoint's selected bank.
 216:../../tmk_core/protocol/lufa/LUFA-git/LUFA/Drivers/USB/Core/AVR8/../AVR8/Endpoint_AVR8.h **** 			 *
 217:../../tmk_core/protocol/lufa/LUFA-git/LUFA/Drivers/USB/Core/AVR8/../AVR8/Endpoint_AVR8.h **** 			 *  \ingroup Group_EndpointRW_AVR8
 218:../../tmk_core/protocol/lufa/LUFA-git/LUFA/Drivers/USB/Core/AVR8/../AVR8/Endpoint_AVR8.h **** 			 *
 219:../../tmk_core/protocol/lufa/LUFA-git/LUFA/Drivers/USB/Core/AVR8/../AVR8/Endpoint_AVR8.h **** 			 *  \return Total number of bytes in the currently selected Endpoint's FIFO buffer.
 220:../../tmk_core/protocol/lufa/LUFA-git/LUFA/Drivers/USB/Core/AVR8/../AVR8/Endpoint_AVR8.h **** 			 */
 221:../../tmk_core/protocol/lufa/LUFA-git/LUFA/Drivers/USB/Core/AVR8/../AVR8/Endpoint_AVR8.h **** 			static inline uint16_t Endpoint_BytesInEndpoint(void) ATTR_WARN_UNUSED_RESULT ATTR_ALWAYS_INLINE
 222:../../tmk_core/protocol/lufa/LUFA-git/LUFA/Drivers/USB/Core/AVR8/../AVR8/Endpoint_AVR8.h **** 			static inline uint16_t Endpoint_BytesInEndpoint(void)
 223:../../tmk_core/protocol/lufa/LUFA-git/LUFA/Drivers/USB/Core/AVR8/../AVR8/Endpoint_AVR8.h **** 			{
 224:../../tmk_core/protocol/lufa/LUFA-git/LUFA/Drivers/USB/Core/AVR8/../AVR8/Endpoint_AVR8.h **** 				#if (defined(USB_SERIES_6_AVR) || defined(USB_SERIES_7_AVR))
 225:../../tmk_core/protocol/lufa/LUFA-git/LUFA/Drivers/USB/Core/AVR8/../AVR8/Endpoint_AVR8.h **** 					return UEBCX;
 226:../../tmk_core/protocol/lufa/LUFA-git/LUFA/Drivers/USB/Core/AVR8/../AVR8/Endpoint_AVR8.h **** 				#elif defined(USB_SERIES_4_AVR)
 227:../../tmk_core/protocol/lufa/LUFA-git/LUFA/Drivers/USB/Core/AVR8/../AVR8/Endpoint_AVR8.h **** 					return (((uint16_t)UEBCHX << 8) | UEBCLX);
 228:../../tmk_core/protocol/lufa/LUFA-git/LUFA/Drivers/USB/Core/AVR8/../AVR8/Endpoint_AVR8.h **** 				#elif defined(USB_SERIES_2_AVR)
 229:../../tmk_core/protocol/lufa/LUFA-git/LUFA/Drivers/USB/Core/AVR8/../AVR8/Endpoint_AVR8.h **** 					return UEBCLX;
 230:../../tmk_core/protocol/lufa/LUFA-git/LUFA/Drivers/USB/Core/AVR8/../AVR8/Endpoint_AVR8.h **** 				#endif
 231:../../tmk_core/protocol/lufa/LUFA-git/LUFA/Drivers/USB/Core/AVR8/../AVR8/Endpoint_AVR8.h **** 			}
 232:../../tmk_core/protocol/lufa/LUFA-git/LUFA/Drivers/USB/Core/AVR8/../AVR8/Endpoint_AVR8.h **** 
 233:../../tmk_core/protocol/lufa/LUFA-git/LUFA/Drivers/USB/Core/AVR8/../AVR8/Endpoint_AVR8.h **** 			/** Determines the currently selected endpoint's direction.
 234:../../tmk_core/protocol/lufa/LUFA-git/LUFA/Drivers/USB/Core/AVR8/../AVR8/Endpoint_AVR8.h **** 			 *
 235:../../tmk_core/protocol/lufa/LUFA-git/LUFA/Drivers/USB/Core/AVR8/../AVR8/Endpoint_AVR8.h **** 			 *  \return The currently selected endpoint's direction, as a \c ENDPOINT_DIR_* mask.
 236:../../tmk_core/protocol/lufa/LUFA-git/LUFA/Drivers/USB/Core/AVR8/../AVR8/Endpoint_AVR8.h **** 			 */
 237:../../tmk_core/protocol/lufa/LUFA-git/LUFA/Drivers/USB/Core/AVR8/../AVR8/Endpoint_AVR8.h **** 			static inline uint8_t Endpoint_GetEndpointDirection(void) ATTR_WARN_UNUSED_RESULT ATTR_ALWAYS_IN
 238:../../tmk_core/protocol/lufa/LUFA-git/LUFA/Drivers/USB/Core/AVR8/../AVR8/Endpoint_AVR8.h **** 			static inline uint8_t Endpoint_GetEndpointDirection(void)
 239:../../tmk_core/protocol/lufa/LUFA-git/LUFA/Drivers/USB/Core/AVR8/../AVR8/Endpoint_AVR8.h **** 			{
 240:../../tmk_core/protocol/lufa/LUFA-git/LUFA/Drivers/USB/Core/AVR8/../AVR8/Endpoint_AVR8.h **** 				return (UECFG0X & (1 << EPDIR)) ? ENDPOINT_DIR_IN : ENDPOINT_DIR_OUT;
 241:../../tmk_core/protocol/lufa/LUFA-git/LUFA/Drivers/USB/Core/AVR8/../AVR8/Endpoint_AVR8.h **** 			}
 242:../../tmk_core/protocol/lufa/LUFA-git/LUFA/Drivers/USB/Core/AVR8/../AVR8/Endpoint_AVR8.h **** 
 243:../../tmk_core/protocol/lufa/LUFA-git/LUFA/Drivers/USB/Core/AVR8/../AVR8/Endpoint_AVR8.h **** 			/** Get the endpoint address of the currently selected endpoint. This is typically used to save
 244:../../tmk_core/protocol/lufa/LUFA-git/LUFA/Drivers/USB/Core/AVR8/../AVR8/Endpoint_AVR8.h **** 			 *  the currently selected endpoint so that it can be restored after another endpoint has been
 245:../../tmk_core/protocol/lufa/LUFA-git/LUFA/Drivers/USB/Core/AVR8/../AVR8/Endpoint_AVR8.h **** 			 *  manipulated.
 246:../../tmk_core/protocol/lufa/LUFA-git/LUFA/Drivers/USB/Core/AVR8/../AVR8/Endpoint_AVR8.h **** 			 *
 247:../../tmk_core/protocol/lufa/LUFA-git/LUFA/Drivers/USB/Core/AVR8/../AVR8/Endpoint_AVR8.h **** 			 *  \return Index of the currently selected endpoint.
 248:../../tmk_core/protocol/lufa/LUFA-git/LUFA/Drivers/USB/Core/AVR8/../AVR8/Endpoint_AVR8.h **** 			 */
 249:../../tmk_core/protocol/lufa/LUFA-git/LUFA/Drivers/USB/Core/AVR8/../AVR8/Endpoint_AVR8.h **** 			static inline uint8_t Endpoint_GetCurrentEndpoint(void) ATTR_WARN_UNUSED_RESULT ATTR_ALWAYS_INLI
 250:../../tmk_core/protocol/lufa/LUFA-git/LUFA/Drivers/USB/Core/AVR8/../AVR8/Endpoint_AVR8.h **** 			static inline uint8_t Endpoint_GetCurrentEndpoint(void)
 251:../../tmk_core/protocol/lufa/LUFA-git/LUFA/Drivers/USB/Core/AVR8/../AVR8/Endpoint_AVR8.h **** 			{
 252:../../tmk_core/protocol/lufa/LUFA-git/LUFA/Drivers/USB/Core/AVR8/../AVR8/Endpoint_AVR8.h **** 				#if !defined(CONTROL_ONLY_DEVICE)
 253:../../tmk_core/protocol/lufa/LUFA-git/LUFA/Drivers/USB/Core/AVR8/../AVR8/Endpoint_AVR8.h **** 					return ((UENUM & ENDPOINT_EPNUM_MASK) | Endpoint_GetEndpointDirection());
 254:../../tmk_core/protocol/lufa/LUFA-git/LUFA/Drivers/USB/Core/AVR8/../AVR8/Endpoint_AVR8.h **** 				#else
 255:../../tmk_core/protocol/lufa/LUFA-git/LUFA/Drivers/USB/Core/AVR8/../AVR8/Endpoint_AVR8.h **** 					return ENDPOINT_CONTROLEP;
 256:../../tmk_core/protocol/lufa/LUFA-git/LUFA/Drivers/USB/Core/AVR8/../AVR8/Endpoint_AVR8.h **** 				#endif
 257:../../tmk_core/protocol/lufa/LUFA-git/LUFA/Drivers/USB/Core/AVR8/../AVR8/Endpoint_AVR8.h **** 			}
 258:../../tmk_core/protocol/lufa/LUFA-git/LUFA/Drivers/USB/Core/AVR8/../AVR8/Endpoint_AVR8.h **** 
 259:../../tmk_core/protocol/lufa/LUFA-git/LUFA/Drivers/USB/Core/AVR8/../AVR8/Endpoint_AVR8.h **** 			/** Selects the given endpoint address.
 260:../../tmk_core/protocol/lufa/LUFA-git/LUFA/Drivers/USB/Core/AVR8/../AVR8/Endpoint_AVR8.h **** 			 *
 261:../../tmk_core/protocol/lufa/LUFA-git/LUFA/Drivers/USB/Core/AVR8/../AVR8/Endpoint_AVR8.h **** 			 *  Any endpoint operations which do not require the endpoint address to be indicated will opera
 262:../../tmk_core/protocol/lufa/LUFA-git/LUFA/Drivers/USB/Core/AVR8/../AVR8/Endpoint_AVR8.h **** 			 *  the currently selected endpoint.
 263:../../tmk_core/protocol/lufa/LUFA-git/LUFA/Drivers/USB/Core/AVR8/../AVR8/Endpoint_AVR8.h **** 			 *
 264:../../tmk_core/protocol/lufa/LUFA-git/LUFA/Drivers/USB/Core/AVR8/../AVR8/Endpoint_AVR8.h **** 			 *  \param[in] Address Endpoint address to select.
 265:../../tmk_core/protocol/lufa/LUFA-git/LUFA/Drivers/USB/Core/AVR8/../AVR8/Endpoint_AVR8.h **** 			 */
 266:../../tmk_core/protocol/lufa/LUFA-git/LUFA/Drivers/USB/Core/AVR8/../AVR8/Endpoint_AVR8.h **** 			static inline void Endpoint_SelectEndpoint(const uint8_t Address) ATTR_ALWAYS_INLINE;
 267:../../tmk_core/protocol/lufa/LUFA-git/LUFA/Drivers/USB/Core/AVR8/../AVR8/Endpoint_AVR8.h **** 			static inline void Endpoint_SelectEndpoint(const uint8_t Address)
  76               		.loc 2 267 23 view .LVU12
  77               	.LBB248:
 268:../../tmk_core/protocol/lufa/LUFA-git/LUFA/Drivers/USB/Core/AVR8/../AVR8/Endpoint_AVR8.h **** 			{
 269:../../tmk_core/protocol/lufa/LUFA-git/LUFA/Drivers/USB/Core/AVR8/../AVR8/Endpoint_AVR8.h **** 				#if !defined(CONTROL_ONLY_DEVICE)
 270:../../tmk_core/protocol/lufa/LUFA-git/LUFA/Drivers/USB/Core/AVR8/../AVR8/Endpoint_AVR8.h **** 					UENUM = (Address & ENDPOINT_EPNUM_MASK);
  78               		.loc 2 270 6 view .LVU13
  79               		.loc 2 270 12 is_stmt 0 view .LVU14
  80 001c 2093 E900 		sts 233,r18
  81               	.LVL3:
  82               		.loc 2 270 12 view .LVU15
  83 0020 8FEF      		ldi r24,lo8(-1)
  84               	.LVL4:
  85               	.L4:
  86               		.loc 2 270 12 view .LVU16
  87               	.LBE248:
  88               	.LBE247:
  89               	.LBB249:
  90               	.LBI249:
 271:../../tmk_core/protocol/lufa/LUFA-git/LUFA/Drivers/USB/Core/AVR8/../AVR8/Endpoint_AVR8.h **** 				#endif
 272:../../tmk_core/protocol/lufa/LUFA-git/LUFA/Drivers/USB/Core/AVR8/../AVR8/Endpoint_AVR8.h **** 			}
 273:../../tmk_core/protocol/lufa/LUFA-git/LUFA/Drivers/USB/Core/AVR8/../AVR8/Endpoint_AVR8.h **** 
 274:../../tmk_core/protocol/lufa/LUFA-git/LUFA/Drivers/USB/Core/AVR8/../AVR8/Endpoint_AVR8.h **** 			/** Resets the endpoint bank FIFO. This clears all the endpoint banks and resets the USB control
 275:../../tmk_core/protocol/lufa/LUFA-git/LUFA/Drivers/USB/Core/AVR8/../AVR8/Endpoint_AVR8.h **** 			 *  data In and Out pointers to the bank's contents.
 276:../../tmk_core/protocol/lufa/LUFA-git/LUFA/Drivers/USB/Core/AVR8/../AVR8/Endpoint_AVR8.h **** 			 *
 277:../../tmk_core/protocol/lufa/LUFA-git/LUFA/Drivers/USB/Core/AVR8/../AVR8/Endpoint_AVR8.h **** 			 *  \param[in] Address  Endpoint address whose FIFO buffers are to be reset.
 278:../../tmk_core/protocol/lufa/LUFA-git/LUFA/Drivers/USB/Core/AVR8/../AVR8/Endpoint_AVR8.h **** 			 */
 279:../../tmk_core/protocol/lufa/LUFA-git/LUFA/Drivers/USB/Core/AVR8/../AVR8/Endpoint_AVR8.h **** 			static inline void Endpoint_ResetEndpoint(const uint8_t Address) ATTR_ALWAYS_INLINE;
 280:../../tmk_core/protocol/lufa/LUFA-git/LUFA/Drivers/USB/Core/AVR8/../AVR8/Endpoint_AVR8.h **** 			static inline void Endpoint_ResetEndpoint(const uint8_t Address)
 281:../../tmk_core/protocol/lufa/LUFA-git/LUFA/Drivers/USB/Core/AVR8/../AVR8/Endpoint_AVR8.h **** 			{
 282:../../tmk_core/protocol/lufa/LUFA-git/LUFA/Drivers/USB/Core/AVR8/../AVR8/Endpoint_AVR8.h **** 				UERST = (1 << (Address & ENDPOINT_EPNUM_MASK));
 283:../../tmk_core/protocol/lufa/LUFA-git/LUFA/Drivers/USB/Core/AVR8/../AVR8/Endpoint_AVR8.h **** 				UERST = 0;
 284:../../tmk_core/protocol/lufa/LUFA-git/LUFA/Drivers/USB/Core/AVR8/../AVR8/Endpoint_AVR8.h **** 			}
 285:../../tmk_core/protocol/lufa/LUFA-git/LUFA/Drivers/USB/Core/AVR8/../AVR8/Endpoint_AVR8.h **** 
 286:../../tmk_core/protocol/lufa/LUFA-git/LUFA/Drivers/USB/Core/AVR8/../AVR8/Endpoint_AVR8.h **** 			/** Enables the currently selected endpoint so that data can be sent and received through it to
 287:../../tmk_core/protocol/lufa/LUFA-git/LUFA/Drivers/USB/Core/AVR8/../AVR8/Endpoint_AVR8.h **** 			 *  and from a host.
 288:../../tmk_core/protocol/lufa/LUFA-git/LUFA/Drivers/USB/Core/AVR8/../AVR8/Endpoint_AVR8.h **** 			 *
 289:../../tmk_core/protocol/lufa/LUFA-git/LUFA/Drivers/USB/Core/AVR8/../AVR8/Endpoint_AVR8.h **** 			 *  \note Endpoints must first be configured properly via \ref Endpoint_ConfigureEndpoint().
 290:../../tmk_core/protocol/lufa/LUFA-git/LUFA/Drivers/USB/Core/AVR8/../AVR8/Endpoint_AVR8.h **** 			 */
 291:../../tmk_core/protocol/lufa/LUFA-git/LUFA/Drivers/USB/Core/AVR8/../AVR8/Endpoint_AVR8.h **** 			static inline void Endpoint_EnableEndpoint(void) ATTR_ALWAYS_INLINE;
 292:../../tmk_core/protocol/lufa/LUFA-git/LUFA/Drivers/USB/Core/AVR8/../AVR8/Endpoint_AVR8.h **** 			static inline void Endpoint_EnableEndpoint(void)
 293:../../tmk_core/protocol/lufa/LUFA-git/LUFA/Drivers/USB/Core/AVR8/../AVR8/Endpoint_AVR8.h **** 			{
 294:../../tmk_core/protocol/lufa/LUFA-git/LUFA/Drivers/USB/Core/AVR8/../AVR8/Endpoint_AVR8.h **** 				UECONX |= (1 << EPEN);
 295:../../tmk_core/protocol/lufa/LUFA-git/LUFA/Drivers/USB/Core/AVR8/../AVR8/Endpoint_AVR8.h **** 			}
 296:../../tmk_core/protocol/lufa/LUFA-git/LUFA/Drivers/USB/Core/AVR8/../AVR8/Endpoint_AVR8.h **** 
 297:../../tmk_core/protocol/lufa/LUFA-git/LUFA/Drivers/USB/Core/AVR8/../AVR8/Endpoint_AVR8.h **** 			/** Disables the currently selected endpoint so that data cannot be sent and received through it
 298:../../tmk_core/protocol/lufa/LUFA-git/LUFA/Drivers/USB/Core/AVR8/../AVR8/Endpoint_AVR8.h **** 			 *  to and from a host.
 299:../../tmk_core/protocol/lufa/LUFA-git/LUFA/Drivers/USB/Core/AVR8/../AVR8/Endpoint_AVR8.h **** 			 */
 300:../../tmk_core/protocol/lufa/LUFA-git/LUFA/Drivers/USB/Core/AVR8/../AVR8/Endpoint_AVR8.h **** 			static inline void Endpoint_DisableEndpoint(void) ATTR_ALWAYS_INLINE;
 301:../../tmk_core/protocol/lufa/LUFA-git/LUFA/Drivers/USB/Core/AVR8/../AVR8/Endpoint_AVR8.h **** 			static inline void Endpoint_DisableEndpoint(void)
 302:../../tmk_core/protocol/lufa/LUFA-git/LUFA/Drivers/USB/Core/AVR8/../AVR8/Endpoint_AVR8.h **** 			{
 303:../../tmk_core/protocol/lufa/LUFA-git/LUFA/Drivers/USB/Core/AVR8/../AVR8/Endpoint_AVR8.h **** 				UECONX &= ~(1 << EPEN);
 304:../../tmk_core/protocol/lufa/LUFA-git/LUFA/Drivers/USB/Core/AVR8/../AVR8/Endpoint_AVR8.h **** 			}
 305:../../tmk_core/protocol/lufa/LUFA-git/LUFA/Drivers/USB/Core/AVR8/../AVR8/Endpoint_AVR8.h **** 
 306:../../tmk_core/protocol/lufa/LUFA-git/LUFA/Drivers/USB/Core/AVR8/../AVR8/Endpoint_AVR8.h **** 			/** Determines if the currently selected endpoint is enabled, but not necessarily configured.
 307:../../tmk_core/protocol/lufa/LUFA-git/LUFA/Drivers/USB/Core/AVR8/../AVR8/Endpoint_AVR8.h **** 			 *
 308:../../tmk_core/protocol/lufa/LUFA-git/LUFA/Drivers/USB/Core/AVR8/../AVR8/Endpoint_AVR8.h **** 			 * \return Boolean \c true if the currently selected endpoint is enabled, \c false otherwise.
 309:../../tmk_core/protocol/lufa/LUFA-git/LUFA/Drivers/USB/Core/AVR8/../AVR8/Endpoint_AVR8.h **** 			 */
 310:../../tmk_core/protocol/lufa/LUFA-git/LUFA/Drivers/USB/Core/AVR8/../AVR8/Endpoint_AVR8.h **** 			static inline bool Endpoint_IsEnabled(void) ATTR_WARN_UNUSED_RESULT ATTR_ALWAYS_INLINE;
 311:../../tmk_core/protocol/lufa/LUFA-git/LUFA/Drivers/USB/Core/AVR8/../AVR8/Endpoint_AVR8.h **** 			static inline bool Endpoint_IsEnabled(void)
 312:../../tmk_core/protocol/lufa/LUFA-git/LUFA/Drivers/USB/Core/AVR8/../AVR8/Endpoint_AVR8.h **** 			{
 313:../../tmk_core/protocol/lufa/LUFA-git/LUFA/Drivers/USB/Core/AVR8/../AVR8/Endpoint_AVR8.h **** 				return ((UECONX & (1 << EPEN)) ? true : false);
 314:../../tmk_core/protocol/lufa/LUFA-git/LUFA/Drivers/USB/Core/AVR8/../AVR8/Endpoint_AVR8.h **** 			}
 315:../../tmk_core/protocol/lufa/LUFA-git/LUFA/Drivers/USB/Core/AVR8/../AVR8/Endpoint_AVR8.h **** 
 316:../../tmk_core/protocol/lufa/LUFA-git/LUFA/Drivers/USB/Core/AVR8/../AVR8/Endpoint_AVR8.h **** 			/** Retrieves the number of busy banks in the currently selected endpoint, which have been queue
 317:../../tmk_core/protocol/lufa/LUFA-git/LUFA/Drivers/USB/Core/AVR8/../AVR8/Endpoint_AVR8.h **** 			 *  transmission via the \ref Endpoint_ClearIN() command, or are awaiting acknowledgment via the
 318:../../tmk_core/protocol/lufa/LUFA-git/LUFA/Drivers/USB/Core/AVR8/../AVR8/Endpoint_AVR8.h **** 			 *  \ref Endpoint_ClearOUT() command.
 319:../../tmk_core/protocol/lufa/LUFA-git/LUFA/Drivers/USB/Core/AVR8/../AVR8/Endpoint_AVR8.h **** 			 *
 320:../../tmk_core/protocol/lufa/LUFA-git/LUFA/Drivers/USB/Core/AVR8/../AVR8/Endpoint_AVR8.h **** 			 *  \ingroup Group_EndpointPacketManagement_AVR8
 321:../../tmk_core/protocol/lufa/LUFA-git/LUFA/Drivers/USB/Core/AVR8/../AVR8/Endpoint_AVR8.h **** 			 *
 322:../../tmk_core/protocol/lufa/LUFA-git/LUFA/Drivers/USB/Core/AVR8/../AVR8/Endpoint_AVR8.h **** 			 *  \return Total number of busy banks in the selected endpoint.
 323:../../tmk_core/protocol/lufa/LUFA-git/LUFA/Drivers/USB/Core/AVR8/../AVR8/Endpoint_AVR8.h **** 			 */
 324:../../tmk_core/protocol/lufa/LUFA-git/LUFA/Drivers/USB/Core/AVR8/../AVR8/Endpoint_AVR8.h **** 			static inline uint8_t Endpoint_GetBusyBanks(void) ATTR_ALWAYS_INLINE ATTR_WARN_UNUSED_RESULT;
 325:../../tmk_core/protocol/lufa/LUFA-git/LUFA/Drivers/USB/Core/AVR8/../AVR8/Endpoint_AVR8.h **** 			static inline uint8_t Endpoint_GetBusyBanks(void)
 326:../../tmk_core/protocol/lufa/LUFA-git/LUFA/Drivers/USB/Core/AVR8/../AVR8/Endpoint_AVR8.h **** 			{
 327:../../tmk_core/protocol/lufa/LUFA-git/LUFA/Drivers/USB/Core/AVR8/../AVR8/Endpoint_AVR8.h **** 				return (UESTA0X & (0x03 << NBUSYBK0));
 328:../../tmk_core/protocol/lufa/LUFA-git/LUFA/Drivers/USB/Core/AVR8/../AVR8/Endpoint_AVR8.h **** 			}
 329:../../tmk_core/protocol/lufa/LUFA-git/LUFA/Drivers/USB/Core/AVR8/../AVR8/Endpoint_AVR8.h **** 
 330:../../tmk_core/protocol/lufa/LUFA-git/LUFA/Drivers/USB/Core/AVR8/../AVR8/Endpoint_AVR8.h **** 			/** Aborts all pending IN transactions on the currently selected endpoint, once the bank
 331:../../tmk_core/protocol/lufa/LUFA-git/LUFA/Drivers/USB/Core/AVR8/../AVR8/Endpoint_AVR8.h **** 			 *  has been queued for transmission to the host via \ref Endpoint_ClearIN(). This function
 332:../../tmk_core/protocol/lufa/LUFA-git/LUFA/Drivers/USB/Core/AVR8/../AVR8/Endpoint_AVR8.h **** 			 *  will terminate all queued transactions, resetting the endpoint banks ready for a new
 333:../../tmk_core/protocol/lufa/LUFA-git/LUFA/Drivers/USB/Core/AVR8/../AVR8/Endpoint_AVR8.h **** 			 *  packet.
 334:../../tmk_core/protocol/lufa/LUFA-git/LUFA/Drivers/USB/Core/AVR8/../AVR8/Endpoint_AVR8.h **** 			 *
 335:../../tmk_core/protocol/lufa/LUFA-git/LUFA/Drivers/USB/Core/AVR8/../AVR8/Endpoint_AVR8.h **** 			 *  \ingroup Group_EndpointPacketManagement_AVR8
 336:../../tmk_core/protocol/lufa/LUFA-git/LUFA/Drivers/USB/Core/AVR8/../AVR8/Endpoint_AVR8.h **** 			 */
 337:../../tmk_core/protocol/lufa/LUFA-git/LUFA/Drivers/USB/Core/AVR8/../AVR8/Endpoint_AVR8.h **** 			static inline void Endpoint_AbortPendingIN(void)
 338:../../tmk_core/protocol/lufa/LUFA-git/LUFA/Drivers/USB/Core/AVR8/../AVR8/Endpoint_AVR8.h **** 			{
 339:../../tmk_core/protocol/lufa/LUFA-git/LUFA/Drivers/USB/Core/AVR8/../AVR8/Endpoint_AVR8.h **** 				while (Endpoint_GetBusyBanks() != 0)
 340:../../tmk_core/protocol/lufa/LUFA-git/LUFA/Drivers/USB/Core/AVR8/../AVR8/Endpoint_AVR8.h **** 				{
 341:../../tmk_core/protocol/lufa/LUFA-git/LUFA/Drivers/USB/Core/AVR8/../AVR8/Endpoint_AVR8.h **** 					UEINTX |= (1 << RXOUTI);
 342:../../tmk_core/protocol/lufa/LUFA-git/LUFA/Drivers/USB/Core/AVR8/../AVR8/Endpoint_AVR8.h **** 					while (UEINTX & (1 << RXOUTI));
 343:../../tmk_core/protocol/lufa/LUFA-git/LUFA/Drivers/USB/Core/AVR8/../AVR8/Endpoint_AVR8.h **** 				}
 344:../../tmk_core/protocol/lufa/LUFA-git/LUFA/Drivers/USB/Core/AVR8/../AVR8/Endpoint_AVR8.h **** 			}
 345:../../tmk_core/protocol/lufa/LUFA-git/LUFA/Drivers/USB/Core/AVR8/../AVR8/Endpoint_AVR8.h **** 
 346:../../tmk_core/protocol/lufa/LUFA-git/LUFA/Drivers/USB/Core/AVR8/../AVR8/Endpoint_AVR8.h **** 			/** Determines if the currently selected endpoint may be read from (if data is waiting in the en
 347:../../tmk_core/protocol/lufa/LUFA-git/LUFA/Drivers/USB/Core/AVR8/../AVR8/Endpoint_AVR8.h **** 			 *  bank and the endpoint is an OUT direction, or if the bank is not yet full if the endpoint is
 348:../../tmk_core/protocol/lufa/LUFA-git/LUFA/Drivers/USB/Core/AVR8/../AVR8/Endpoint_AVR8.h **** 			 *  direction). This function will return false if an error has occurred in the endpoint, if the
 349:../../tmk_core/protocol/lufa/LUFA-git/LUFA/Drivers/USB/Core/AVR8/../AVR8/Endpoint_AVR8.h **** 			 *  is an OUT direction and no packet (or an empty packet) has been received, or if the endpoint
 350:../../tmk_core/protocol/lufa/LUFA-git/LUFA/Drivers/USB/Core/AVR8/../AVR8/Endpoint_AVR8.h **** 			 *  direction and the endpoint bank is full.
 351:../../tmk_core/protocol/lufa/LUFA-git/LUFA/Drivers/USB/Core/AVR8/../AVR8/Endpoint_AVR8.h **** 			 *
 352:../../tmk_core/protocol/lufa/LUFA-git/LUFA/Drivers/USB/Core/AVR8/../AVR8/Endpoint_AVR8.h **** 			 *  \ingroup Group_EndpointPacketManagement_AVR8
 353:../../tmk_core/protocol/lufa/LUFA-git/LUFA/Drivers/USB/Core/AVR8/../AVR8/Endpoint_AVR8.h **** 			 *
 354:../../tmk_core/protocol/lufa/LUFA-git/LUFA/Drivers/USB/Core/AVR8/../AVR8/Endpoint_AVR8.h **** 			 *  \return Boolean \c true if the currently selected endpoint may be read from or written to, d
 355:../../tmk_core/protocol/lufa/LUFA-git/LUFA/Drivers/USB/Core/AVR8/../AVR8/Endpoint_AVR8.h **** 			 *          on its direction.
 356:../../tmk_core/protocol/lufa/LUFA-git/LUFA/Drivers/USB/Core/AVR8/../AVR8/Endpoint_AVR8.h **** 			 */
 357:../../tmk_core/protocol/lufa/LUFA-git/LUFA/Drivers/USB/Core/AVR8/../AVR8/Endpoint_AVR8.h **** 			static inline bool Endpoint_IsReadWriteAllowed(void) ATTR_WARN_UNUSED_RESULT ATTR_ALWAYS_INLINE;
 358:../../tmk_core/protocol/lufa/LUFA-git/LUFA/Drivers/USB/Core/AVR8/../AVR8/Endpoint_AVR8.h **** 			static inline bool Endpoint_IsReadWriteAllowed(void)
  91               		.loc 2 358 23 is_stmt 1 view .LVU17
  92               	.LBB250:
 359:../../tmk_core/protocol/lufa/LUFA-git/LUFA/Drivers/USB/Core/AVR8/../AVR8/Endpoint_AVR8.h **** 			{
 360:../../tmk_core/protocol/lufa/LUFA-git/LUFA/Drivers/USB/Core/AVR8/../AVR8/Endpoint_AVR8.h **** 				return ((UEINTX & (1 << RWAL)) ? true : false);
  93               		.loc 2 360 5 view .LVU18
  94               		.loc 2 360 14 is_stmt 0 view .LVU19
  95 0022 9091 E800 		lds r25,232
  96 0026 8150      		subi r24,lo8(-(-1))
  97               	.LVL5:
  98               		.loc 2 360 14 view .LVU20
  99               	.LBE250:
 100               	.LBE249:
 572:../../tmk_core/protocol/lufa/lufa.c **** 
 573:../../tmk_core/protocol/lufa/lufa.c ****     /* Check if write ready for a polling interval around 10ms */
 574:../../tmk_core/protocol/lufa/lufa.c ****     while (timeout-- && !Endpoint_IsReadWriteAllowed()) _delay_us(40);
 101               		.loc 1 574 22 view .LVU21
 102 0028 95FD      		sbrc r25,5
 103 002a 00C0      		rjmp .L5
 104               		.loc 1 574 57 is_stmt 1 view .LVU22
 105               	.LVL6:
 106               	.LBB251:
 107               	.LBI251:
 108               		.file 3 "/usr/local/Cellar/avr-gcc/9.1.0/avr/include/util/delay.h"
   1:/usr/local/Cellar/avr-gcc/9.1.0/avr/include/util/delay.h **** /* Copyright (c) 2002, Marek Michalkiewicz
   2:/usr/local/Cellar/avr-gcc/9.1.0/avr/include/util/delay.h ****    Copyright (c) 2004,2005,2007 Joerg Wunsch
   3:/usr/local/Cellar/avr-gcc/9.1.0/avr/include/util/delay.h ****    Copyright (c) 2007  Florin-Viorel Petrov
   4:/usr/local/Cellar/avr-gcc/9.1.0/avr/include/util/delay.h ****    All rights reserved.
   5:/usr/local/Cellar/avr-gcc/9.1.0/avr/include/util/delay.h **** 
   6:/usr/local/Cellar/avr-gcc/9.1.0/avr/include/util/delay.h ****    Redistribution and use in source and binary forms, with or without
   7:/usr/local/Cellar/avr-gcc/9.1.0/avr/include/util/delay.h ****    modification, are permitted provided that the following conditions are met:
   8:/usr/local/Cellar/avr-gcc/9.1.0/avr/include/util/delay.h **** 
   9:/usr/local/Cellar/avr-gcc/9.1.0/avr/include/util/delay.h ****    * Redistributions of source code must retain the above copyright
  10:/usr/local/Cellar/avr-gcc/9.1.0/avr/include/util/delay.h ****      notice, this list of conditions and the following disclaimer.
  11:/usr/local/Cellar/avr-gcc/9.1.0/avr/include/util/delay.h **** 
  12:/usr/local/Cellar/avr-gcc/9.1.0/avr/include/util/delay.h ****    * Redistributions in binary form must reproduce the above copyright
  13:/usr/local/Cellar/avr-gcc/9.1.0/avr/include/util/delay.h ****      notice, this list of conditions and the following disclaimer in
  14:/usr/local/Cellar/avr-gcc/9.1.0/avr/include/util/delay.h ****      the documentation and/or other materials provided with the
  15:/usr/local/Cellar/avr-gcc/9.1.0/avr/include/util/delay.h ****      distribution.
  16:/usr/local/Cellar/avr-gcc/9.1.0/avr/include/util/delay.h **** 
  17:/usr/local/Cellar/avr-gcc/9.1.0/avr/include/util/delay.h ****    * Neither the name of the copyright holders nor the names of
  18:/usr/local/Cellar/avr-gcc/9.1.0/avr/include/util/delay.h ****      contributors may be used to endorse or promote products derived
  19:/usr/local/Cellar/avr-gcc/9.1.0/avr/include/util/delay.h ****      from this software without specific prior written permission.
  20:/usr/local/Cellar/avr-gcc/9.1.0/avr/include/util/delay.h **** 
  21:/usr/local/Cellar/avr-gcc/9.1.0/avr/include/util/delay.h ****   THIS SOFTWARE IS PROVIDED BY THE COPYRIGHT HOLDERS AND CONTRIBUTORS "AS IS"
  22:/usr/local/Cellar/avr-gcc/9.1.0/avr/include/util/delay.h ****   AND ANY EXPRESS OR IMPLIED WARRANTIES, INCLUDING, BUT NOT LIMITED TO, THE
  23:/usr/local/Cellar/avr-gcc/9.1.0/avr/include/util/delay.h ****   IMPLIED WARRANTIES OF MERCHANTABILITY AND FITNESS FOR A PARTICULAR PURPOSE
  24:/usr/local/Cellar/avr-gcc/9.1.0/avr/include/util/delay.h ****   ARE DISCLAIMED. IN NO EVENT SHALL THE COPYRIGHT OWNER OR CONTRIBUTORS BE
  25:/usr/local/Cellar/avr-gcc/9.1.0/avr/include/util/delay.h ****   LIABLE FOR ANY DIRECT, INDIRECT, INCIDENTAL, SPECIAL, EXEMPLARY, OR
  26:/usr/local/Cellar/avr-gcc/9.1.0/avr/include/util/delay.h ****   CONSEQUENTIAL DAMAGES (INCLUDING, BUT NOT LIMITED TO, PROCUREMENT OF
  27:/usr/local/Cellar/avr-gcc/9.1.0/avr/include/util/delay.h ****   SUBSTITUTE GOODS OR SERVICES; LOSS OF USE, DATA, OR PROFITS; OR BUSINESS
  28:/usr/local/Cellar/avr-gcc/9.1.0/avr/include/util/delay.h ****   INTERRUPTION) HOWEVER CAUSED AND ON ANY THEORY OF LIABILITY, WHETHER IN
  29:/usr/local/Cellar/avr-gcc/9.1.0/avr/include/util/delay.h ****   CONTRACT, STRICT LIABILITY, OR TORT (INCLUDING NEGLIGENCE OR OTHERWISE)
  30:/usr/local/Cellar/avr-gcc/9.1.0/avr/include/util/delay.h ****   ARISING IN ANY WAY OUT OF THE USE OF THIS SOFTWARE, EVEN IF ADVISED OF THE
  31:/usr/local/Cellar/avr-gcc/9.1.0/avr/include/util/delay.h ****   POSSIBILITY OF SUCH DAMAGE. */
  32:/usr/local/Cellar/avr-gcc/9.1.0/avr/include/util/delay.h **** 
  33:/usr/local/Cellar/avr-gcc/9.1.0/avr/include/util/delay.h **** /* $Id: delay.h.in 2506 2016-02-08 10:05:45Z joerg_wunsch $ */
  34:/usr/local/Cellar/avr-gcc/9.1.0/avr/include/util/delay.h **** 
  35:/usr/local/Cellar/avr-gcc/9.1.0/avr/include/util/delay.h **** #ifndef _UTIL_DELAY_H_
  36:/usr/local/Cellar/avr-gcc/9.1.0/avr/include/util/delay.h **** #define _UTIL_DELAY_H_ 1
  37:/usr/local/Cellar/avr-gcc/9.1.0/avr/include/util/delay.h **** 
  38:/usr/local/Cellar/avr-gcc/9.1.0/avr/include/util/delay.h **** #ifndef __DOXYGEN__
  39:/usr/local/Cellar/avr-gcc/9.1.0/avr/include/util/delay.h **** #  ifndef __HAS_DELAY_CYCLES
  40:/usr/local/Cellar/avr-gcc/9.1.0/avr/include/util/delay.h **** #    define __HAS_DELAY_CYCLES 1
  41:/usr/local/Cellar/avr-gcc/9.1.0/avr/include/util/delay.h **** #  endif
  42:/usr/local/Cellar/avr-gcc/9.1.0/avr/include/util/delay.h **** #endif  /* __DOXYGEN__ */
  43:/usr/local/Cellar/avr-gcc/9.1.0/avr/include/util/delay.h **** 
  44:/usr/local/Cellar/avr-gcc/9.1.0/avr/include/util/delay.h **** #include <inttypes.h>
  45:/usr/local/Cellar/avr-gcc/9.1.0/avr/include/util/delay.h **** #include <util/delay_basic.h>
  46:/usr/local/Cellar/avr-gcc/9.1.0/avr/include/util/delay.h **** #include <math.h>
  47:/usr/local/Cellar/avr-gcc/9.1.0/avr/include/util/delay.h **** 
  48:/usr/local/Cellar/avr-gcc/9.1.0/avr/include/util/delay.h **** /** \file */
  49:/usr/local/Cellar/avr-gcc/9.1.0/avr/include/util/delay.h **** /** \defgroup util_delay <util/delay.h>: Convenience functions for busy-wait delay loops
  50:/usr/local/Cellar/avr-gcc/9.1.0/avr/include/util/delay.h ****     \code
  51:/usr/local/Cellar/avr-gcc/9.1.0/avr/include/util/delay.h ****     #define F_CPU 1000000UL  // 1 MHz
  52:/usr/local/Cellar/avr-gcc/9.1.0/avr/include/util/delay.h ****     //#define F_CPU 14.7456E6
  53:/usr/local/Cellar/avr-gcc/9.1.0/avr/include/util/delay.h ****     #include <util/delay.h>
  54:/usr/local/Cellar/avr-gcc/9.1.0/avr/include/util/delay.h ****     \endcode
  55:/usr/local/Cellar/avr-gcc/9.1.0/avr/include/util/delay.h **** 
  56:/usr/local/Cellar/avr-gcc/9.1.0/avr/include/util/delay.h ****     \note As an alternative method, it is possible to pass the
  57:/usr/local/Cellar/avr-gcc/9.1.0/avr/include/util/delay.h ****     F_CPU macro down to the compiler from the Makefile.
  58:/usr/local/Cellar/avr-gcc/9.1.0/avr/include/util/delay.h ****     Obviously, in that case, no \c \#define statement should be
  59:/usr/local/Cellar/avr-gcc/9.1.0/avr/include/util/delay.h ****     used.
  60:/usr/local/Cellar/avr-gcc/9.1.0/avr/include/util/delay.h **** 
  61:/usr/local/Cellar/avr-gcc/9.1.0/avr/include/util/delay.h ****     The functions in this header file are wrappers around the basic
  62:/usr/local/Cellar/avr-gcc/9.1.0/avr/include/util/delay.h ****     busy-wait functions from <util/delay_basic.h>.  They are meant as
  63:/usr/local/Cellar/avr-gcc/9.1.0/avr/include/util/delay.h ****     convenience functions where actual time values can be specified
  64:/usr/local/Cellar/avr-gcc/9.1.0/avr/include/util/delay.h ****     rather than a number of cycles to wait for.  The idea behind is
  65:/usr/local/Cellar/avr-gcc/9.1.0/avr/include/util/delay.h ****     that compile-time constant expressions will be eliminated by
  66:/usr/local/Cellar/avr-gcc/9.1.0/avr/include/util/delay.h ****     compiler optimization so floating-point expressions can be used
  67:/usr/local/Cellar/avr-gcc/9.1.0/avr/include/util/delay.h ****     to calculate the number of delay cycles needed based on the CPU
  68:/usr/local/Cellar/avr-gcc/9.1.0/avr/include/util/delay.h ****     frequency passed by the macro F_CPU.
  69:/usr/local/Cellar/avr-gcc/9.1.0/avr/include/util/delay.h **** 
  70:/usr/local/Cellar/avr-gcc/9.1.0/avr/include/util/delay.h ****     \note In order for these functions to work as intended, compiler
  71:/usr/local/Cellar/avr-gcc/9.1.0/avr/include/util/delay.h ****     optimizations <em>must</em> be enabled, and the delay time
  72:/usr/local/Cellar/avr-gcc/9.1.0/avr/include/util/delay.h ****     <em>must</em> be an expression that is a known constant at
  73:/usr/local/Cellar/avr-gcc/9.1.0/avr/include/util/delay.h ****     compile-time.  If these requirements are not met, the resulting
  74:/usr/local/Cellar/avr-gcc/9.1.0/avr/include/util/delay.h ****     delay will be much longer (and basically unpredictable), and
  75:/usr/local/Cellar/avr-gcc/9.1.0/avr/include/util/delay.h ****     applications that otherwise do not use floating-point calculations
  76:/usr/local/Cellar/avr-gcc/9.1.0/avr/include/util/delay.h ****     will experience severe code bloat by the floating-point library
  77:/usr/local/Cellar/avr-gcc/9.1.0/avr/include/util/delay.h ****     routines linked into the application.
  78:/usr/local/Cellar/avr-gcc/9.1.0/avr/include/util/delay.h **** 
  79:/usr/local/Cellar/avr-gcc/9.1.0/avr/include/util/delay.h ****     The functions available allow the specification of microsecond, and
  80:/usr/local/Cellar/avr-gcc/9.1.0/avr/include/util/delay.h ****     millisecond delays directly, using the application-supplied macro
  81:/usr/local/Cellar/avr-gcc/9.1.0/avr/include/util/delay.h ****     F_CPU as the CPU clock frequency (in Hertz).
  82:/usr/local/Cellar/avr-gcc/9.1.0/avr/include/util/delay.h **** 
  83:/usr/local/Cellar/avr-gcc/9.1.0/avr/include/util/delay.h **** */
  84:/usr/local/Cellar/avr-gcc/9.1.0/avr/include/util/delay.h **** 
  85:/usr/local/Cellar/avr-gcc/9.1.0/avr/include/util/delay.h **** #if !defined(__DOXYGEN__)
  86:/usr/local/Cellar/avr-gcc/9.1.0/avr/include/util/delay.h **** static __inline__ void _delay_us(double __us) __attribute__((__always_inline__));
  87:/usr/local/Cellar/avr-gcc/9.1.0/avr/include/util/delay.h **** static __inline__ void _delay_ms(double __ms) __attribute__((__always_inline__));
  88:/usr/local/Cellar/avr-gcc/9.1.0/avr/include/util/delay.h **** #endif
  89:/usr/local/Cellar/avr-gcc/9.1.0/avr/include/util/delay.h **** 
  90:/usr/local/Cellar/avr-gcc/9.1.0/avr/include/util/delay.h **** #ifndef F_CPU
  91:/usr/local/Cellar/avr-gcc/9.1.0/avr/include/util/delay.h **** /* prevent compiler error by supplying a default */
  92:/usr/local/Cellar/avr-gcc/9.1.0/avr/include/util/delay.h **** # warning "F_CPU not defined for <util/delay.h>"
  93:/usr/local/Cellar/avr-gcc/9.1.0/avr/include/util/delay.h **** /** \ingroup util_delay
  94:/usr/local/Cellar/avr-gcc/9.1.0/avr/include/util/delay.h ****     \def F_CPU
  95:/usr/local/Cellar/avr-gcc/9.1.0/avr/include/util/delay.h ****     \brief CPU frequency in Hz
  96:/usr/local/Cellar/avr-gcc/9.1.0/avr/include/util/delay.h **** 
  97:/usr/local/Cellar/avr-gcc/9.1.0/avr/include/util/delay.h ****     The macro F_CPU specifies the CPU frequency to be considered by
  98:/usr/local/Cellar/avr-gcc/9.1.0/avr/include/util/delay.h ****     the delay macros.  This macro is normally supplied by the
  99:/usr/local/Cellar/avr-gcc/9.1.0/avr/include/util/delay.h ****     environment (e.g. from within a project header, or the project's
 100:/usr/local/Cellar/avr-gcc/9.1.0/avr/include/util/delay.h ****     Makefile).  The value 1 MHz here is only provided as a "vanilla"
 101:/usr/local/Cellar/avr-gcc/9.1.0/avr/include/util/delay.h ****     fallback if no such user-provided definition could be found.
 102:/usr/local/Cellar/avr-gcc/9.1.0/avr/include/util/delay.h **** 
 103:/usr/local/Cellar/avr-gcc/9.1.0/avr/include/util/delay.h ****     In terms of the delay functions, the CPU frequency can be given as
 104:/usr/local/Cellar/avr-gcc/9.1.0/avr/include/util/delay.h ****     a floating-point constant (e.g. 3.6864E6 for 3.6864 MHz).
 105:/usr/local/Cellar/avr-gcc/9.1.0/avr/include/util/delay.h ****     However, the macros in <util/setbaud.h> require it to be an
 106:/usr/local/Cellar/avr-gcc/9.1.0/avr/include/util/delay.h ****     integer value.
 107:/usr/local/Cellar/avr-gcc/9.1.0/avr/include/util/delay.h ****  */
 108:/usr/local/Cellar/avr-gcc/9.1.0/avr/include/util/delay.h **** # define F_CPU 1000000UL
 109:/usr/local/Cellar/avr-gcc/9.1.0/avr/include/util/delay.h **** #endif
 110:/usr/local/Cellar/avr-gcc/9.1.0/avr/include/util/delay.h **** 
 111:/usr/local/Cellar/avr-gcc/9.1.0/avr/include/util/delay.h **** #ifndef __OPTIMIZE__
 112:/usr/local/Cellar/avr-gcc/9.1.0/avr/include/util/delay.h **** # warning "Compiler optimizations disabled; functions from <util/delay.h> won't work as designed"
 113:/usr/local/Cellar/avr-gcc/9.1.0/avr/include/util/delay.h **** #endif
 114:/usr/local/Cellar/avr-gcc/9.1.0/avr/include/util/delay.h **** 
 115:/usr/local/Cellar/avr-gcc/9.1.0/avr/include/util/delay.h **** #if __HAS_DELAY_CYCLES && defined(__OPTIMIZE__) && \
 116:/usr/local/Cellar/avr-gcc/9.1.0/avr/include/util/delay.h ****   !defined(__DELAY_BACKWARD_COMPATIBLE__) &&	   \
 117:/usr/local/Cellar/avr-gcc/9.1.0/avr/include/util/delay.h ****   __STDC_HOSTED__
 118:/usr/local/Cellar/avr-gcc/9.1.0/avr/include/util/delay.h **** #  include <math.h>
 119:/usr/local/Cellar/avr-gcc/9.1.0/avr/include/util/delay.h **** #endif
 120:/usr/local/Cellar/avr-gcc/9.1.0/avr/include/util/delay.h **** 
 121:/usr/local/Cellar/avr-gcc/9.1.0/avr/include/util/delay.h **** /**
 122:/usr/local/Cellar/avr-gcc/9.1.0/avr/include/util/delay.h ****    \ingroup util_delay
 123:/usr/local/Cellar/avr-gcc/9.1.0/avr/include/util/delay.h **** 
 124:/usr/local/Cellar/avr-gcc/9.1.0/avr/include/util/delay.h ****    Perform a delay of \c __ms milliseconds, using _delay_loop_2().
 125:/usr/local/Cellar/avr-gcc/9.1.0/avr/include/util/delay.h **** 
 126:/usr/local/Cellar/avr-gcc/9.1.0/avr/include/util/delay.h ****    The macro F_CPU is supposed to be defined to a
 127:/usr/local/Cellar/avr-gcc/9.1.0/avr/include/util/delay.h ****    constant defining the CPU clock frequency (in Hertz).
 128:/usr/local/Cellar/avr-gcc/9.1.0/avr/include/util/delay.h **** 
 129:/usr/local/Cellar/avr-gcc/9.1.0/avr/include/util/delay.h ****    The maximal possible delay is 262.14 ms / F_CPU in MHz.
 130:/usr/local/Cellar/avr-gcc/9.1.0/avr/include/util/delay.h **** 
 131:/usr/local/Cellar/avr-gcc/9.1.0/avr/include/util/delay.h ****    When the user request delay which exceed the maximum possible one,
 132:/usr/local/Cellar/avr-gcc/9.1.0/avr/include/util/delay.h ****    _delay_ms() provides a decreased resolution functionality. In this
 133:/usr/local/Cellar/avr-gcc/9.1.0/avr/include/util/delay.h ****    mode _delay_ms() will work with a resolution of 1/10 ms, providing
 134:/usr/local/Cellar/avr-gcc/9.1.0/avr/include/util/delay.h ****    delays up to 6.5535 seconds (independent from CPU frequency).  The
 135:/usr/local/Cellar/avr-gcc/9.1.0/avr/include/util/delay.h ****    user will not be informed about decreased resolution.
 136:/usr/local/Cellar/avr-gcc/9.1.0/avr/include/util/delay.h **** 
 137:/usr/local/Cellar/avr-gcc/9.1.0/avr/include/util/delay.h ****    If the avr-gcc toolchain has __builtin_avr_delay_cycles()
 138:/usr/local/Cellar/avr-gcc/9.1.0/avr/include/util/delay.h ****    support, maximal possible delay is 4294967.295 ms/ F_CPU in MHz. For
 139:/usr/local/Cellar/avr-gcc/9.1.0/avr/include/util/delay.h ****    values greater than the maximal possible delay, overflows results in
 140:/usr/local/Cellar/avr-gcc/9.1.0/avr/include/util/delay.h ****    no delay i.e., 0ms.
 141:/usr/local/Cellar/avr-gcc/9.1.0/avr/include/util/delay.h **** 
 142:/usr/local/Cellar/avr-gcc/9.1.0/avr/include/util/delay.h ****    Conversion of \c __ms into clock cycles may not always result in
 143:/usr/local/Cellar/avr-gcc/9.1.0/avr/include/util/delay.h ****    integer.  By default, the clock cycles rounded up to next
 144:/usr/local/Cellar/avr-gcc/9.1.0/avr/include/util/delay.h ****    integer. This ensures that the user gets at least \c __ms
 145:/usr/local/Cellar/avr-gcc/9.1.0/avr/include/util/delay.h ****    microseconds of delay.
 146:/usr/local/Cellar/avr-gcc/9.1.0/avr/include/util/delay.h **** 
 147:/usr/local/Cellar/avr-gcc/9.1.0/avr/include/util/delay.h ****    Alternatively, by defining the macro \c __DELAY_ROUND_DOWN__, or
 148:/usr/local/Cellar/avr-gcc/9.1.0/avr/include/util/delay.h ****    \c __DELAY_ROUND_CLOSEST__, before including this header file, the
 149:/usr/local/Cellar/avr-gcc/9.1.0/avr/include/util/delay.h ****    algorithm can be made to round down, or round to closest integer,
 150:/usr/local/Cellar/avr-gcc/9.1.0/avr/include/util/delay.h ****    respectively.
 151:/usr/local/Cellar/avr-gcc/9.1.0/avr/include/util/delay.h **** 
 152:/usr/local/Cellar/avr-gcc/9.1.0/avr/include/util/delay.h ****    \note
 153:/usr/local/Cellar/avr-gcc/9.1.0/avr/include/util/delay.h **** 
 154:/usr/local/Cellar/avr-gcc/9.1.0/avr/include/util/delay.h ****    The implementation of _delay_ms() based on
 155:/usr/local/Cellar/avr-gcc/9.1.0/avr/include/util/delay.h ****    __builtin_avr_delay_cycles() is not backward compatible with older
 156:/usr/local/Cellar/avr-gcc/9.1.0/avr/include/util/delay.h ****    implementations.  In order to get functionality backward compatible
 157:/usr/local/Cellar/avr-gcc/9.1.0/avr/include/util/delay.h ****    with previous versions, the macro \c "__DELAY_BACKWARD_COMPATIBLE__"
 158:/usr/local/Cellar/avr-gcc/9.1.0/avr/include/util/delay.h ****    must be defined before including this header file. Also, the
 159:/usr/local/Cellar/avr-gcc/9.1.0/avr/include/util/delay.h ****    backward compatible algorithm will be chosen if the code is
 160:/usr/local/Cellar/avr-gcc/9.1.0/avr/include/util/delay.h ****    compiled in a <em>freestanding environment</em> (GCC option
 161:/usr/local/Cellar/avr-gcc/9.1.0/avr/include/util/delay.h ****    \c -ffreestanding), as the math functions required for rounding are
 162:/usr/local/Cellar/avr-gcc/9.1.0/avr/include/util/delay.h ****    not available to the compiler then.
 163:/usr/local/Cellar/avr-gcc/9.1.0/avr/include/util/delay.h **** 
 164:/usr/local/Cellar/avr-gcc/9.1.0/avr/include/util/delay.h ****  */
 165:/usr/local/Cellar/avr-gcc/9.1.0/avr/include/util/delay.h **** void
 166:/usr/local/Cellar/avr-gcc/9.1.0/avr/include/util/delay.h **** _delay_ms(double __ms)
 167:/usr/local/Cellar/avr-gcc/9.1.0/avr/include/util/delay.h **** {
 168:/usr/local/Cellar/avr-gcc/9.1.0/avr/include/util/delay.h **** 	double __tmp ;
 169:/usr/local/Cellar/avr-gcc/9.1.0/avr/include/util/delay.h **** #if __HAS_DELAY_CYCLES && defined(__OPTIMIZE__) && \
 170:/usr/local/Cellar/avr-gcc/9.1.0/avr/include/util/delay.h ****   !defined(__DELAY_BACKWARD_COMPATIBLE__) &&	   \
 171:/usr/local/Cellar/avr-gcc/9.1.0/avr/include/util/delay.h ****   __STDC_HOSTED__
 172:/usr/local/Cellar/avr-gcc/9.1.0/avr/include/util/delay.h **** 	uint32_t __ticks_dc;
 173:/usr/local/Cellar/avr-gcc/9.1.0/avr/include/util/delay.h **** 	extern void __builtin_avr_delay_cycles(unsigned long);
 174:/usr/local/Cellar/avr-gcc/9.1.0/avr/include/util/delay.h **** 	__tmp = ((F_CPU) / 1e3) * __ms;
 175:/usr/local/Cellar/avr-gcc/9.1.0/avr/include/util/delay.h **** 
 176:/usr/local/Cellar/avr-gcc/9.1.0/avr/include/util/delay.h **** 	#if defined(__DELAY_ROUND_DOWN__)
 177:/usr/local/Cellar/avr-gcc/9.1.0/avr/include/util/delay.h **** 		__ticks_dc = (uint32_t)fabs(__tmp);
 178:/usr/local/Cellar/avr-gcc/9.1.0/avr/include/util/delay.h **** 
 179:/usr/local/Cellar/avr-gcc/9.1.0/avr/include/util/delay.h **** 	#elif defined(__DELAY_ROUND_CLOSEST__)
 180:/usr/local/Cellar/avr-gcc/9.1.0/avr/include/util/delay.h **** 		__ticks_dc = (uint32_t)(fabs(__tmp)+0.5);
 181:/usr/local/Cellar/avr-gcc/9.1.0/avr/include/util/delay.h **** 
 182:/usr/local/Cellar/avr-gcc/9.1.0/avr/include/util/delay.h **** 	#else
 183:/usr/local/Cellar/avr-gcc/9.1.0/avr/include/util/delay.h **** 		//round up by default
 184:/usr/local/Cellar/avr-gcc/9.1.0/avr/include/util/delay.h **** 		__ticks_dc = (uint32_t)(ceil(fabs(__tmp)));
 185:/usr/local/Cellar/avr-gcc/9.1.0/avr/include/util/delay.h **** 	#endif
 186:/usr/local/Cellar/avr-gcc/9.1.0/avr/include/util/delay.h **** 
 187:/usr/local/Cellar/avr-gcc/9.1.0/avr/include/util/delay.h **** 	__builtin_avr_delay_cycles(__ticks_dc);
 188:/usr/local/Cellar/avr-gcc/9.1.0/avr/include/util/delay.h **** 
 189:/usr/local/Cellar/avr-gcc/9.1.0/avr/include/util/delay.h **** #else
 190:/usr/local/Cellar/avr-gcc/9.1.0/avr/include/util/delay.h **** 	uint16_t __ticks;
 191:/usr/local/Cellar/avr-gcc/9.1.0/avr/include/util/delay.h **** 	__tmp = ((F_CPU) / 4e3) * __ms;
 192:/usr/local/Cellar/avr-gcc/9.1.0/avr/include/util/delay.h **** 	if (__tmp < 1.0)
 193:/usr/local/Cellar/avr-gcc/9.1.0/avr/include/util/delay.h **** 		__ticks = 1;
 194:/usr/local/Cellar/avr-gcc/9.1.0/avr/include/util/delay.h **** 	else if (__tmp > 65535)
 195:/usr/local/Cellar/avr-gcc/9.1.0/avr/include/util/delay.h **** 	{
 196:/usr/local/Cellar/avr-gcc/9.1.0/avr/include/util/delay.h **** 		//	__ticks = requested delay in 1/10 ms
 197:/usr/local/Cellar/avr-gcc/9.1.0/avr/include/util/delay.h **** 		__ticks = (uint16_t) (__ms * 10.0);
 198:/usr/local/Cellar/avr-gcc/9.1.0/avr/include/util/delay.h **** 		while(__ticks)
 199:/usr/local/Cellar/avr-gcc/9.1.0/avr/include/util/delay.h **** 		{
 200:/usr/local/Cellar/avr-gcc/9.1.0/avr/include/util/delay.h **** 			// wait 1/10 ms
 201:/usr/local/Cellar/avr-gcc/9.1.0/avr/include/util/delay.h **** 			_delay_loop_2(((F_CPU) / 4e3) / 10);
 202:/usr/local/Cellar/avr-gcc/9.1.0/avr/include/util/delay.h **** 			__ticks --;
 203:/usr/local/Cellar/avr-gcc/9.1.0/avr/include/util/delay.h **** 		}
 204:/usr/local/Cellar/avr-gcc/9.1.0/avr/include/util/delay.h **** 		return;
 205:/usr/local/Cellar/avr-gcc/9.1.0/avr/include/util/delay.h **** 	}
 206:/usr/local/Cellar/avr-gcc/9.1.0/avr/include/util/delay.h **** 	else
 207:/usr/local/Cellar/avr-gcc/9.1.0/avr/include/util/delay.h **** 		__ticks = (uint16_t)__tmp;
 208:/usr/local/Cellar/avr-gcc/9.1.0/avr/include/util/delay.h **** 	_delay_loop_2(__ticks);
 209:/usr/local/Cellar/avr-gcc/9.1.0/avr/include/util/delay.h **** #endif
 210:/usr/local/Cellar/avr-gcc/9.1.0/avr/include/util/delay.h **** }
 211:/usr/local/Cellar/avr-gcc/9.1.0/avr/include/util/delay.h **** 
 212:/usr/local/Cellar/avr-gcc/9.1.0/avr/include/util/delay.h **** /**
 213:/usr/local/Cellar/avr-gcc/9.1.0/avr/include/util/delay.h ****    \ingroup util_delay
 214:/usr/local/Cellar/avr-gcc/9.1.0/avr/include/util/delay.h **** 
 215:/usr/local/Cellar/avr-gcc/9.1.0/avr/include/util/delay.h ****    Perform a delay of \c __us microseconds, using _delay_loop_1().
 216:/usr/local/Cellar/avr-gcc/9.1.0/avr/include/util/delay.h **** 
 217:/usr/local/Cellar/avr-gcc/9.1.0/avr/include/util/delay.h ****    The macro F_CPU is supposed to be defined to a
 218:/usr/local/Cellar/avr-gcc/9.1.0/avr/include/util/delay.h ****    constant defining the CPU clock frequency (in Hertz).
 219:/usr/local/Cellar/avr-gcc/9.1.0/avr/include/util/delay.h **** 
 220:/usr/local/Cellar/avr-gcc/9.1.0/avr/include/util/delay.h ****    The maximal possible delay is 768 us / F_CPU in MHz.
 221:/usr/local/Cellar/avr-gcc/9.1.0/avr/include/util/delay.h **** 
 222:/usr/local/Cellar/avr-gcc/9.1.0/avr/include/util/delay.h ****    If the user requests a delay greater than the maximal possible one,
 223:/usr/local/Cellar/avr-gcc/9.1.0/avr/include/util/delay.h ****    _delay_us() will automatically call _delay_ms() instead.  The user
 224:/usr/local/Cellar/avr-gcc/9.1.0/avr/include/util/delay.h ****    will not be informed about this case.
 225:/usr/local/Cellar/avr-gcc/9.1.0/avr/include/util/delay.h **** 
 226:/usr/local/Cellar/avr-gcc/9.1.0/avr/include/util/delay.h ****    If the avr-gcc toolchain has __builtin_avr_delay_cycles()
 227:/usr/local/Cellar/avr-gcc/9.1.0/avr/include/util/delay.h ****    support, maximal possible delay is 4294967.295 us/ F_CPU in MHz. For
 228:/usr/local/Cellar/avr-gcc/9.1.0/avr/include/util/delay.h ****    values greater than the maximal possible delay, overflow results in
 229:/usr/local/Cellar/avr-gcc/9.1.0/avr/include/util/delay.h ****    no delay i.e., 0us.
 230:/usr/local/Cellar/avr-gcc/9.1.0/avr/include/util/delay.h **** 
 231:/usr/local/Cellar/avr-gcc/9.1.0/avr/include/util/delay.h ****    Conversion of \c __us into clock cycles may not always result in
 232:/usr/local/Cellar/avr-gcc/9.1.0/avr/include/util/delay.h ****    integer.  By default, the clock cycles rounded up to next
 233:/usr/local/Cellar/avr-gcc/9.1.0/avr/include/util/delay.h ****    integer. This ensures that the user gets at least \c __us
 234:/usr/local/Cellar/avr-gcc/9.1.0/avr/include/util/delay.h ****    microseconds of delay.
 235:/usr/local/Cellar/avr-gcc/9.1.0/avr/include/util/delay.h **** 
 236:/usr/local/Cellar/avr-gcc/9.1.0/avr/include/util/delay.h ****    Alternatively, by defining the macro \c __DELAY_ROUND_DOWN__, or
 237:/usr/local/Cellar/avr-gcc/9.1.0/avr/include/util/delay.h ****    \c __DELAY_ROUND_CLOSEST__, before including this header file, the
 238:/usr/local/Cellar/avr-gcc/9.1.0/avr/include/util/delay.h ****    algorithm can be made to round down, or round to closest integer,
 239:/usr/local/Cellar/avr-gcc/9.1.0/avr/include/util/delay.h ****    respectively.
 240:/usr/local/Cellar/avr-gcc/9.1.0/avr/include/util/delay.h **** 
 241:/usr/local/Cellar/avr-gcc/9.1.0/avr/include/util/delay.h ****    \note
 242:/usr/local/Cellar/avr-gcc/9.1.0/avr/include/util/delay.h **** 
 243:/usr/local/Cellar/avr-gcc/9.1.0/avr/include/util/delay.h ****    The implementation of _delay_ms() based on
 244:/usr/local/Cellar/avr-gcc/9.1.0/avr/include/util/delay.h ****    __builtin_avr_delay_cycles() is not backward compatible with older
 245:/usr/local/Cellar/avr-gcc/9.1.0/avr/include/util/delay.h ****    implementations.  In order to get functionality backward compatible
 246:/usr/local/Cellar/avr-gcc/9.1.0/avr/include/util/delay.h ****    with previous versions, the macro \c __DELAY_BACKWARD_COMPATIBLE__
 247:/usr/local/Cellar/avr-gcc/9.1.0/avr/include/util/delay.h ****    must be defined before including this header file. Also, the
 248:/usr/local/Cellar/avr-gcc/9.1.0/avr/include/util/delay.h ****    backward compatible algorithm will be chosen if the code is
 249:/usr/local/Cellar/avr-gcc/9.1.0/avr/include/util/delay.h ****    compiled in a <em>freestanding environment</em> (GCC option
 250:/usr/local/Cellar/avr-gcc/9.1.0/avr/include/util/delay.h ****    \c -ffreestanding), as the math functions required for rounding are
 251:/usr/local/Cellar/avr-gcc/9.1.0/avr/include/util/delay.h ****    not available to the compiler then.
 252:/usr/local/Cellar/avr-gcc/9.1.0/avr/include/util/delay.h **** 
 253:/usr/local/Cellar/avr-gcc/9.1.0/avr/include/util/delay.h ****  */
 254:/usr/local/Cellar/avr-gcc/9.1.0/avr/include/util/delay.h **** void
 255:/usr/local/Cellar/avr-gcc/9.1.0/avr/include/util/delay.h **** _delay_us(double __us)
 109               		.loc 3 255 1 view .LVU23
 110               	.LBB252:
 256:/usr/local/Cellar/avr-gcc/9.1.0/avr/include/util/delay.h **** {
 257:/usr/local/Cellar/avr-gcc/9.1.0/avr/include/util/delay.h **** 	double __tmp ;
 111               		.loc 3 257 2 view .LVU24
 258:/usr/local/Cellar/avr-gcc/9.1.0/avr/include/util/delay.h **** #if __HAS_DELAY_CYCLES && defined(__OPTIMIZE__) && \
 259:/usr/local/Cellar/avr-gcc/9.1.0/avr/include/util/delay.h ****   !defined(__DELAY_BACKWARD_COMPATIBLE__) &&	   \
 260:/usr/local/Cellar/avr-gcc/9.1.0/avr/include/util/delay.h ****   __STDC_HOSTED__
 261:/usr/local/Cellar/avr-gcc/9.1.0/avr/include/util/delay.h **** 	uint32_t __ticks_dc;
 112               		.loc 3 261 2 view .LVU25
 262:/usr/local/Cellar/avr-gcc/9.1.0/avr/include/util/delay.h **** 	extern void __builtin_avr_delay_cycles(unsigned long);
 113               		.loc 3 262 2 view .LVU26
 263:/usr/local/Cellar/avr-gcc/9.1.0/avr/include/util/delay.h **** 	__tmp = ((F_CPU) / 1e6) * __us;
 114               		.loc 3 263 2 view .LVU27
 264:/usr/local/Cellar/avr-gcc/9.1.0/avr/include/util/delay.h **** 
 265:/usr/local/Cellar/avr-gcc/9.1.0/avr/include/util/delay.h **** 	#if defined(__DELAY_ROUND_DOWN__)
 266:/usr/local/Cellar/avr-gcc/9.1.0/avr/include/util/delay.h **** 		__ticks_dc = (uint32_t)fabs(__tmp);
 267:/usr/local/Cellar/avr-gcc/9.1.0/avr/include/util/delay.h **** 
 268:/usr/local/Cellar/avr-gcc/9.1.0/avr/include/util/delay.h **** 	#elif defined(__DELAY_ROUND_CLOSEST__)
 269:/usr/local/Cellar/avr-gcc/9.1.0/avr/include/util/delay.h **** 		__ticks_dc = (uint32_t)(fabs(__tmp)+0.5);
 270:/usr/local/Cellar/avr-gcc/9.1.0/avr/include/util/delay.h **** 
 271:/usr/local/Cellar/avr-gcc/9.1.0/avr/include/util/delay.h **** 	#else
 272:/usr/local/Cellar/avr-gcc/9.1.0/avr/include/util/delay.h **** 		//round up by default
 273:/usr/local/Cellar/avr-gcc/9.1.0/avr/include/util/delay.h **** 		__ticks_dc = (uint32_t)(ceil(fabs(__tmp)));
 115               		.loc 3 273 3 view .LVU28
 274:/usr/local/Cellar/avr-gcc/9.1.0/avr/include/util/delay.h **** 	#endif
 275:/usr/local/Cellar/avr-gcc/9.1.0/avr/include/util/delay.h **** 
 276:/usr/local/Cellar/avr-gcc/9.1.0/avr/include/util/delay.h **** 	__builtin_avr_delay_cycles(__ticks_dc);
 116               		.loc 3 276 2 view .LVU29
 117 002c 95ED      		ldi r25,lo8(-43)
 118 002e 9A95      	1:	dec r25
 119 0030 01F4      		brne 1b
 120 0032 0000      		nop
 121               	.LVL7:
 122               		.loc 3 276 2 is_stmt 0 view .LVU30
 123               	.LBE252:
 124               	.LBE251:
 125               		.loc 1 574 11 view .LVU31
 126 0034 8111      		cpse r24,__zero_reg__
 127 0036 00C0      		rjmp .L4
 128               	.LVL8:
 129               	.L5:
 575:../../tmk_core/protocol/lufa/lufa.c ****     if (!Endpoint_IsReadWriteAllowed()) return;
 130               		.loc 1 575 5 is_stmt 1 view .LVU32
 131               	.LBB253:
 132               	.LBI253:
 358:../../tmk_core/protocol/lufa/LUFA-git/LUFA/Drivers/USB/Core/AVR8/../AVR8/Endpoint_AVR8.h **** 			{
 133               		.loc 2 358 23 view .LVU33
 134               	.LBB254:
 135               		.loc 2 360 5 view .LVU34
 136               		.loc 2 360 14 is_stmt 0 view .LVU35
 137 0038 8091 E800 		lds r24,232
 138               	.LBE254:
 139               	.LBE253:
 140               		.loc 1 575 8 view .LVU36
 141 003c 85FF      		sbrs r24,5
 142 003e 00C0      		rjmp .L2
 576:../../tmk_core/protocol/lufa/lufa.c **** 
 577:../../tmk_core/protocol/lufa/lufa.c ****     Endpoint_Write_Stream_LE(&r, sizeof(report_extra_t), NULL);
 143               		.loc 1 577 5 is_stmt 1 view .LVU37
 144 0040 50E0      		ldi r21,0
 145 0042 40E0      		ldi r20,0
 146 0044 63E0      		ldi r22,lo8(3)
 147 0046 70E0      		ldi r23,0
 148 0048 CE01      		movw r24,r28
 149 004a 0196      		adiw r24,1
 150 004c 0E94 0000 		call Endpoint_Write_Stream_LE
 151               	.LVL9:
 578:../../tmk_core/protocol/lufa/lufa.c ****     Endpoint_ClearIN();
 152               		.loc 1 578 5 view .LVU38
 153               	.LBB255:
 154               	.LBI255:
 361:../../tmk_core/protocol/lufa/LUFA-git/LUFA/Drivers/USB/Core/AVR8/../AVR8/Endpoint_AVR8.h **** 			}
 362:../../tmk_core/protocol/lufa/LUFA-git/LUFA/Drivers/USB/Core/AVR8/../AVR8/Endpoint_AVR8.h **** 
 363:../../tmk_core/protocol/lufa/LUFA-git/LUFA/Drivers/USB/Core/AVR8/../AVR8/Endpoint_AVR8.h **** 			/** Determines if the currently selected endpoint is configured.
 364:../../tmk_core/protocol/lufa/LUFA-git/LUFA/Drivers/USB/Core/AVR8/../AVR8/Endpoint_AVR8.h **** 			 *
 365:../../tmk_core/protocol/lufa/LUFA-git/LUFA/Drivers/USB/Core/AVR8/../AVR8/Endpoint_AVR8.h **** 			 *  \return Boolean \c true if the currently selected endpoint has been configured, \c false oth
 366:../../tmk_core/protocol/lufa/LUFA-git/LUFA/Drivers/USB/Core/AVR8/../AVR8/Endpoint_AVR8.h **** 			 */
 367:../../tmk_core/protocol/lufa/LUFA-git/LUFA/Drivers/USB/Core/AVR8/../AVR8/Endpoint_AVR8.h **** 			static inline bool Endpoint_IsConfigured(void) ATTR_WARN_UNUSED_RESULT ATTR_ALWAYS_INLINE;
 368:../../tmk_core/protocol/lufa/LUFA-git/LUFA/Drivers/USB/Core/AVR8/../AVR8/Endpoint_AVR8.h **** 			static inline bool Endpoint_IsConfigured(void)
 369:../../tmk_core/protocol/lufa/LUFA-git/LUFA/Drivers/USB/Core/AVR8/../AVR8/Endpoint_AVR8.h **** 			{
 370:../../tmk_core/protocol/lufa/LUFA-git/LUFA/Drivers/USB/Core/AVR8/../AVR8/Endpoint_AVR8.h **** 				return ((UESTA0X & (1 << CFGOK)) ? true : false);
 371:../../tmk_core/protocol/lufa/LUFA-git/LUFA/Drivers/USB/Core/AVR8/../AVR8/Endpoint_AVR8.h **** 			}
 372:../../tmk_core/protocol/lufa/LUFA-git/LUFA/Drivers/USB/Core/AVR8/../AVR8/Endpoint_AVR8.h **** 
 373:../../tmk_core/protocol/lufa/LUFA-git/LUFA/Drivers/USB/Core/AVR8/../AVR8/Endpoint_AVR8.h **** 			/** Returns a mask indicating which INTERRUPT type endpoints have interrupted - i.e. their
 374:../../tmk_core/protocol/lufa/LUFA-git/LUFA/Drivers/USB/Core/AVR8/../AVR8/Endpoint_AVR8.h **** 			 *  interrupt duration has elapsed. Which endpoints have interrupted can be determined by
 375:../../tmk_core/protocol/lufa/LUFA-git/LUFA/Drivers/USB/Core/AVR8/../AVR8/Endpoint_AVR8.h **** 			 *  masking the return value against <tt>(1 << <i>{Endpoint Number}</i>)</tt>.
 376:../../tmk_core/protocol/lufa/LUFA-git/LUFA/Drivers/USB/Core/AVR8/../AVR8/Endpoint_AVR8.h **** 			 *
 377:../../tmk_core/protocol/lufa/LUFA-git/LUFA/Drivers/USB/Core/AVR8/../AVR8/Endpoint_AVR8.h **** 			 *  \return Mask whose bits indicate which endpoints have interrupted.
 378:../../tmk_core/protocol/lufa/LUFA-git/LUFA/Drivers/USB/Core/AVR8/../AVR8/Endpoint_AVR8.h **** 			 */
 379:../../tmk_core/protocol/lufa/LUFA-git/LUFA/Drivers/USB/Core/AVR8/../AVR8/Endpoint_AVR8.h **** 			static inline uint8_t Endpoint_GetEndpointInterrupts(void) ATTR_WARN_UNUSED_RESULT ATTR_ALWAYS_I
 380:../../tmk_core/protocol/lufa/LUFA-git/LUFA/Drivers/USB/Core/AVR8/../AVR8/Endpoint_AVR8.h **** 			static inline uint8_t Endpoint_GetEndpointInterrupts(void)
 381:../../tmk_core/protocol/lufa/LUFA-git/LUFA/Drivers/USB/Core/AVR8/../AVR8/Endpoint_AVR8.h **** 			{
 382:../../tmk_core/protocol/lufa/LUFA-git/LUFA/Drivers/USB/Core/AVR8/../AVR8/Endpoint_AVR8.h **** 				return UEINT;
 383:../../tmk_core/protocol/lufa/LUFA-git/LUFA/Drivers/USB/Core/AVR8/../AVR8/Endpoint_AVR8.h **** 			}
 384:../../tmk_core/protocol/lufa/LUFA-git/LUFA/Drivers/USB/Core/AVR8/../AVR8/Endpoint_AVR8.h **** 
 385:../../tmk_core/protocol/lufa/LUFA-git/LUFA/Drivers/USB/Core/AVR8/../AVR8/Endpoint_AVR8.h **** 			/** Determines if the specified endpoint number has interrupted (valid only for INTERRUPT type
 386:../../tmk_core/protocol/lufa/LUFA-git/LUFA/Drivers/USB/Core/AVR8/../AVR8/Endpoint_AVR8.h **** 			 *  endpoints).
 387:../../tmk_core/protocol/lufa/LUFA-git/LUFA/Drivers/USB/Core/AVR8/../AVR8/Endpoint_AVR8.h **** 			 *
 388:../../tmk_core/protocol/lufa/LUFA-git/LUFA/Drivers/USB/Core/AVR8/../AVR8/Endpoint_AVR8.h **** 			 *  \param[in] Address  Address of the endpoint whose interrupt flag should be tested.
 389:../../tmk_core/protocol/lufa/LUFA-git/LUFA/Drivers/USB/Core/AVR8/../AVR8/Endpoint_AVR8.h **** 			 *
 390:../../tmk_core/protocol/lufa/LUFA-git/LUFA/Drivers/USB/Core/AVR8/../AVR8/Endpoint_AVR8.h **** 			 *  \return Boolean \c true if the specified endpoint has interrupted, \c false otherwise.
 391:../../tmk_core/protocol/lufa/LUFA-git/LUFA/Drivers/USB/Core/AVR8/../AVR8/Endpoint_AVR8.h **** 			 */
 392:../../tmk_core/protocol/lufa/LUFA-git/LUFA/Drivers/USB/Core/AVR8/../AVR8/Endpoint_AVR8.h **** 			static inline bool Endpoint_HasEndpointInterrupted(const uint8_t Address) ATTR_WARN_UNUSED_RESUL
 393:../../tmk_core/protocol/lufa/LUFA-git/LUFA/Drivers/USB/Core/AVR8/../AVR8/Endpoint_AVR8.h **** 			static inline bool Endpoint_HasEndpointInterrupted(const uint8_t Address)
 394:../../tmk_core/protocol/lufa/LUFA-git/LUFA/Drivers/USB/Core/AVR8/../AVR8/Endpoint_AVR8.h **** 			{
 395:../../tmk_core/protocol/lufa/LUFA-git/LUFA/Drivers/USB/Core/AVR8/../AVR8/Endpoint_AVR8.h **** 				return ((Endpoint_GetEndpointInterrupts() & (1 << (Address & ENDPOINT_EPNUM_MASK))) ? true : fa
 396:../../tmk_core/protocol/lufa/LUFA-git/LUFA/Drivers/USB/Core/AVR8/../AVR8/Endpoint_AVR8.h **** 			}
 397:../../tmk_core/protocol/lufa/LUFA-git/LUFA/Drivers/USB/Core/AVR8/../AVR8/Endpoint_AVR8.h **** 
 398:../../tmk_core/protocol/lufa/LUFA-git/LUFA/Drivers/USB/Core/AVR8/../AVR8/Endpoint_AVR8.h **** 			/** Determines if the selected IN endpoint is ready for a new packet to be sent to the host.
 399:../../tmk_core/protocol/lufa/LUFA-git/LUFA/Drivers/USB/Core/AVR8/../AVR8/Endpoint_AVR8.h **** 			 *
 400:../../tmk_core/protocol/lufa/LUFA-git/LUFA/Drivers/USB/Core/AVR8/../AVR8/Endpoint_AVR8.h **** 			 *  \ingroup Group_EndpointPacketManagement_AVR8
 401:../../tmk_core/protocol/lufa/LUFA-git/LUFA/Drivers/USB/Core/AVR8/../AVR8/Endpoint_AVR8.h **** 			 *
 402:../../tmk_core/protocol/lufa/LUFA-git/LUFA/Drivers/USB/Core/AVR8/../AVR8/Endpoint_AVR8.h **** 			 *  \return Boolean \c true if the current endpoint is ready for an IN packet, \c false otherwis
 403:../../tmk_core/protocol/lufa/LUFA-git/LUFA/Drivers/USB/Core/AVR8/../AVR8/Endpoint_AVR8.h **** 			 */
 404:../../tmk_core/protocol/lufa/LUFA-git/LUFA/Drivers/USB/Core/AVR8/../AVR8/Endpoint_AVR8.h **** 			static inline bool Endpoint_IsINReady(void) ATTR_WARN_UNUSED_RESULT ATTR_ALWAYS_INLINE;
 405:../../tmk_core/protocol/lufa/LUFA-git/LUFA/Drivers/USB/Core/AVR8/../AVR8/Endpoint_AVR8.h **** 			static inline bool Endpoint_IsINReady(void)
 406:../../tmk_core/protocol/lufa/LUFA-git/LUFA/Drivers/USB/Core/AVR8/../AVR8/Endpoint_AVR8.h **** 			{
 407:../../tmk_core/protocol/lufa/LUFA-git/LUFA/Drivers/USB/Core/AVR8/../AVR8/Endpoint_AVR8.h **** 				return ((UEINTX & (1 << TXINI)) ? true : false);
 408:../../tmk_core/protocol/lufa/LUFA-git/LUFA/Drivers/USB/Core/AVR8/../AVR8/Endpoint_AVR8.h **** 			}
 409:../../tmk_core/protocol/lufa/LUFA-git/LUFA/Drivers/USB/Core/AVR8/../AVR8/Endpoint_AVR8.h **** 
 410:../../tmk_core/protocol/lufa/LUFA-git/LUFA/Drivers/USB/Core/AVR8/../AVR8/Endpoint_AVR8.h **** 			/** Determines if the selected OUT endpoint has received new packet from the host.
 411:../../tmk_core/protocol/lufa/LUFA-git/LUFA/Drivers/USB/Core/AVR8/../AVR8/Endpoint_AVR8.h **** 			 *
 412:../../tmk_core/protocol/lufa/LUFA-git/LUFA/Drivers/USB/Core/AVR8/../AVR8/Endpoint_AVR8.h **** 			 *  \ingroup Group_EndpointPacketManagement_AVR8
 413:../../tmk_core/protocol/lufa/LUFA-git/LUFA/Drivers/USB/Core/AVR8/../AVR8/Endpoint_AVR8.h **** 			 *
 414:../../tmk_core/protocol/lufa/LUFA-git/LUFA/Drivers/USB/Core/AVR8/../AVR8/Endpoint_AVR8.h **** 			 *  \return Boolean \c true if current endpoint is has received an OUT packet, \c false otherwis
 415:../../tmk_core/protocol/lufa/LUFA-git/LUFA/Drivers/USB/Core/AVR8/../AVR8/Endpoint_AVR8.h **** 			 */
 416:../../tmk_core/protocol/lufa/LUFA-git/LUFA/Drivers/USB/Core/AVR8/../AVR8/Endpoint_AVR8.h **** 			static inline bool Endpoint_IsOUTReceived(void) ATTR_WARN_UNUSED_RESULT ATTR_ALWAYS_INLINE;
 417:../../tmk_core/protocol/lufa/LUFA-git/LUFA/Drivers/USB/Core/AVR8/../AVR8/Endpoint_AVR8.h **** 			static inline bool Endpoint_IsOUTReceived(void)
 418:../../tmk_core/protocol/lufa/LUFA-git/LUFA/Drivers/USB/Core/AVR8/../AVR8/Endpoint_AVR8.h **** 			{
 419:../../tmk_core/protocol/lufa/LUFA-git/LUFA/Drivers/USB/Core/AVR8/../AVR8/Endpoint_AVR8.h **** 				return ((UEINTX & (1 << RXOUTI)) ? true : false);
 420:../../tmk_core/protocol/lufa/LUFA-git/LUFA/Drivers/USB/Core/AVR8/../AVR8/Endpoint_AVR8.h **** 			}
 421:../../tmk_core/protocol/lufa/LUFA-git/LUFA/Drivers/USB/Core/AVR8/../AVR8/Endpoint_AVR8.h **** 
 422:../../tmk_core/protocol/lufa/LUFA-git/LUFA/Drivers/USB/Core/AVR8/../AVR8/Endpoint_AVR8.h **** 			/** Determines if the current CONTROL type endpoint has received a SETUP packet.
 423:../../tmk_core/protocol/lufa/LUFA-git/LUFA/Drivers/USB/Core/AVR8/../AVR8/Endpoint_AVR8.h **** 			 *
 424:../../tmk_core/protocol/lufa/LUFA-git/LUFA/Drivers/USB/Core/AVR8/../AVR8/Endpoint_AVR8.h **** 			 *  \ingroup Group_EndpointPacketManagement_AVR8
 425:../../tmk_core/protocol/lufa/LUFA-git/LUFA/Drivers/USB/Core/AVR8/../AVR8/Endpoint_AVR8.h **** 			 *
 426:../../tmk_core/protocol/lufa/LUFA-git/LUFA/Drivers/USB/Core/AVR8/../AVR8/Endpoint_AVR8.h **** 			 *  \return Boolean \c true if the selected endpoint has received a SETUP packet, \c false other
 427:../../tmk_core/protocol/lufa/LUFA-git/LUFA/Drivers/USB/Core/AVR8/../AVR8/Endpoint_AVR8.h **** 			 */
 428:../../tmk_core/protocol/lufa/LUFA-git/LUFA/Drivers/USB/Core/AVR8/../AVR8/Endpoint_AVR8.h **** 			static inline bool Endpoint_IsSETUPReceived(void) ATTR_WARN_UNUSED_RESULT ATTR_ALWAYS_INLINE;
 429:../../tmk_core/protocol/lufa/LUFA-git/LUFA/Drivers/USB/Core/AVR8/../AVR8/Endpoint_AVR8.h **** 			static inline bool Endpoint_IsSETUPReceived(void)
 430:../../tmk_core/protocol/lufa/LUFA-git/LUFA/Drivers/USB/Core/AVR8/../AVR8/Endpoint_AVR8.h **** 			{
 431:../../tmk_core/protocol/lufa/LUFA-git/LUFA/Drivers/USB/Core/AVR8/../AVR8/Endpoint_AVR8.h **** 				return ((UEINTX & (1 << RXSTPI)) ? true : false);
 432:../../tmk_core/protocol/lufa/LUFA-git/LUFA/Drivers/USB/Core/AVR8/../AVR8/Endpoint_AVR8.h **** 			}
 433:../../tmk_core/protocol/lufa/LUFA-git/LUFA/Drivers/USB/Core/AVR8/../AVR8/Endpoint_AVR8.h **** 
 434:../../tmk_core/protocol/lufa/LUFA-git/LUFA/Drivers/USB/Core/AVR8/../AVR8/Endpoint_AVR8.h **** 			/** Clears a received SETUP packet on the currently selected CONTROL type endpoint, freeing up t
 435:../../tmk_core/protocol/lufa/LUFA-git/LUFA/Drivers/USB/Core/AVR8/../AVR8/Endpoint_AVR8.h **** 			 *  endpoint for the next packet.
 436:../../tmk_core/protocol/lufa/LUFA-git/LUFA/Drivers/USB/Core/AVR8/../AVR8/Endpoint_AVR8.h **** 			 *
 437:../../tmk_core/protocol/lufa/LUFA-git/LUFA/Drivers/USB/Core/AVR8/../AVR8/Endpoint_AVR8.h **** 			 *  \ingroup Group_EndpointPacketManagement_AVR8
 438:../../tmk_core/protocol/lufa/LUFA-git/LUFA/Drivers/USB/Core/AVR8/../AVR8/Endpoint_AVR8.h **** 			 *
 439:../../tmk_core/protocol/lufa/LUFA-git/LUFA/Drivers/USB/Core/AVR8/../AVR8/Endpoint_AVR8.h **** 			 *  \note This is not applicable for non CONTROL type endpoints.
 440:../../tmk_core/protocol/lufa/LUFA-git/LUFA/Drivers/USB/Core/AVR8/../AVR8/Endpoint_AVR8.h **** 			 */
 441:../../tmk_core/protocol/lufa/LUFA-git/LUFA/Drivers/USB/Core/AVR8/../AVR8/Endpoint_AVR8.h **** 			static inline void Endpoint_ClearSETUP(void) ATTR_ALWAYS_INLINE;
 442:../../tmk_core/protocol/lufa/LUFA-git/LUFA/Drivers/USB/Core/AVR8/../AVR8/Endpoint_AVR8.h **** 			static inline void Endpoint_ClearSETUP(void)
 443:../../tmk_core/protocol/lufa/LUFA-git/LUFA/Drivers/USB/Core/AVR8/../AVR8/Endpoint_AVR8.h **** 			{
 444:../../tmk_core/protocol/lufa/LUFA-git/LUFA/Drivers/USB/Core/AVR8/../AVR8/Endpoint_AVR8.h **** 				UEINTX &= ~(1 << RXSTPI);
 445:../../tmk_core/protocol/lufa/LUFA-git/LUFA/Drivers/USB/Core/AVR8/../AVR8/Endpoint_AVR8.h **** 			}
 446:../../tmk_core/protocol/lufa/LUFA-git/LUFA/Drivers/USB/Core/AVR8/../AVR8/Endpoint_AVR8.h **** 
 447:../../tmk_core/protocol/lufa/LUFA-git/LUFA/Drivers/USB/Core/AVR8/../AVR8/Endpoint_AVR8.h **** 			/** Sends an IN packet to the host on the currently selected endpoint, freeing up the endpoint f
 448:../../tmk_core/protocol/lufa/LUFA-git/LUFA/Drivers/USB/Core/AVR8/../AVR8/Endpoint_AVR8.h **** 			 *  next packet and switching to the alternative endpoint bank if double banked.
 449:../../tmk_core/protocol/lufa/LUFA-git/LUFA/Drivers/USB/Core/AVR8/../AVR8/Endpoint_AVR8.h **** 			 *
 450:../../tmk_core/protocol/lufa/LUFA-git/LUFA/Drivers/USB/Core/AVR8/../AVR8/Endpoint_AVR8.h **** 			 *  \ingroup Group_EndpointPacketManagement_AVR8
 451:../../tmk_core/protocol/lufa/LUFA-git/LUFA/Drivers/USB/Core/AVR8/../AVR8/Endpoint_AVR8.h **** 			 */
 452:../../tmk_core/protocol/lufa/LUFA-git/LUFA/Drivers/USB/Core/AVR8/../AVR8/Endpoint_AVR8.h **** 			static inline void Endpoint_ClearIN(void) ATTR_ALWAYS_INLINE;
 453:../../tmk_core/protocol/lufa/LUFA-git/LUFA/Drivers/USB/Core/AVR8/../AVR8/Endpoint_AVR8.h **** 			static inline void Endpoint_ClearIN(void)
 155               		.loc 2 453 23 view .LVU39
 156               	.LBB256:
 454:../../tmk_core/protocol/lufa/LUFA-git/LUFA/Drivers/USB/Core/AVR8/../AVR8/Endpoint_AVR8.h **** 			{
 455:../../tmk_core/protocol/lufa/LUFA-git/LUFA/Drivers/USB/Core/AVR8/../AVR8/Endpoint_AVR8.h **** 				#if !defined(CONTROL_ONLY_DEVICE)
 456:../../tmk_core/protocol/lufa/LUFA-git/LUFA/Drivers/USB/Core/AVR8/../AVR8/Endpoint_AVR8.h **** 					UEINTX &= ~((1 << TXINI) | (1 << FIFOCON));
 157               		.loc 2 456 6 view .LVU40
 158               		.loc 2 456 13 is_stmt 0 view .LVU41
 159 0050 8091 E800 		lds r24,232
 160 0054 8E77      		andi r24,lo8(126)
 161 0056 8093 E800 		sts 232,r24
 162               	.L2:
 163               	/* epilogue start */
 164               		.loc 2 456 13 view .LVU42
 165               	.LBE256:
 166               	.LBE255:
 579:../../tmk_core/protocol/lufa/lufa.c **** #endif
 580:../../tmk_core/protocol/lufa/lufa.c **** }
 167               		.loc 1 580 1 view .LVU43
 168 005a 0F90      		pop __tmp_reg__
 169 005c 0F90      		pop __tmp_reg__
 170 005e 0F90      		pop __tmp_reg__
 171 0060 DF91      		pop r29
 172 0062 CF91      		pop r28
 173 0064 0895      		ret
 174               		.cfi_endproc
 175               	.LFE126:
 177               		.section	.text.send_system,"ax",@progbits
 179               	send_system:
 180               	.LVL10:
 181               	.LFB125:
 537:../../tmk_core/protocol/lufa/lufa.c **** #ifdef EXTRAKEY_ENABLE
 182               		.loc 1 537 1 is_stmt 1 view -0
 183               		.cfi_startproc
 537:../../tmk_core/protocol/lufa/lufa.c **** #ifdef EXTRAKEY_ENABLE
 184               		.loc 1 537 1 is_stmt 0 view .LVU45
 185 0000 CF93      		push r28
 186               	.LCFI4:
 187               		.cfi_def_cfa_offset 3
 188               		.cfi_offset 28, -2
 189 0002 DF93      		push r29
 190               	.LCFI5:
 191               		.cfi_def_cfa_offset 4
 192               		.cfi_offset 29, -3
 193 0004 00D0      		rcall .
 194 0006 0F92      		push __tmp_reg__
 195               	.LCFI6:
 196               		.cfi_def_cfa_offset 7
 197 0008 CDB7      		in r28,__SP_L__
 198 000a DEB7      		in r29,__SP_H__
 199               	.LCFI7:
 200               		.cfi_def_cfa_register 28
 201               	/* prologue: function */
 202               	/* frame size = 3 */
 203               	/* stack size = 5 */
 204               	.L__stack_usage = 5
 205 000c 9C01      		movw r18,r24
 539:../../tmk_core/protocol/lufa/lufa.c **** 
 206               		.loc 1 539 5 is_stmt 1 view .LVU46
 207               	.LVL11:
 541:../../tmk_core/protocol/lufa/lufa.c ****         return;
 208               		.loc 1 541 5 view .LVU47
 541:../../tmk_core/protocol/lufa/lufa.c ****         return;
 209               		.loc 1 541 25 is_stmt 0 view .LVU48
 210 000e 8091 0000 		lds r24,USB_DeviceState
 211               	.LVL12:
 541:../../tmk_core/protocol/lufa/lufa.c ****         return;
 212               		.loc 1 541 8 view .LVU49
 213 0012 8430      		cpi r24,lo8(4)
 214 0014 01F4      		brne .L14
 544:../../tmk_core/protocol/lufa/lufa.c ****         .report_id = REPORT_ID_SYSTEM,
 215               		.loc 1 544 5 is_stmt 1 view .LVU50
 544:../../tmk_core/protocol/lufa/lufa.c ****         .report_id = REPORT_ID_SYSTEM,
 216               		.loc 1 544 20 is_stmt 0 view .LVU51
 217 0016 82E0      		ldi r24,lo8(2)
 218 0018 8983      		std Y+1,r24
 546:../../tmk_core/protocol/lufa/lufa.c ****     };
 219               		.loc 1 546 43 view .LVU52
 220 001a 2058      		subi r18,-128
 221 001c 3109      		sbc r19,__zero_reg__
 222               	.LVL13:
 544:../../tmk_core/protocol/lufa/lufa.c ****         .report_id = REPORT_ID_SYSTEM,
 223               		.loc 1 544 20 view .LVU53
 224 001e 3B83      		std Y+3,r19
 225 0020 2A83      		std Y+2,r18
 548:../../tmk_core/protocol/lufa/lufa.c **** 
 226               		.loc 1 548 5 is_stmt 1 view .LVU54
 227               	.LVL14:
 228               	.LBB257:
 229               	.LBI257:
 267:../../tmk_core/protocol/lufa/LUFA-git/LUFA/Drivers/USB/Core/AVR8/../AVR8/Endpoint_AVR8.h **** 			{
 230               		.loc 2 267 23 view .LVU55
 231               	.LBB258:
 270:../../tmk_core/protocol/lufa/LUFA-git/LUFA/Drivers/USB/Core/AVR8/../AVR8/Endpoint_AVR8.h **** 				#endif
 232               		.loc 2 270 6 view .LVU56
 270:../../tmk_core/protocol/lufa/LUFA-git/LUFA/Drivers/USB/Core/AVR8/../AVR8/Endpoint_AVR8.h **** 				#endif
 233               		.loc 2 270 12 is_stmt 0 view .LVU57
 234 0022 83E0      		ldi r24,lo8(3)
 235 0024 8093 E900 		sts 233,r24
 236               	.LVL15:
 270:../../tmk_core/protocol/lufa/LUFA-git/LUFA/Drivers/USB/Core/AVR8/../AVR8/Endpoint_AVR8.h **** 				#endif
 237               		.loc 2 270 12 view .LVU58
 238 0028 8FEF      		ldi r24,lo8(-1)
 239               	.LVL16:
 240               	.L16:
 270:../../tmk_core/protocol/lufa/LUFA-git/LUFA/Drivers/USB/Core/AVR8/../AVR8/Endpoint_AVR8.h **** 				#endif
 241               		.loc 2 270 12 view .LVU59
 242               	.LBE258:
 243               	.LBE257:
 244               	.LBB259:
 245               	.LBI259:
 358:../../tmk_core/protocol/lufa/LUFA-git/LUFA/Drivers/USB/Core/AVR8/../AVR8/Endpoint_AVR8.h **** 			{
 246               		.loc 2 358 23 is_stmt 1 view .LVU60
 247               	.LBB260:
 360:../../tmk_core/protocol/lufa/LUFA-git/LUFA/Drivers/USB/Core/AVR8/../AVR8/Endpoint_AVR8.h **** 			}
 248               		.loc 2 360 5 view .LVU61
 360:../../tmk_core/protocol/lufa/LUFA-git/LUFA/Drivers/USB/Core/AVR8/../AVR8/Endpoint_AVR8.h **** 			}
 249               		.loc 2 360 14 is_stmt 0 view .LVU62
 250 002a 9091 E800 		lds r25,232
 251 002e 8150      		subi r24,lo8(-(-1))
 252               	.LVL17:
 360:../../tmk_core/protocol/lufa/LUFA-git/LUFA/Drivers/USB/Core/AVR8/../AVR8/Endpoint_AVR8.h **** 			}
 253               		.loc 2 360 14 view .LVU63
 254               	.LBE260:
 255               	.LBE259:
 551:../../tmk_core/protocol/lufa/lufa.c ****     if (!Endpoint_IsReadWriteAllowed()) return;
 256               		.loc 1 551 22 view .LVU64
 257 0030 95FD      		sbrc r25,5
 258 0032 00C0      		rjmp .L17
 551:../../tmk_core/protocol/lufa/lufa.c ****     if (!Endpoint_IsReadWriteAllowed()) return;
 259               		.loc 1 551 57 is_stmt 1 view .LVU65
 260               	.LVL18:
 261               	.LBB261:
 262               	.LBI261:
 255:/usr/local/Cellar/avr-gcc/9.1.0/avr/include/util/delay.h **** {
 263               		.loc 3 255 1 view .LVU66
 264               	.LBB262:
 257:/usr/local/Cellar/avr-gcc/9.1.0/avr/include/util/delay.h **** #if __HAS_DELAY_CYCLES && defined(__OPTIMIZE__) && \
 265               		.loc 3 257 2 view .LVU67
 261:/usr/local/Cellar/avr-gcc/9.1.0/avr/include/util/delay.h **** 	extern void __builtin_avr_delay_cycles(unsigned long);
 266               		.loc 3 261 2 view .LVU68
 262:/usr/local/Cellar/avr-gcc/9.1.0/avr/include/util/delay.h **** 	__tmp = ((F_CPU) / 1e6) * __us;
 267               		.loc 3 262 2 view .LVU69
 263:/usr/local/Cellar/avr-gcc/9.1.0/avr/include/util/delay.h **** 
 268               		.loc 3 263 2 view .LVU70
 273:/usr/local/Cellar/avr-gcc/9.1.0/avr/include/util/delay.h **** 	#endif
 269               		.loc 3 273 3 view .LVU71
 270               		.loc 3 276 2 view .LVU72
 271 0034 95ED      		ldi r25,lo8(-43)
 272 0036 9A95      	1:	dec r25
 273 0038 01F4      		brne 1b
 274 003a 0000      		nop
 275               	.LVL19:
 276               		.loc 3 276 2 is_stmt 0 view .LVU73
 277               	.LBE262:
 278               	.LBE261:
 551:../../tmk_core/protocol/lufa/lufa.c ****     if (!Endpoint_IsReadWriteAllowed()) return;
 279               		.loc 1 551 11 view .LVU74
 280 003c 8111      		cpse r24,__zero_reg__
 281 003e 00C0      		rjmp .L16
 282               	.LVL20:
 283               	.L17:
 552:../../tmk_core/protocol/lufa/lufa.c **** 
 284               		.loc 1 552 5 is_stmt 1 view .LVU75
 285               	.LBB263:
 286               	.LBI263:
 358:../../tmk_core/protocol/lufa/LUFA-git/LUFA/Drivers/USB/Core/AVR8/../AVR8/Endpoint_AVR8.h **** 			{
 287               		.loc 2 358 23 view .LVU76
 288               	.LBB264:
 360:../../tmk_core/protocol/lufa/LUFA-git/LUFA/Drivers/USB/Core/AVR8/../AVR8/Endpoint_AVR8.h **** 			}
 289               		.loc 2 360 5 view .LVU77
 360:../../tmk_core/protocol/lufa/LUFA-git/LUFA/Drivers/USB/Core/AVR8/../AVR8/Endpoint_AVR8.h **** 			}
 290               		.loc 2 360 14 is_stmt 0 view .LVU78
 291 0040 8091 E800 		lds r24,232
 292               	.LBE264:
 293               	.LBE263:
 552:../../tmk_core/protocol/lufa/lufa.c **** 
 294               		.loc 1 552 8 view .LVU79
 295 0044 85FF      		sbrs r24,5
 296 0046 00C0      		rjmp .L14
 554:../../tmk_core/protocol/lufa/lufa.c ****     Endpoint_ClearIN();
 297               		.loc 1 554 5 is_stmt 1 view .LVU80
 298 0048 50E0      		ldi r21,0
 299 004a 40E0      		ldi r20,0
 300 004c 63E0      		ldi r22,lo8(3)
 301 004e 70E0      		ldi r23,0
 302 0050 CE01      		movw r24,r28
 303 0052 0196      		adiw r24,1
 304 0054 0E94 0000 		call Endpoint_Write_Stream_LE
 305               	.LVL21:
 555:../../tmk_core/protocol/lufa/lufa.c **** #endif
 306               		.loc 1 555 5 view .LVU81
 307               	.LBB265:
 308               	.LBI265:
 453:../../tmk_core/protocol/lufa/LUFA-git/LUFA/Drivers/USB/Core/AVR8/../AVR8/Endpoint_AVR8.h **** 			{
 309               		.loc 2 453 23 view .LVU82
 310               	.LBB266:
 311               		.loc 2 456 6 view .LVU83
 312               		.loc 2 456 13 is_stmt 0 view .LVU84
 313 0058 8091 E800 		lds r24,232
 314 005c 8E77      		andi r24,lo8(126)
 315 005e 8093 E800 		sts 232,r24
 316               	.L14:
 317               	/* epilogue start */
 318               		.loc 2 456 13 view .LVU85
 319               	.LBE266:
 320               	.LBE265:
 557:../../tmk_core/protocol/lufa/lufa.c **** 
 321               		.loc 1 557 1 view .LVU86
 322 0062 0F90      		pop __tmp_reg__
 323 0064 0F90      		pop __tmp_reg__
 324 0066 0F90      		pop __tmp_reg__
 325 0068 DF91      		pop r29
 326 006a CF91      		pop r28
 327 006c 0895      		ret
 328               		.cfi_endproc
 329               	.LFE125:
 331               		.section	.text.send_mouse,"ax",@progbits
 333               	send_mouse:
 334               	.LVL22:
 335               	.LFB124:
 514:../../tmk_core/protocol/lufa/lufa.c **** #ifdef MOUSE_ENABLE
 336               		.loc 1 514 1 is_stmt 1 view -0
 337               		.cfi_startproc
 338               	/* prologue: function */
 339               	/* frame size = 0 */
 340               	/* stack size = 0 */
 341               	.L__stack_usage = 0
 516:../../tmk_core/protocol/lufa/lufa.c **** 
 342               		.loc 1 516 5 view .LVU88
 518:../../tmk_core/protocol/lufa/lufa.c ****         return;
 343               		.loc 1 518 5 view .LVU89
 518:../../tmk_core/protocol/lufa/lufa.c ****         return;
 344               		.loc 1 518 25 is_stmt 0 view .LVU90
 345 0000 2091 0000 		lds r18,USB_DeviceState
 518:../../tmk_core/protocol/lufa/lufa.c ****         return;
 346               		.loc 1 518 8 view .LVU91
 347 0004 2430      		cpi r18,lo8(4)
 348 0006 01F4      		brne .L26
 522:../../tmk_core/protocol/lufa/lufa.c **** 
 349               		.loc 1 522 5 is_stmt 1 view .LVU92
 350               	.LVL23:
 351               	.LBB267:
 352               	.LBI267:
 267:../../tmk_core/protocol/lufa/LUFA-git/LUFA/Drivers/USB/Core/AVR8/../AVR8/Endpoint_AVR8.h **** 			{
 353               		.loc 2 267 23 view .LVU93
 354               	.LBB268:
 270:../../tmk_core/protocol/lufa/LUFA-git/LUFA/Drivers/USB/Core/AVR8/../AVR8/Endpoint_AVR8.h **** 				#endif
 355               		.loc 2 270 6 view .LVU94
 270:../../tmk_core/protocol/lufa/LUFA-git/LUFA/Drivers/USB/Core/AVR8/../AVR8/Endpoint_AVR8.h **** 				#endif
 356               		.loc 2 270 12 is_stmt 0 view .LVU95
 357 0008 22E0      		ldi r18,lo8(2)
 358 000a 2093 E900 		sts 233,r18
 359               	.LVL24:
 270:../../tmk_core/protocol/lufa/LUFA-git/LUFA/Drivers/USB/Core/AVR8/../AVR8/Endpoint_AVR8.h **** 				#endif
 360               		.loc 2 270 12 view .LVU96
 361 000e 2FEF      		ldi r18,lo8(-1)
 362               	.LVL25:
 363               	.L29:
 270:../../tmk_core/protocol/lufa/LUFA-git/LUFA/Drivers/USB/Core/AVR8/../AVR8/Endpoint_AVR8.h **** 				#endif
 364               		.loc 2 270 12 view .LVU97
 365               	.LBE268:
 366               	.LBE267:
 367               	.LBB269:
 368               	.LBI269:
 358:../../tmk_core/protocol/lufa/LUFA-git/LUFA/Drivers/USB/Core/AVR8/../AVR8/Endpoint_AVR8.h **** 			{
 369               		.loc 2 358 23 is_stmt 1 view .LVU98
 370               	.LBB270:
 360:../../tmk_core/protocol/lufa/LUFA-git/LUFA/Drivers/USB/Core/AVR8/../AVR8/Endpoint_AVR8.h **** 			}
 371               		.loc 2 360 5 view .LVU99
 360:../../tmk_core/protocol/lufa/LUFA-git/LUFA/Drivers/USB/Core/AVR8/../AVR8/Endpoint_AVR8.h **** 			}
 372               		.loc 2 360 14 is_stmt 0 view .LVU100
 373 0010 3091 E800 		lds r19,232
 374 0014 2150      		subi r18,lo8(-(-1))
 375               	.LVL26:
 360:../../tmk_core/protocol/lufa/LUFA-git/LUFA/Drivers/USB/Core/AVR8/../AVR8/Endpoint_AVR8.h **** 			}
 376               		.loc 2 360 14 view .LVU101
 377               	.LBE270:
 378               	.LBE269:
 525:../../tmk_core/protocol/lufa/lufa.c ****     if (!Endpoint_IsReadWriteAllowed()) return;
 379               		.loc 1 525 22 view .LVU102
 380 0016 35FD      		sbrc r19,5
 381 0018 00C0      		rjmp .L30
 525:../../tmk_core/protocol/lufa/lufa.c ****     if (!Endpoint_IsReadWriteAllowed()) return;
 382               		.loc 1 525 57 is_stmt 1 view .LVU103
 383               	.LVL27:
 384               	.LBB271:
 385               	.LBI271:
 255:/usr/local/Cellar/avr-gcc/9.1.0/avr/include/util/delay.h **** {
 386               		.loc 3 255 1 view .LVU104
 387               	.LBB272:
 257:/usr/local/Cellar/avr-gcc/9.1.0/avr/include/util/delay.h **** #if __HAS_DELAY_CYCLES && defined(__OPTIMIZE__) && \
 388               		.loc 3 257 2 view .LVU105
 261:/usr/local/Cellar/avr-gcc/9.1.0/avr/include/util/delay.h **** 	extern void __builtin_avr_delay_cycles(unsigned long);
 389               		.loc 3 261 2 view .LVU106
 262:/usr/local/Cellar/avr-gcc/9.1.0/avr/include/util/delay.h **** 	__tmp = ((F_CPU) / 1e6) * __us;
 390               		.loc 3 262 2 view .LVU107
 263:/usr/local/Cellar/avr-gcc/9.1.0/avr/include/util/delay.h **** 
 391               		.loc 3 263 2 view .LVU108
 273:/usr/local/Cellar/avr-gcc/9.1.0/avr/include/util/delay.h **** 	#endif
 392               		.loc 3 273 3 view .LVU109
 393               		.loc 3 276 2 view .LVU110
 394 001a 35ED      		ldi r19,lo8(-43)
 395 001c 3A95      	1:	dec r19
 396 001e 01F4      		brne 1b
 397 0020 0000      		nop
 398               	.LVL28:
 399               		.loc 3 276 2 is_stmt 0 view .LVU111
 400               	.LBE272:
 401               	.LBE271:
 525:../../tmk_core/protocol/lufa/lufa.c ****     if (!Endpoint_IsReadWriteAllowed()) return;
 402               		.loc 1 525 11 view .LVU112
 403 0022 2111      		cpse r18,__zero_reg__
 404 0024 00C0      		rjmp .L29
 405               	.LVL29:
 406               	.L30:
 526:../../tmk_core/protocol/lufa/lufa.c **** 
 407               		.loc 1 526 5 is_stmt 1 view .LVU113
 408               	.LBB273:
 409               	.LBI273:
 358:../../tmk_core/protocol/lufa/LUFA-git/LUFA/Drivers/USB/Core/AVR8/../AVR8/Endpoint_AVR8.h **** 			{
 410               		.loc 2 358 23 view .LVU114
 411               	.LBB274:
 360:../../tmk_core/protocol/lufa/LUFA-git/LUFA/Drivers/USB/Core/AVR8/../AVR8/Endpoint_AVR8.h **** 			}
 412               		.loc 2 360 5 view .LVU115
 360:../../tmk_core/protocol/lufa/LUFA-git/LUFA/Drivers/USB/Core/AVR8/../AVR8/Endpoint_AVR8.h **** 			}
 413               		.loc 2 360 14 is_stmt 0 view .LVU116
 414 0026 2091 E800 		lds r18,232
 415               	.LBE274:
 416               	.LBE273:
 526:../../tmk_core/protocol/lufa/lufa.c **** 
 417               		.loc 1 526 8 view .LVU117
 418 002a 25FF      		sbrs r18,5
 419 002c 00C0      		rjmp .L26
 529:../../tmk_core/protocol/lufa/lufa.c **** 
 420               		.loc 1 529 5 is_stmt 1 view .LVU118
 421 002e 50E0      		ldi r21,0
 422 0030 40E0      		ldi r20,0
 423 0032 65E0      		ldi r22,lo8(5)
 424 0034 70E0      		ldi r23,0
 425 0036 0E94 0000 		call Endpoint_Write_Stream_LE
 426               	.LVL30:
 532:../../tmk_core/protocol/lufa/lufa.c **** #endif
 427               		.loc 1 532 5 view .LVU119
 428               	.LBB275:
 429               	.LBI275:
 453:../../tmk_core/protocol/lufa/LUFA-git/LUFA/Drivers/USB/Core/AVR8/../AVR8/Endpoint_AVR8.h **** 			{
 430               		.loc 2 453 23 view .LVU120
 431               	.LBB276:
 432               		.loc 2 456 6 view .LVU121
 433               		.loc 2 456 13 is_stmt 0 view .LVU122
 434 003a 8091 E800 		lds r24,232
 435 003e 8E77      		andi r24,lo8(126)
 436 0040 8093 E800 		sts 232,r24
 437               	.L26:
 438               	/* epilogue start */
 439               		.loc 2 456 13 view .LVU123
 440               	.LBE276:
 441               	.LBE275:
 534:../../tmk_core/protocol/lufa/lufa.c **** 
 442               		.loc 1 534 1 view .LVU124
 443 0044 0895      		ret
 444               		.cfi_endproc
 445               	.LFE124:
 447               		.section	.text.send_keyboard,"ax",@progbits
 449               	send_keyboard:
 450               	.LVL31:
 451               	.LFB123:
 474:../../tmk_core/protocol/lufa/lufa.c ****     uint8_t timeout = 128;
 452               		.loc 1 474 1 is_stmt 1 view -0
 453               		.cfi_startproc
 474:../../tmk_core/protocol/lufa/lufa.c ****     uint8_t timeout = 128;
 454               		.loc 1 474 1 is_stmt 0 view .LVU126
 455 0000 CF93      		push r28
 456               	.LCFI8:
 457               		.cfi_def_cfa_offset 3
 458               		.cfi_offset 28, -2
 459 0002 DF93      		push r29
 460               	.LCFI9:
 461               		.cfi_def_cfa_offset 4
 462               		.cfi_offset 29, -3
 463               	/* prologue: function */
 464               	/* frame size = 0 */
 465               	/* stack size = 2 */
 466               	.L__stack_usage = 2
 467 0004 D82F      		mov r29,r24
 468 0006 C92F      		mov r28,r25
 475:../../tmk_core/protocol/lufa/lufa.c **** 
 469               		.loc 1 475 5 is_stmt 1 view .LVU127
 470               	.LVL32:
 477:../../tmk_core/protocol/lufa/lufa.c ****         return;
 471               		.loc 1 477 5 view .LVU128
 477:../../tmk_core/protocol/lufa/lufa.c ****         return;
 472               		.loc 1 477 25 is_stmt 0 view .LVU129
 473 0008 8091 0000 		lds r24,USB_DeviceState
 474               	.LVL33:
 477:../../tmk_core/protocol/lufa/lufa.c ****         return;
 475               		.loc 1 477 8 view .LVU130
 476 000c 8430      		cpi r24,lo8(4)
 477 000e 01F4      		brne .L39
 497:../../tmk_core/protocol/lufa/lufa.c **** 
 478               		.loc 1 497 9 is_stmt 1 view .LVU131
 479               	.LVL34:
 480               	.LBB277:
 481               	.LBI277:
 267:../../tmk_core/protocol/lufa/LUFA-git/LUFA/Drivers/USB/Core/AVR8/../AVR8/Endpoint_AVR8.h **** 			{
 482               		.loc 2 267 23 view .LVU132
 483               	.LBB278:
 270:../../tmk_core/protocol/lufa/LUFA-git/LUFA/Drivers/USB/Core/AVR8/../AVR8/Endpoint_AVR8.h **** 				#endif
 484               		.loc 2 270 6 view .LVU133
 270:../../tmk_core/protocol/lufa/LUFA-git/LUFA/Drivers/USB/Core/AVR8/../AVR8/Endpoint_AVR8.h **** 				#endif
 485               		.loc 2 270 12 is_stmt 0 view .LVU134
 486 0010 81E0      		ldi r24,lo8(1)
 487 0012 8093 E900 		sts 233,r24
 272:../../tmk_core/protocol/lufa/LUFA-git/LUFA/Drivers/USB/Core/AVR8/../AVR8/Endpoint_AVR8.h **** 
 488               		.loc 2 272 4 view .LVU135
 489 0016 81E8      		ldi r24,lo8(-127)
 490               	.LVL35:
 491               	.L42:
 272:../../tmk_core/protocol/lufa/LUFA-git/LUFA/Drivers/USB/Core/AVR8/../AVR8/Endpoint_AVR8.h **** 
 492               		.loc 2 272 4 view .LVU136
 493 0018 8150      		subi r24,lo8(-(-1))
 494               	.LVL36:
 272:../../tmk_core/protocol/lufa/LUFA-git/LUFA/Drivers/USB/Core/AVR8/../AVR8/Endpoint_AVR8.h **** 
 495               		.loc 2 272 4 view .LVU137
 496               	.LBE278:
 497               	.LBE277:
 500:../../tmk_core/protocol/lufa/lufa.c ****         if (!Endpoint_IsReadWriteAllowed()) return;
 498               		.loc 1 500 15 discriminator 1 view .LVU138
 499 001a 01F0      		breq .L43
 500               	.LVL37:
 501               	.LBB279:
 502               	.LBI279:
 358:../../tmk_core/protocol/lufa/LUFA-git/LUFA/Drivers/USB/Core/AVR8/../AVR8/Endpoint_AVR8.h **** 			{
 503               		.loc 2 358 23 is_stmt 1 view .LVU139
 504               	.LBB280:
 360:../../tmk_core/protocol/lufa/LUFA-git/LUFA/Drivers/USB/Core/AVR8/../AVR8/Endpoint_AVR8.h **** 			}
 505               		.loc 2 360 5 view .LVU140
 360:../../tmk_core/protocol/lufa/LUFA-git/LUFA/Drivers/USB/Core/AVR8/../AVR8/Endpoint_AVR8.h **** 			}
 506               		.loc 2 360 14 is_stmt 0 view .LVU141
 507 001c 9091 E800 		lds r25,232
 508               	.LBE280:
 509               	.LBE279:
 500:../../tmk_core/protocol/lufa/lufa.c ****         if (!Endpoint_IsReadWriteAllowed()) return;
 510               		.loc 1 500 26 view .LVU142
 511 0020 95FF      		sbrs r25,5
 512 0022 00C0      		rjmp .L44
 513               	.LVL38:
 514               	.L43:
 501:../../tmk_core/protocol/lufa/lufa.c **** 
 515               		.loc 1 501 9 is_stmt 1 view .LVU143
 516               	.LBB281:
 517               	.LBI281:
 358:../../tmk_core/protocol/lufa/LUFA-git/LUFA/Drivers/USB/Core/AVR8/../AVR8/Endpoint_AVR8.h **** 			{
 518               		.loc 2 358 23 view .LVU144
 519               	.LBB282:
 360:../../tmk_core/protocol/lufa/LUFA-git/LUFA/Drivers/USB/Core/AVR8/../AVR8/Endpoint_AVR8.h **** 			}
 520               		.loc 2 360 5 view .LVU145
 360:../../tmk_core/protocol/lufa/LUFA-git/LUFA/Drivers/USB/Core/AVR8/../AVR8/Endpoint_AVR8.h **** 			}
 521               		.loc 2 360 14 is_stmt 0 view .LVU146
 522 0024 8091 E800 		lds r24,232
 523               	.LBE282:
 524               	.LBE281:
 501:../../tmk_core/protocol/lufa/lufa.c **** 
 525               		.loc 1 501 12 view .LVU147
 526 0028 85FF      		sbrs r24,5
 527 002a 00C0      		rjmp .L39
 504:../../tmk_core/protocol/lufa/lufa.c ****     }
 528               		.loc 1 504 9 is_stmt 1 view .LVU148
 529 002c 50E0      		ldi r21,0
 530 002e 40E0      		ldi r20,0
 531 0030 68E0      		ldi r22,lo8(8)
 532 0032 70E0      		ldi r23,0
 533 0034 8D2F      		mov r24,r29
 534 0036 9C2F      		mov r25,r28
 535 0038 0E94 0000 		call Endpoint_Write_Stream_LE
 536               	.LVL39:
 508:../../tmk_core/protocol/lufa/lufa.c **** 
 537               		.loc 1 508 5 view .LVU149
 538               	.LBB283:
 539               	.LBI283:
 453:../../tmk_core/protocol/lufa/LUFA-git/LUFA/Drivers/USB/Core/AVR8/../AVR8/Endpoint_AVR8.h **** 			{
 540               		.loc 2 453 23 view .LVU150
 541               	.LBB284:
 542               		.loc 2 456 6 view .LVU151
 543               		.loc 2 456 13 is_stmt 0 view .LVU152
 544 003c 8091 E800 		lds r24,232
 545 0040 8E77      		andi r24,lo8(126)
 546 0042 8093 E800 		sts 232,r24
 547               	.LBE284:
 548               	.LBE283:
 510:../../tmk_core/protocol/lufa/lufa.c **** }
 549               		.loc 1 510 5 is_stmt 1 view .LVU153
 510:../../tmk_core/protocol/lufa/lufa.c **** }
 550               		.loc 1 510 26 is_stmt 0 view .LVU154
 551 0046 88E0      		ldi r24,lo8(8)
 552 0048 ED2F      		mov r30,r29
 553 004a FC2F      		mov r31,r28
 554 004c A0E0      		ldi r26,lo8(keyboard_report_sent)
 555 004e B0E0      		ldi r27,hi8(keyboard_report_sent)
 556               		0:
 557 0050 0190      		ld r0,Z+
 558 0052 0D92      		st X+,r0
 559 0054 8A95      		dec r24
 560 0056 01F4      		brne 0b
 561               	.L39:
 562               	/* epilogue start */
 511:../../tmk_core/protocol/lufa/lufa.c **** 
 563               		.loc 1 511 1 view .LVU155
 564 0058 DF91      		pop r29
 565 005a CF91      		pop r28
 566 005c 0895      		ret
 567               	.LVL40:
 568               	.L44:
 500:../../tmk_core/protocol/lufa/lufa.c ****         if (!Endpoint_IsReadWriteAllowed()) return;
 569               		.loc 1 500 61 is_stmt 1 view .LVU156
 570               	.LBB285:
 571               	.LBI285:
 255:/usr/local/Cellar/avr-gcc/9.1.0/avr/include/util/delay.h **** {
 572               		.loc 3 255 1 view .LVU157
 573               	.LBB286:
 257:/usr/local/Cellar/avr-gcc/9.1.0/avr/include/util/delay.h **** #if __HAS_DELAY_CYCLES && defined(__OPTIMIZE__) && \
 574               		.loc 3 257 2 view .LVU158
 261:/usr/local/Cellar/avr-gcc/9.1.0/avr/include/util/delay.h **** 	extern void __builtin_avr_delay_cycles(unsigned long);
 575               		.loc 3 261 2 view .LVU159
 262:/usr/local/Cellar/avr-gcc/9.1.0/avr/include/util/delay.h **** 	__tmp = ((F_CPU) / 1e6) * __us;
 576               		.loc 3 262 2 view .LVU160
 263:/usr/local/Cellar/avr-gcc/9.1.0/avr/include/util/delay.h **** 
 577               		.loc 3 263 2 view .LVU161
 273:/usr/local/Cellar/avr-gcc/9.1.0/avr/include/util/delay.h **** 	#endif
 578               		.loc 3 273 3 view .LVU162
 579               		.loc 3 276 2 view .LVU163
 580 005e EFE3      		ldi r30,lo8(319)
 581 0060 F1E0      		ldi r31,hi8(319)
 582 0062 3197      	1:	sbiw r30,1
 583 0064 01F4      		brne 1b
 584 0066 00C0      		rjmp .
 585 0068 0000      		nop
 277:/usr/local/Cellar/avr-gcc/9.1.0/avr/include/util/delay.h **** 
 278:/usr/local/Cellar/avr-gcc/9.1.0/avr/include/util/delay.h **** #else
 279:/usr/local/Cellar/avr-gcc/9.1.0/avr/include/util/delay.h **** 	uint8_t __ticks;
 280:/usr/local/Cellar/avr-gcc/9.1.0/avr/include/util/delay.h **** 	double __tmp2 ;
 281:/usr/local/Cellar/avr-gcc/9.1.0/avr/include/util/delay.h **** 	__tmp = ((F_CPU) / 3e6) * __us;
 282:/usr/local/Cellar/avr-gcc/9.1.0/avr/include/util/delay.h **** 	__tmp2 = ((F_CPU) / 4e6) * __us;
 283:/usr/local/Cellar/avr-gcc/9.1.0/avr/include/util/delay.h **** 	if (__tmp < 1.0)
 284:/usr/local/Cellar/avr-gcc/9.1.0/avr/include/util/delay.h **** 		__ticks = 1;
 285:/usr/local/Cellar/avr-gcc/9.1.0/avr/include/util/delay.h **** 	else if (__tmp2 > 65535)
 286:/usr/local/Cellar/avr-gcc/9.1.0/avr/include/util/delay.h **** 	{
 287:/usr/local/Cellar/avr-gcc/9.1.0/avr/include/util/delay.h **** 		_delay_ms(__us / 1000.0);
 288:/usr/local/Cellar/avr-gcc/9.1.0/avr/include/util/delay.h **** 	}
 289:/usr/local/Cellar/avr-gcc/9.1.0/avr/include/util/delay.h **** 	else if (__tmp > 255)
 290:/usr/local/Cellar/avr-gcc/9.1.0/avr/include/util/delay.h **** 	{
 291:/usr/local/Cellar/avr-gcc/9.1.0/avr/include/util/delay.h **** 		uint16_t __ticks=(uint16_t)__tmp2;
 292:/usr/local/Cellar/avr-gcc/9.1.0/avr/include/util/delay.h **** 		_delay_loop_2(__ticks);
 293:/usr/local/Cellar/avr-gcc/9.1.0/avr/include/util/delay.h **** 		return;
 294:/usr/local/Cellar/avr-gcc/9.1.0/avr/include/util/delay.h **** 	}
 295:/usr/local/Cellar/avr-gcc/9.1.0/avr/include/util/delay.h **** 	else
 296:/usr/local/Cellar/avr-gcc/9.1.0/avr/include/util/delay.h **** 		__ticks = (uint8_t)__tmp;
 297:/usr/local/Cellar/avr-gcc/9.1.0/avr/include/util/delay.h **** 	_delay_loop_1(__ticks);
 298:/usr/local/Cellar/avr-gcc/9.1.0/avr/include/util/delay.h **** #endif
 299:/usr/local/Cellar/avr-gcc/9.1.0/avr/include/util/delay.h **** }
 586               		.loc 3 299 1 is_stmt 0 view .LVU164
 587 006a 00C0      		rjmp .L42
 588               	.LBE286:
 589               	.LBE285:
 590               		.cfi_endproc
 591               	.LFE123:
 593               		.section	.text.console_is_ready,"ax",@progbits
 595               	console_is_ready:
 596               	.LFB110:
 111:../../tmk_core/protocol/lufa/lufa.c ****     static bool hid_listen_ready = false;
 597               		.loc 1 111 1 is_stmt 1 view -0
 598               		.cfi_startproc
 599 0000 CF93      		push r28
 600               	.LCFI10:
 601               		.cfi_def_cfa_offset 3
 602               		.cfi_offset 28, -2
 603 0002 DF93      		push r29
 604               	.LCFI11:
 605               		.cfi_def_cfa_offset 4
 606               		.cfi_offset 29, -3
 607 0004 00D0      		rcall .
 608 0006 00D0      		rcall .
 609 0008 0F92      		push __tmp_reg__
 610               	.LCFI12:
 611               		.cfi_def_cfa_offset 9
 612 000a CDB7      		in r28,__SP_L__
 613 000c DEB7      		in r29,__SP_H__
 614               	.LCFI13:
 615               		.cfi_def_cfa_register 28
 616               	/* prologue: function */
 617               	/* frame size = 5 */
 618               	/* stack size = 7 */
 619               	.L__stack_usage = 7
 112:../../tmk_core/protocol/lufa/lufa.c ****     if (!hid_listen_ready) {
 620               		.loc 1 112 5 view .LVU166
 113:../../tmk_core/protocol/lufa/lufa.c ****         if (timer_read32() < 2500)
 621               		.loc 1 113 5 view .LVU167
 113:../../tmk_core/protocol/lufa/lufa.c ****         if (timer_read32() < 2500)
 622               		.loc 1 113 9 is_stmt 0 view .LVU168
 623 000e 2091 0000 		lds r18,hid_listen_ready.4879
 624 0012 2D83      		std Y+5,r18
 113:../../tmk_core/protocol/lufa/lufa.c ****         if (timer_read32() < 2500)
 625               		.loc 1 113 8 view .LVU169
 626 0014 2111      		cpse r18,__zero_reg__
 627 0016 00C0      		rjmp .L52
 114:../../tmk_core/protocol/lufa/lufa.c ****             return false;
 628               		.loc 1 114 9 is_stmt 1 view .LVU170
 114:../../tmk_core/protocol/lufa/lufa.c ****             return false;
 629               		.loc 1 114 13 is_stmt 0 view .LVU171
 630 0018 0E94 0000 		call timer_read32
 631               	.LVL41:
 114:../../tmk_core/protocol/lufa/lufa.c ****             return false;
 632               		.loc 1 114 12 view .LVU172
 633 001c 643C      		cpi r22,-60
 634 001e 7940      		sbci r23,9
 635 0020 8105      		cpc r24,__zero_reg__
 636 0022 9105      		cpc r25,__zero_reg__
 637 0024 00F0      		brlo .L52
 116:../../tmk_core/protocol/lufa/lufa.c ****     }
 638               		.loc 1 116 9 is_stmt 1 view .LVU173
 116:../../tmk_core/protocol/lufa/lufa.c ****     }
 639               		.loc 1 116 26 is_stmt 0 view .LVU174
 640 0026 81E0      		ldi r24,lo8(1)
 641 0028 8093 0000 		sts hid_listen_ready.4879,r24
 118:../../tmk_core/protocol/lufa/lufa.c **** }
 642               		.loc 1 118 12 view .LVU175
 643 002c B1E0      		ldi r27,lo8(1)
 644 002e BD83      		std Y+5,r27
 645               	.L52:
 119:../../tmk_core/protocol/lufa/lufa.c **** 
 646               		.loc 1 119 1 view .LVU176
 647 0030 8D81      		ldd r24,Y+5
 648               	/* epilogue start */
 649 0032 0F90      		pop __tmp_reg__
 650 0034 0F90      		pop __tmp_reg__
 651 0036 0F90      		pop __tmp_reg__
 652 0038 0F90      		pop __tmp_reg__
 653 003a 0F90      		pop __tmp_reg__
 654 003c DF91      		pop r29
 655 003e CF91      		pop r28
 656 0040 0895      		ret
 657               		.cfi_endproc
 658               	.LFE110:
 660               		.section	.text.sendchar,"ax",@progbits
 661               	.global	sendchar
 663               	sendchar:
 664               	.LVL42:
 665               	.LFB127:
 581:../../tmk_core/protocol/lufa/lufa.c **** 
 582:../../tmk_core/protocol/lufa/lufa.c **** 
 583:../../tmk_core/protocol/lufa/lufa.c **** /*******************************************************************************
 584:../../tmk_core/protocol/lufa/lufa.c ****  * sendchar
 585:../../tmk_core/protocol/lufa/lufa.c ****  ******************************************************************************/
 586:../../tmk_core/protocol/lufa/lufa.c **** int8_t sendchar(uint8_t c)
 587:../../tmk_core/protocol/lufa/lufa.c **** {
 666               		.loc 1 587 1 is_stmt 1 view -0
 667               		.cfi_startproc
 668               		.loc 1 587 1 is_stmt 0 view .LVU178
 669 0000 CF93      		push r28
 670               	.LCFI14:
 671               		.cfi_def_cfa_offset 3
 672               		.cfi_offset 28, -2
 673               	/* prologue: function */
 674               	/* frame size = 0 */
 675               	/* stack size = 1 */
 676               	.L__stack_usage = 1
 677 0002 C82F      		mov r28,r24
 588:../../tmk_core/protocol/lufa/lufa.c ****     #ifdef LUFA_DEBUG_SUART
 589:../../tmk_core/protocol/lufa/lufa.c ****     xmit(c);
 590:../../tmk_core/protocol/lufa/lufa.c ****     #endif
 591:../../tmk_core/protocol/lufa/lufa.c **** 
 592:../../tmk_core/protocol/lufa/lufa.c ****     #ifdef LUFA_DEBUG_UART
 593:../../tmk_core/protocol/lufa/lufa.c ****     uart_putchar(c);
 594:../../tmk_core/protocol/lufa/lufa.c ****     #endif
 595:../../tmk_core/protocol/lufa/lufa.c **** 
 596:../../tmk_core/protocol/lufa/lufa.c ****     #ifdef CONSOLE_ENABLE
 597:../../tmk_core/protocol/lufa/lufa.c ****     console_putc(c);
 678               		.loc 1 597 5 is_stmt 1 view .LVU179
 679               	.LVL43:
 680               	.LBB327:
 681               	.LBI327:
 121:../../tmk_core/protocol/lufa/lufa.c **** {
 682               		.loc 1 121 13 view .LVU180
 683               	.LBB328:
 123:../../tmk_core/protocol/lufa/lufa.c ****         goto EXIT;
 684               		.loc 1 123 5 view .LVU181
 123:../../tmk_core/protocol/lufa/lufa.c ****         goto EXIT;
 685               		.loc 1 123 10 is_stmt 0 view .LVU182
 686 0004 0E94 0000 		call console_is_ready
 687               	.LVL44:
 123:../../tmk_core/protocol/lufa/lufa.c ****         goto EXIT;
 688               		.loc 1 123 10 view .LVU183
 689 0008 3091 0000 		lds r19,sendbuf+2
 123:../../tmk_core/protocol/lufa/lufa.c ****         goto EXIT;
 690               		.loc 1 123 8 view .LVU184
 691 000c 8823      		tst r24
 692 000e 01F0      		breq .L55
 127:../../tmk_core/protocol/lufa/lufa.c ****         goto EXIT;
 693               		.loc 1 127 5 is_stmt 1 view .LVU185
 127:../../tmk_core/protocol/lufa/lufa.c ****         goto EXIT;
 694               		.loc 1 127 8 is_stmt 0 view .LVU186
 695 0010 0FB6      		in __tmp_reg__,__SREG__
 696 0012 07FE      		sbrs __tmp_reg__,7
 697 0014 00C0      		rjmp .L55
 130:../../tmk_core/protocol/lufa/lufa.c ****         goto EXIT;
 698               		.loc 1 130 5 is_stmt 1 view .LVU187
 130:../../tmk_core/protocol/lufa/lufa.c ****         goto EXIT;
 699               		.loc 1 130 25 is_stmt 0 view .LVU188
 700 0016 8091 0000 		lds r24,USB_DeviceState
 130:../../tmk_core/protocol/lufa/lufa.c ****         goto EXIT;
 701               		.loc 1 130 8 view .LVU189
 702 001a 8430      		cpi r24,lo8(4)
 703 001c 01F4      		brne .L55
 133:../../tmk_core/protocol/lufa/lufa.c **** 
 704               		.loc 1 133 5 is_stmt 1 view .LVU190
 705               	.LBB329:
 706               	.LBI329:
 250:../../tmk_core/protocol/lufa/LUFA-git/LUFA/Drivers/USB/Core/AVR8/../AVR8/Endpoint_AVR8.h **** 			{
 707               		.loc 2 250 26 view .LVU191
 708               	.LBB330:
 253:../../tmk_core/protocol/lufa/LUFA-git/LUFA/Drivers/USB/Core/AVR8/../AVR8/Endpoint_AVR8.h **** 				#else
 709               		.loc 2 253 6 view .LVU192
 253:../../tmk_core/protocol/lufa/LUFA-git/LUFA/Drivers/USB/Core/AVR8/../AVR8/Endpoint_AVR8.h **** 				#else
 710               		.loc 2 253 15 is_stmt 0 view .LVU193
 711 001e 8091 E900 		lds r24,233
 253:../../tmk_core/protocol/lufa/LUFA-git/LUFA/Drivers/USB/Core/AVR8/../AVR8/Endpoint_AVR8.h **** 				#else
 712               		.loc 2 253 21 view .LVU194
 713 0022 8F70      		andi r24,lo8(15)
 714               	.LBB331:
 715               	.LBI331:
 238:../../tmk_core/protocol/lufa/LUFA-git/LUFA/Drivers/USB/Core/AVR8/../AVR8/Endpoint_AVR8.h **** 			{
 716               		.loc 2 238 26 is_stmt 1 view .LVU195
 717               	.LBB332:
 240:../../tmk_core/protocol/lufa/LUFA-git/LUFA/Drivers/USB/Core/AVR8/../AVR8/Endpoint_AVR8.h **** 			}
 718               		.loc 2 240 5 view .LVU196
 240:../../tmk_core/protocol/lufa/LUFA-git/LUFA/Drivers/USB/Core/AVR8/../AVR8/Endpoint_AVR8.h **** 			}
 719               		.loc 2 240 13 is_stmt 0 view .LVU197
 720 0024 2091 EC00 		lds r18,236
 240:../../tmk_core/protocol/lufa/LUFA-git/LUFA/Drivers/USB/Core/AVR8/../AVR8/Endpoint_AVR8.h **** 			}
 721               		.loc 2 240 55 view .LVU198
 722 0028 922F      		mov r25,r18
 723 002a 9170      		andi r25,lo8(1)
 724 002c 20FD      		sbrc r18,0
 725 002e 90E8      		ldi r25,lo8(-128)
 726               	.L56:
 727               	.LBE332:
 728               	.LBE331:
 253:../../tmk_core/protocol/lufa/LUFA-git/LUFA/Drivers/USB/Core/AVR8/../AVR8/Endpoint_AVR8.h **** 				#else
 729               		.loc 2 253 44 view .LVU199
 730 0030 982B      		or r25,r24
 731               	.LVL45:
 253:../../tmk_core/protocol/lufa/LUFA-git/LUFA/Drivers/USB/Core/AVR8/../AVR8/Endpoint_AVR8.h **** 				#else
 732               		.loc 2 253 44 view .LVU200
 733               	.LBE330:
 734               	.LBE329:
 135:../../tmk_core/protocol/lufa/lufa.c ****     if (!Endpoint_IsEnabled() || !Endpoint_IsConfigured()) {
 735               		.loc 1 135 5 is_stmt 1 view .LVU201
 736               	.LBB333:
 737               	.LBI333:
 267:../../tmk_core/protocol/lufa/LUFA-git/LUFA/Drivers/USB/Core/AVR8/../AVR8/Endpoint_AVR8.h **** 			{
 738               		.loc 2 267 23 view .LVU202
 739               	.LBB334:
 270:../../tmk_core/protocol/lufa/LUFA-git/LUFA/Drivers/USB/Core/AVR8/../AVR8/Endpoint_AVR8.h **** 				#endif
 740               		.loc 2 270 6 view .LVU203
 270:../../tmk_core/protocol/lufa/LUFA-git/LUFA/Drivers/USB/Core/AVR8/../AVR8/Endpoint_AVR8.h **** 				#endif
 741               		.loc 2 270 12 is_stmt 0 view .LVU204
 742 0032 84E0      		ldi r24,lo8(4)
 743 0034 8093 E900 		sts 233,r24
 744               	.LVL46:
 270:../../tmk_core/protocol/lufa/LUFA-git/LUFA/Drivers/USB/Core/AVR8/../AVR8/Endpoint_AVR8.h **** 				#endif
 745               		.loc 2 270 12 view .LVU205
 746               	.LBE334:
 747               	.LBE333:
 136:../../tmk_core/protocol/lufa/lufa.c ****         goto EXIT_RESTORE_EP;
 748               		.loc 1 136 5 is_stmt 1 view .LVU206
 749               	.LBB335:
 750               	.LBI335:
 311:../../tmk_core/protocol/lufa/LUFA-git/LUFA/Drivers/USB/Core/AVR8/../AVR8/Endpoint_AVR8.h **** 			{
 751               		.loc 2 311 23 view .LVU207
 752               	.LBB336:
 313:../../tmk_core/protocol/lufa/LUFA-git/LUFA/Drivers/USB/Core/AVR8/../AVR8/Endpoint_AVR8.h **** 			}
 753               		.loc 2 313 5 view .LVU208
 313:../../tmk_core/protocol/lufa/LUFA-git/LUFA/Drivers/USB/Core/AVR8/../AVR8/Endpoint_AVR8.h **** 			}
 754               		.loc 2 313 14 is_stmt 0 view .LVU209
 755 0038 8091 EB00 		lds r24,235
 756               	.LBE336:
 757               	.LBE335:
 136:../../tmk_core/protocol/lufa/lufa.c ****         goto EXIT_RESTORE_EP;
 758               		.loc 1 136 8 view .LVU210
 759 003c 80FF      		sbrs r24,0
 760 003e 00C0      		rjmp .L57
 761               	.LBB337:
 762               	.LBI337:
 368:../../tmk_core/protocol/lufa/LUFA-git/LUFA/Drivers/USB/Core/AVR8/../AVR8/Endpoint_AVR8.h **** 			{
 763               		.loc 2 368 23 is_stmt 1 view .LVU211
 764               	.LBB338:
 370:../../tmk_core/protocol/lufa/LUFA-git/LUFA/Drivers/USB/Core/AVR8/../AVR8/Endpoint_AVR8.h **** 			}
 765               		.loc 2 370 5 view .LVU212
 370:../../tmk_core/protocol/lufa/LUFA-git/LUFA/Drivers/USB/Core/AVR8/../AVR8/Endpoint_AVR8.h **** 			}
 766               		.loc 2 370 14 is_stmt 0 view .LVU213
 767 0040 8091 EE00 		lds r24,238
 768               	.LBE338:
 769               	.LBE337:
 136:../../tmk_core/protocol/lufa/lufa.c ****         goto EXIT_RESTORE_EP;
 770               		.loc 1 136 31 view .LVU214
 771 0044 87FD      		sbrc r24,7
 772 0046 00C0      		rjmp .L58
 773               	.L57:
 774               	.LDL1:
 158:../../tmk_core/protocol/lufa/lufa.c **** EXIT:
 775               		.loc 1 158 5 is_stmt 1 view .LVU215
 776               	.LVL47:
 777               	.LBB339:
 778               	.LBI339:
 267:../../tmk_core/protocol/lufa/LUFA-git/LUFA/Drivers/USB/Core/AVR8/../AVR8/Endpoint_AVR8.h **** 			{
 779               		.loc 2 267 23 view .LVU216
 780               	.LBB340:
 270:../../tmk_core/protocol/lufa/LUFA-git/LUFA/Drivers/USB/Core/AVR8/../AVR8/Endpoint_AVR8.h **** 				#endif
 781               		.loc 2 270 6 view .LVU217
 270:../../tmk_core/protocol/lufa/LUFA-git/LUFA/Drivers/USB/Core/AVR8/../AVR8/Endpoint_AVR8.h **** 				#endif
 782               		.loc 2 270 23 is_stmt 0 view .LVU218
 783 0048 9F70      		andi r25,lo8(15)
 784               	.LVL48:
 270:../../tmk_core/protocol/lufa/LUFA-git/LUFA/Drivers/USB/Core/AVR8/../AVR8/Endpoint_AVR8.h **** 				#endif
 785               		.loc 2 270 12 view .LVU219
 786 004a 9093 E900 		sts 233,r25
 787               	.L55:
 270:../../tmk_core/protocol/lufa/LUFA-git/LUFA/Drivers/USB/Core/AVR8/../AVR8/Endpoint_AVR8.h **** 				#endif
 788               		.loc 2 270 12 view .LVU220
 789               	.LBE340:
 790               	.LBE339:
 160:../../tmk_core/protocol/lufa/lufa.c **** }
 791               		.loc 1 160 5 is_stmt 1 view .LVU221
 792               	.LVL49:
 793               	.LBB341:
 794               	.LBI341:
 795               		.file 4 "../../tmk_core/common/ringbuf.h"
   1:../../tmk_core/common/ringbuf.h **** #ifndef RINGBUF_H
   2:../../tmk_core/common/ringbuf.h **** #define RINGBUF_H
   3:../../tmk_core/common/ringbuf.h **** 
   4:../../tmk_core/common/ringbuf.h **** #include <stdint.h>
   5:../../tmk_core/common/ringbuf.h **** #include <stdbool.h>
   6:../../tmk_core/common/ringbuf.h **** 
   7:../../tmk_core/common/ringbuf.h **** // NOTE: buffer size must be 2^n and up to 255. size_mask should be 2^n - 1 due to using &(AND) ins
   8:../../tmk_core/common/ringbuf.h **** typedef struct {
   9:../../tmk_core/common/ringbuf.h ****     uint8_t *buffer;
  10:../../tmk_core/common/ringbuf.h ****     uint8_t head;
  11:../../tmk_core/common/ringbuf.h ****     uint8_t tail;
  12:../../tmk_core/common/ringbuf.h ****     uint8_t size_mask;
  13:../../tmk_core/common/ringbuf.h **** } ringbuf_t;
  14:../../tmk_core/common/ringbuf.h **** 
  15:../../tmk_core/common/ringbuf.h **** static inline void ringbuf_init(ringbuf_t *buf, uint8_t *array, uint8_t size);
  16:../../tmk_core/common/ringbuf.h **** static inline int16_t ringbuf_get(ringbuf_t *buf);
  17:../../tmk_core/common/ringbuf.h **** static inline bool ringbuf_put(ringbuf_t *buf, uint8_t data);
  18:../../tmk_core/common/ringbuf.h **** static inline void ringbuf_write(ringbuf_t *buf, uint8_t data);
  19:../../tmk_core/common/ringbuf.h **** static inline bool ringbuf_is_empty(ringbuf_t *buf);
  20:../../tmk_core/common/ringbuf.h **** static inline bool ringbuf_is_full(ringbuf_t *buf);
  21:../../tmk_core/common/ringbuf.h **** static inline void ringbuf_reset(ringbuf_t *buf);
  22:../../tmk_core/common/ringbuf.h **** 
  23:../../tmk_core/common/ringbuf.h **** static inline void ringbuf_init(ringbuf_t *buf, uint8_t *array, uint8_t size)
  24:../../tmk_core/common/ringbuf.h **** {
  25:../../tmk_core/common/ringbuf.h ****     buf->buffer = array;
  26:../../tmk_core/common/ringbuf.h ****     buf->head = 0;
  27:../../tmk_core/common/ringbuf.h ****     buf->tail = 0;
  28:../../tmk_core/common/ringbuf.h ****     buf->size_mask = size - 1;
  29:../../tmk_core/common/ringbuf.h **** }
  30:../../tmk_core/common/ringbuf.h **** static inline int16_t ringbuf_get(ringbuf_t *buf)
  31:../../tmk_core/common/ringbuf.h **** {
  32:../../tmk_core/common/ringbuf.h ****     if (ringbuf_is_empty(buf)) return -1;
  33:../../tmk_core/common/ringbuf.h ****     uint8_t data = buf->buffer[buf->tail];
  34:../../tmk_core/common/ringbuf.h ****     buf->tail++;
  35:../../tmk_core/common/ringbuf.h ****     buf->tail &= buf->size_mask;
  36:../../tmk_core/common/ringbuf.h ****     return  data;
  37:../../tmk_core/common/ringbuf.h **** }
  38:../../tmk_core/common/ringbuf.h **** static inline bool ringbuf_put(ringbuf_t *buf, uint8_t data)
 796               		.loc 4 38 20 view .LVU222
 797               	.LBB342:
  39:../../tmk_core/common/ringbuf.h **** {
  40:../../tmk_core/common/ringbuf.h ****     if (ringbuf_is_full(buf)) {
 798               		.loc 4 40 5 view .LVU223
 799               	.LBB343:
 800               	.LBI343:
  41:../../tmk_core/common/ringbuf.h ****         return false;
  42:../../tmk_core/common/ringbuf.h ****     }
  43:../../tmk_core/common/ringbuf.h ****     buf->buffer[buf->head] = data;
  44:../../tmk_core/common/ringbuf.h ****     buf->head++;
  45:../../tmk_core/common/ringbuf.h ****     buf->head &= buf->size_mask;
  46:../../tmk_core/common/ringbuf.h ****     return true;
  47:../../tmk_core/common/ringbuf.h **** }
  48:../../tmk_core/common/ringbuf.h **** // this overrides data in buffer when it is full
  49:../../tmk_core/common/ringbuf.h **** static inline void ringbuf_write(ringbuf_t *buf, uint8_t data)
  50:../../tmk_core/common/ringbuf.h **** {
  51:../../tmk_core/common/ringbuf.h ****     buf->buffer[buf->head] = data;
  52:../../tmk_core/common/ringbuf.h ****     buf->head++;
  53:../../tmk_core/common/ringbuf.h ****     buf->head &= buf->size_mask;
  54:../../tmk_core/common/ringbuf.h ****     // eat tail: override data yet to be consumed
  55:../../tmk_core/common/ringbuf.h ****     if (buf->head == buf->tail) {
  56:../../tmk_core/common/ringbuf.h ****         buf->tail++;
  57:../../tmk_core/common/ringbuf.h ****         buf->tail &= buf->size_mask;
  58:../../tmk_core/common/ringbuf.h ****     }
  59:../../tmk_core/common/ringbuf.h **** }
  60:../../tmk_core/common/ringbuf.h **** static inline bool ringbuf_is_empty(ringbuf_t *buf)
  61:../../tmk_core/common/ringbuf.h **** {
  62:../../tmk_core/common/ringbuf.h ****     return (buf->head == buf->tail);
  63:../../tmk_core/common/ringbuf.h **** }
  64:../../tmk_core/common/ringbuf.h **** static inline bool ringbuf_is_full(ringbuf_t *buf)
 801               		.loc 4 64 20 view .LVU224
 802               	.LBB344:
  65:../../tmk_core/common/ringbuf.h **** {
  66:../../tmk_core/common/ringbuf.h ****     return (((buf->head + 1) & buf->size_mask) == buf->tail);
 803               		.loc 4 66 5 view .LVU225
 804               		.loc 4 66 18 is_stmt 0 view .LVU226
 805 004e 232F      		mov r18,r19
 806 0050 30E0      		ldi r19,0
 807               		.loc 4 66 25 view .LVU227
 808 0052 C901      		movw r24,r18
 809 0054 0196      		adiw r24,1
 810               		.loc 4 66 35 view .LVU228
 811 0056 4091 0000 		lds r20,sendbuf+4
 812 005a 50E0      		ldi r21,0
 813               		.loc 4 66 30 view .LVU229
 814 005c 8423      		and r24,r20
 815 005e 9523      		and r25,r21
 816               		.loc 4 66 54 view .LVU230
 817 0060 4091 0000 		lds r20,sendbuf+3
 818               	.LBE344:
 819               	.LBE343:
  40:../../tmk_core/common/ringbuf.h ****         return false;
 820               		.loc 4 40 8 view .LVU231
 821 0064 4817      		cp r20,r24
 822 0066 1906      		cpc __zero_reg__,r25
 823 0068 01F0      		breq .L68
  43:../../tmk_core/common/ringbuf.h ****     buf->head++;
 824               		.loc 4 43 5 is_stmt 1 view .LVU232
  43:../../tmk_core/common/ringbuf.h ****     buf->head++;
 825               		.loc 4 43 28 is_stmt 0 view .LVU233
 826 006a 8091 0000 		lds r24,sendbuf
 827 006e 9091 0000 		lds r25,sendbuf+1
 828 0072 280F      		add r18,r24
 829 0074 391F      		adc r19,r25
 830 0076 F901      		movw r30,r18
 831 0078 C083      		st Z,r28
  44:../../tmk_core/common/ringbuf.h ****     buf->head &= buf->size_mask;
 832               		.loc 4 44 5 is_stmt 1 view .LVU234
  45:../../tmk_core/common/ringbuf.h ****     return true;
 833               		.loc 4 45 5 view .LVU235
  44:../../tmk_core/common/ringbuf.h ****     buf->head &= buf->size_mask;
 834               		.loc 4 44 14 is_stmt 0 view .LVU236
 835 007a 8091 0000 		lds r24,sendbuf+2
 836 007e 8F5F      		subi r24,lo8(-(1))
  45:../../tmk_core/common/ringbuf.h ****     return true;
 837               		.loc 4 45 15 view .LVU237
 838 0080 9091 0000 		lds r25,sendbuf+4
 839 0084 8923      		and r24,r25
 840 0086 8093 0000 		sts sendbuf+2,r24
  46:../../tmk_core/common/ringbuf.h **** }
 841               		.loc 4 46 5 is_stmt 1 view .LVU238
 842               	.LVL50:
  46:../../tmk_core/common/ringbuf.h **** }
 843               		.loc 4 46 5 is_stmt 0 view .LVU239
 844               	.LBE342:
 845               	.LBE341:
 846               	.LBE328:
 847               	.LBE327:
 598:../../tmk_core/protocol/lufa/lufa.c ****     #endif
 599:../../tmk_core/protocol/lufa/lufa.c **** 
 600:../../tmk_core/protocol/lufa/lufa.c ****     return 0;
 848               		.loc 1 600 5 is_stmt 1 view .LVU240
 849               		.loc 1 600 12 is_stmt 0 view .LVU241
 850 008a 00C0      		rjmp .L68
 851               	.LVL51:
 852               	.L61:
 853               	.LBB372:
 854               	.LBB369:
 142:../../tmk_core/protocol/lufa/lufa.c **** 
 855               		.loc 1 142 9 is_stmt 1 view .LVU242
 856               	.LBB345:
 857               	.LBI345:
  30:../../tmk_core/common/ringbuf.h **** {
 858               		.loc 4 30 23 view .LVU243
 859               	.LBB346:
  32:../../tmk_core/common/ringbuf.h ****     uint8_t data = buf->buffer[buf->tail];
 860               		.loc 4 32 5 view .LVU244
  32:../../tmk_core/common/ringbuf.h ****     uint8_t data = buf->buffer[buf->tail];
 861               		.loc 4 32 5 is_stmt 0 view .LVU245
 862               	.LBE346:
 863               	.LBE345:
 864               	.LBE369:
 865               	.LBE372:
  62:../../tmk_core/common/ringbuf.h **** }
 866               		.loc 4 62 5 is_stmt 1 view .LVU246
 867               	.LBB373:
 868               	.LBB370:
 869               	.LBB348:
 870               	.LBB347:
  33:../../tmk_core/common/ringbuf.h ****     buf->tail++;
 871               		.loc 4 33 5 view .LVU247
  33:../../tmk_core/common/ringbuf.h ****     buf->tail++;
 872               		.loc 4 33 13 is_stmt 0 view .LVU248
 873 008c E091 0000 		lds r30,sendbuf
 874 0090 F091 0000 		lds r31,sendbuf+1
 875 0094 E20F      		add r30,r18
 876 0096 F11D      		adc r31,__zero_reg__
 877 0098 8081      		ld r24,Z
 878               	.LVL52:
  34:../../tmk_core/common/ringbuf.h ****     buf->tail &= buf->size_mask;
 879               		.loc 4 34 5 is_stmt 1 view .LVU249
  35:../../tmk_core/common/ringbuf.h ****     return  data;
 880               		.loc 4 35 5 view .LVU250
  34:../../tmk_core/common/ringbuf.h ****     buf->tail &= buf->size_mask;
 881               		.loc 4 34 14 is_stmt 0 view .LVU251
 882 009a 2F5F      		subi r18,lo8(-(1))
  35:../../tmk_core/common/ringbuf.h ****     return  data;
 883               		.loc 4 35 15 view .LVU252
 884 009c 4091 0000 		lds r20,sendbuf+4
 885 00a0 2423      		and r18,r20
 886 00a2 2093 0000 		sts sendbuf+3,r18
  36:../../tmk_core/common/ringbuf.h **** }
 887               		.loc 4 36 5 is_stmt 1 view .LVU253
 888               	.LVL53:
  36:../../tmk_core/common/ringbuf.h **** }
 889               		.loc 4 36 5 is_stmt 0 view .LVU254
 890               	.LBE347:
 891               	.LBE348:
 892               	.LBB349:
 893               	.LBI349:
 457:../../tmk_core/protocol/lufa/LUFA-git/LUFA/Drivers/USB/Core/AVR8/../AVR8/Endpoint_AVR8.h **** 				#else
 458:../../tmk_core/protocol/lufa/LUFA-git/LUFA/Drivers/USB/Core/AVR8/../AVR8/Endpoint_AVR8.h **** 					UEINTX &= ~(1 << TXINI);
 459:../../tmk_core/protocol/lufa/LUFA-git/LUFA/Drivers/USB/Core/AVR8/../AVR8/Endpoint_AVR8.h **** 				#endif
 460:../../tmk_core/protocol/lufa/LUFA-git/LUFA/Drivers/USB/Core/AVR8/../AVR8/Endpoint_AVR8.h **** 			}
 461:../../tmk_core/protocol/lufa/LUFA-git/LUFA/Drivers/USB/Core/AVR8/../AVR8/Endpoint_AVR8.h **** 
 462:../../tmk_core/protocol/lufa/LUFA-git/LUFA/Drivers/USB/Core/AVR8/../AVR8/Endpoint_AVR8.h **** 			/** Acknowledges an OUT packet to the host on the currently selected endpoint, freeing up the en
 463:../../tmk_core/protocol/lufa/LUFA-git/LUFA/Drivers/USB/Core/AVR8/../AVR8/Endpoint_AVR8.h **** 			 *  for the next packet and switching to the alternative endpoint bank if double banked.
 464:../../tmk_core/protocol/lufa/LUFA-git/LUFA/Drivers/USB/Core/AVR8/../AVR8/Endpoint_AVR8.h **** 			 *
 465:../../tmk_core/protocol/lufa/LUFA-git/LUFA/Drivers/USB/Core/AVR8/../AVR8/Endpoint_AVR8.h **** 			 *  \ingroup Group_EndpointPacketManagement_AVR8
 466:../../tmk_core/protocol/lufa/LUFA-git/LUFA/Drivers/USB/Core/AVR8/../AVR8/Endpoint_AVR8.h **** 			 */
 467:../../tmk_core/protocol/lufa/LUFA-git/LUFA/Drivers/USB/Core/AVR8/../AVR8/Endpoint_AVR8.h **** 			static inline void Endpoint_ClearOUT(void) ATTR_ALWAYS_INLINE;
 468:../../tmk_core/protocol/lufa/LUFA-git/LUFA/Drivers/USB/Core/AVR8/../AVR8/Endpoint_AVR8.h **** 			static inline void Endpoint_ClearOUT(void)
 469:../../tmk_core/protocol/lufa/LUFA-git/LUFA/Drivers/USB/Core/AVR8/../AVR8/Endpoint_AVR8.h **** 			{
 470:../../tmk_core/protocol/lufa/LUFA-git/LUFA/Drivers/USB/Core/AVR8/../AVR8/Endpoint_AVR8.h **** 				#if !defined(CONTROL_ONLY_DEVICE)
 471:../../tmk_core/protocol/lufa/LUFA-git/LUFA/Drivers/USB/Core/AVR8/../AVR8/Endpoint_AVR8.h **** 					UEINTX &= ~((1 << RXOUTI) | (1 << FIFOCON));
 472:../../tmk_core/protocol/lufa/LUFA-git/LUFA/Drivers/USB/Core/AVR8/../AVR8/Endpoint_AVR8.h **** 				#else
 473:../../tmk_core/protocol/lufa/LUFA-git/LUFA/Drivers/USB/Core/AVR8/../AVR8/Endpoint_AVR8.h **** 					UEINTX &= ~(1 << RXOUTI);
 474:../../tmk_core/protocol/lufa/LUFA-git/LUFA/Drivers/USB/Core/AVR8/../AVR8/Endpoint_AVR8.h **** 				#endif
 475:../../tmk_core/protocol/lufa/LUFA-git/LUFA/Drivers/USB/Core/AVR8/../AVR8/Endpoint_AVR8.h **** 			}
 476:../../tmk_core/protocol/lufa/LUFA-git/LUFA/Drivers/USB/Core/AVR8/../AVR8/Endpoint_AVR8.h **** 
 477:../../tmk_core/protocol/lufa/LUFA-git/LUFA/Drivers/USB/Core/AVR8/../AVR8/Endpoint_AVR8.h **** 			/** Stalls the current endpoint, indicating to the host that a logical problem occurred with the
 478:../../tmk_core/protocol/lufa/LUFA-git/LUFA/Drivers/USB/Core/AVR8/../AVR8/Endpoint_AVR8.h **** 			 *  indicated endpoint and that the current transfer sequence should be aborted. This provides a
 479:../../tmk_core/protocol/lufa/LUFA-git/LUFA/Drivers/USB/Core/AVR8/../AVR8/Endpoint_AVR8.h **** 			 *  way for devices to indicate invalid commands to the host so that the current transfer can be
 480:../../tmk_core/protocol/lufa/LUFA-git/LUFA/Drivers/USB/Core/AVR8/../AVR8/Endpoint_AVR8.h **** 			 *  aborted and the host can begin its own recovery sequence.
 481:../../tmk_core/protocol/lufa/LUFA-git/LUFA/Drivers/USB/Core/AVR8/../AVR8/Endpoint_AVR8.h **** 			 *
 482:../../tmk_core/protocol/lufa/LUFA-git/LUFA/Drivers/USB/Core/AVR8/../AVR8/Endpoint_AVR8.h **** 			 *  The currently selected endpoint remains stalled until either the \ref Endpoint_ClearStall() 
 483:../../tmk_core/protocol/lufa/LUFA-git/LUFA/Drivers/USB/Core/AVR8/../AVR8/Endpoint_AVR8.h **** 			 *  is called, or the host issues a CLEAR FEATURE request to the device for the currently select
 484:../../tmk_core/protocol/lufa/LUFA-git/LUFA/Drivers/USB/Core/AVR8/../AVR8/Endpoint_AVR8.h **** 			 *  endpoint.
 485:../../tmk_core/protocol/lufa/LUFA-git/LUFA/Drivers/USB/Core/AVR8/../AVR8/Endpoint_AVR8.h **** 			 *
 486:../../tmk_core/protocol/lufa/LUFA-git/LUFA/Drivers/USB/Core/AVR8/../AVR8/Endpoint_AVR8.h **** 			 *  \ingroup Group_EndpointPacketManagement_AVR8
 487:../../tmk_core/protocol/lufa/LUFA-git/LUFA/Drivers/USB/Core/AVR8/../AVR8/Endpoint_AVR8.h **** 			 */
 488:../../tmk_core/protocol/lufa/LUFA-git/LUFA/Drivers/USB/Core/AVR8/../AVR8/Endpoint_AVR8.h **** 			static inline void Endpoint_StallTransaction(void) ATTR_ALWAYS_INLINE;
 489:../../tmk_core/protocol/lufa/LUFA-git/LUFA/Drivers/USB/Core/AVR8/../AVR8/Endpoint_AVR8.h **** 			static inline void Endpoint_StallTransaction(void)
 490:../../tmk_core/protocol/lufa/LUFA-git/LUFA/Drivers/USB/Core/AVR8/../AVR8/Endpoint_AVR8.h **** 			{
 491:../../tmk_core/protocol/lufa/LUFA-git/LUFA/Drivers/USB/Core/AVR8/../AVR8/Endpoint_AVR8.h **** 				UECONX |= (1 << STALLRQ);
 492:../../tmk_core/protocol/lufa/LUFA-git/LUFA/Drivers/USB/Core/AVR8/../AVR8/Endpoint_AVR8.h **** 			}
 493:../../tmk_core/protocol/lufa/LUFA-git/LUFA/Drivers/USB/Core/AVR8/../AVR8/Endpoint_AVR8.h **** 
 494:../../tmk_core/protocol/lufa/LUFA-git/LUFA/Drivers/USB/Core/AVR8/../AVR8/Endpoint_AVR8.h **** 			/** Clears the STALL condition on the currently selected endpoint.
 495:../../tmk_core/protocol/lufa/LUFA-git/LUFA/Drivers/USB/Core/AVR8/../AVR8/Endpoint_AVR8.h **** 			 *
 496:../../tmk_core/protocol/lufa/LUFA-git/LUFA/Drivers/USB/Core/AVR8/../AVR8/Endpoint_AVR8.h **** 			 *  \ingroup Group_EndpointPacketManagement_AVR8
 497:../../tmk_core/protocol/lufa/LUFA-git/LUFA/Drivers/USB/Core/AVR8/../AVR8/Endpoint_AVR8.h **** 			 */
 498:../../tmk_core/protocol/lufa/LUFA-git/LUFA/Drivers/USB/Core/AVR8/../AVR8/Endpoint_AVR8.h **** 			static inline void Endpoint_ClearStall(void) ATTR_ALWAYS_INLINE;
 499:../../tmk_core/protocol/lufa/LUFA-git/LUFA/Drivers/USB/Core/AVR8/../AVR8/Endpoint_AVR8.h **** 			static inline void Endpoint_ClearStall(void)
 500:../../tmk_core/protocol/lufa/LUFA-git/LUFA/Drivers/USB/Core/AVR8/../AVR8/Endpoint_AVR8.h **** 			{
 501:../../tmk_core/protocol/lufa/LUFA-git/LUFA/Drivers/USB/Core/AVR8/../AVR8/Endpoint_AVR8.h **** 				UECONX |= (1 << STALLRQC);
 502:../../tmk_core/protocol/lufa/LUFA-git/LUFA/Drivers/USB/Core/AVR8/../AVR8/Endpoint_AVR8.h **** 			}
 503:../../tmk_core/protocol/lufa/LUFA-git/LUFA/Drivers/USB/Core/AVR8/../AVR8/Endpoint_AVR8.h **** 
 504:../../tmk_core/protocol/lufa/LUFA-git/LUFA/Drivers/USB/Core/AVR8/../AVR8/Endpoint_AVR8.h **** 			/** Determines if the currently selected endpoint is stalled, \c false otherwise.
 505:../../tmk_core/protocol/lufa/LUFA-git/LUFA/Drivers/USB/Core/AVR8/../AVR8/Endpoint_AVR8.h **** 			 *
 506:../../tmk_core/protocol/lufa/LUFA-git/LUFA/Drivers/USB/Core/AVR8/../AVR8/Endpoint_AVR8.h **** 			 *  \ingroup Group_EndpointPacketManagement_AVR8
 507:../../tmk_core/protocol/lufa/LUFA-git/LUFA/Drivers/USB/Core/AVR8/../AVR8/Endpoint_AVR8.h **** 			 *
 508:../../tmk_core/protocol/lufa/LUFA-git/LUFA/Drivers/USB/Core/AVR8/../AVR8/Endpoint_AVR8.h **** 			 *  \return Boolean \c true if the currently selected endpoint is stalled, \c false otherwise.
 509:../../tmk_core/protocol/lufa/LUFA-git/LUFA/Drivers/USB/Core/AVR8/../AVR8/Endpoint_AVR8.h **** 			 */
 510:../../tmk_core/protocol/lufa/LUFA-git/LUFA/Drivers/USB/Core/AVR8/../AVR8/Endpoint_AVR8.h **** 			static inline bool Endpoint_IsStalled(void) ATTR_WARN_UNUSED_RESULT ATTR_ALWAYS_INLINE;
 511:../../tmk_core/protocol/lufa/LUFA-git/LUFA/Drivers/USB/Core/AVR8/../AVR8/Endpoint_AVR8.h **** 			static inline bool Endpoint_IsStalled(void)
 512:../../tmk_core/protocol/lufa/LUFA-git/LUFA/Drivers/USB/Core/AVR8/../AVR8/Endpoint_AVR8.h **** 			{
 513:../../tmk_core/protocol/lufa/LUFA-git/LUFA/Drivers/USB/Core/AVR8/../AVR8/Endpoint_AVR8.h **** 				return ((UECONX & (1 << STALLRQ)) ? true : false);
 514:../../tmk_core/protocol/lufa/LUFA-git/LUFA/Drivers/USB/Core/AVR8/../AVR8/Endpoint_AVR8.h **** 			}
 515:../../tmk_core/protocol/lufa/LUFA-git/LUFA/Drivers/USB/Core/AVR8/../AVR8/Endpoint_AVR8.h **** 
 516:../../tmk_core/protocol/lufa/LUFA-git/LUFA/Drivers/USB/Core/AVR8/../AVR8/Endpoint_AVR8.h **** 			/** Resets the data toggle of the currently selected endpoint. */
 517:../../tmk_core/protocol/lufa/LUFA-git/LUFA/Drivers/USB/Core/AVR8/../AVR8/Endpoint_AVR8.h **** 			static inline void Endpoint_ResetDataToggle(void) ATTR_ALWAYS_INLINE;
 518:../../tmk_core/protocol/lufa/LUFA-git/LUFA/Drivers/USB/Core/AVR8/../AVR8/Endpoint_AVR8.h **** 			static inline void Endpoint_ResetDataToggle(void)
 519:../../tmk_core/protocol/lufa/LUFA-git/LUFA/Drivers/USB/Core/AVR8/../AVR8/Endpoint_AVR8.h **** 			{
 520:../../tmk_core/protocol/lufa/LUFA-git/LUFA/Drivers/USB/Core/AVR8/../AVR8/Endpoint_AVR8.h **** 				UECONX |= (1 << RSTDT);
 521:../../tmk_core/protocol/lufa/LUFA-git/LUFA/Drivers/USB/Core/AVR8/../AVR8/Endpoint_AVR8.h **** 			}
 522:../../tmk_core/protocol/lufa/LUFA-git/LUFA/Drivers/USB/Core/AVR8/../AVR8/Endpoint_AVR8.h **** 
 523:../../tmk_core/protocol/lufa/LUFA-git/LUFA/Drivers/USB/Core/AVR8/../AVR8/Endpoint_AVR8.h **** 			/** Sets the direction of the currently selected endpoint.
 524:../../tmk_core/protocol/lufa/LUFA-git/LUFA/Drivers/USB/Core/AVR8/../AVR8/Endpoint_AVR8.h **** 			 *
 525:../../tmk_core/protocol/lufa/LUFA-git/LUFA/Drivers/USB/Core/AVR8/../AVR8/Endpoint_AVR8.h **** 			 *  \param[in] DirectionMask  New endpoint direction, as a \c ENDPOINT_DIR_* mask.
 526:../../tmk_core/protocol/lufa/LUFA-git/LUFA/Drivers/USB/Core/AVR8/../AVR8/Endpoint_AVR8.h **** 			 */
 527:../../tmk_core/protocol/lufa/LUFA-git/LUFA/Drivers/USB/Core/AVR8/../AVR8/Endpoint_AVR8.h **** 			static inline void Endpoint_SetEndpointDirection(const uint8_t DirectionMask) ATTR_ALWAYS_INLINE
 528:../../tmk_core/protocol/lufa/LUFA-git/LUFA/Drivers/USB/Core/AVR8/../AVR8/Endpoint_AVR8.h **** 			static inline void Endpoint_SetEndpointDirection(const uint8_t DirectionMask)
 529:../../tmk_core/protocol/lufa/LUFA-git/LUFA/Drivers/USB/Core/AVR8/../AVR8/Endpoint_AVR8.h **** 			{
 530:../../tmk_core/protocol/lufa/LUFA-git/LUFA/Drivers/USB/Core/AVR8/../AVR8/Endpoint_AVR8.h **** 				UECFG0X = ((UECFG0X & ~(1 << EPDIR)) | (DirectionMask ? (1 << EPDIR) : 0));
 531:../../tmk_core/protocol/lufa/LUFA-git/LUFA/Drivers/USB/Core/AVR8/../AVR8/Endpoint_AVR8.h **** 			}
 532:../../tmk_core/protocol/lufa/LUFA-git/LUFA/Drivers/USB/Core/AVR8/../AVR8/Endpoint_AVR8.h **** 
 533:../../tmk_core/protocol/lufa/LUFA-git/LUFA/Drivers/USB/Core/AVR8/../AVR8/Endpoint_AVR8.h **** 			/** Reads one byte from the currently selected endpoint's bank, for OUT direction endpoints.
 534:../../tmk_core/protocol/lufa/LUFA-git/LUFA/Drivers/USB/Core/AVR8/../AVR8/Endpoint_AVR8.h **** 			 *
 535:../../tmk_core/protocol/lufa/LUFA-git/LUFA/Drivers/USB/Core/AVR8/../AVR8/Endpoint_AVR8.h **** 			 *  \ingroup Group_EndpointPrimitiveRW_AVR8
 536:../../tmk_core/protocol/lufa/LUFA-git/LUFA/Drivers/USB/Core/AVR8/../AVR8/Endpoint_AVR8.h **** 			 *
 537:../../tmk_core/protocol/lufa/LUFA-git/LUFA/Drivers/USB/Core/AVR8/../AVR8/Endpoint_AVR8.h **** 			 *  \return Next byte in the currently selected endpoint's FIFO buffer.
 538:../../tmk_core/protocol/lufa/LUFA-git/LUFA/Drivers/USB/Core/AVR8/../AVR8/Endpoint_AVR8.h **** 			 */
 539:../../tmk_core/protocol/lufa/LUFA-git/LUFA/Drivers/USB/Core/AVR8/../AVR8/Endpoint_AVR8.h **** 			static inline uint8_t Endpoint_Read_8(void) ATTR_WARN_UNUSED_RESULT ATTR_ALWAYS_INLINE;
 540:../../tmk_core/protocol/lufa/LUFA-git/LUFA/Drivers/USB/Core/AVR8/../AVR8/Endpoint_AVR8.h **** 			static inline uint8_t Endpoint_Read_8(void)
 541:../../tmk_core/protocol/lufa/LUFA-git/LUFA/Drivers/USB/Core/AVR8/../AVR8/Endpoint_AVR8.h **** 			{
 542:../../tmk_core/protocol/lufa/LUFA-git/LUFA/Drivers/USB/Core/AVR8/../AVR8/Endpoint_AVR8.h **** 				return UEDATX;
 543:../../tmk_core/protocol/lufa/LUFA-git/LUFA/Drivers/USB/Core/AVR8/../AVR8/Endpoint_AVR8.h **** 			}
 544:../../tmk_core/protocol/lufa/LUFA-git/LUFA/Drivers/USB/Core/AVR8/../AVR8/Endpoint_AVR8.h **** 
 545:../../tmk_core/protocol/lufa/LUFA-git/LUFA/Drivers/USB/Core/AVR8/../AVR8/Endpoint_AVR8.h **** 			/** Writes one byte to the currently selected endpoint's bank, for IN direction endpoints.
 546:../../tmk_core/protocol/lufa/LUFA-git/LUFA/Drivers/USB/Core/AVR8/../AVR8/Endpoint_AVR8.h **** 			 *
 547:../../tmk_core/protocol/lufa/LUFA-git/LUFA/Drivers/USB/Core/AVR8/../AVR8/Endpoint_AVR8.h **** 			 *  \ingroup Group_EndpointPrimitiveRW_AVR8
 548:../../tmk_core/protocol/lufa/LUFA-git/LUFA/Drivers/USB/Core/AVR8/../AVR8/Endpoint_AVR8.h **** 			 *
 549:../../tmk_core/protocol/lufa/LUFA-git/LUFA/Drivers/USB/Core/AVR8/../AVR8/Endpoint_AVR8.h **** 			 *  \param[in] Data  Data to write into the the currently selected endpoint's FIFO buffer.
 550:../../tmk_core/protocol/lufa/LUFA-git/LUFA/Drivers/USB/Core/AVR8/../AVR8/Endpoint_AVR8.h **** 			 */
 551:../../tmk_core/protocol/lufa/LUFA-git/LUFA/Drivers/USB/Core/AVR8/../AVR8/Endpoint_AVR8.h **** 			static inline void Endpoint_Write_8(const uint8_t Data) ATTR_ALWAYS_INLINE;
 552:../../tmk_core/protocol/lufa/LUFA-git/LUFA/Drivers/USB/Core/AVR8/../AVR8/Endpoint_AVR8.h **** 			static inline void Endpoint_Write_8(const uint8_t Data)
 894               		.loc 2 552 23 is_stmt 1 view .LVU255
 895               	.LBB350:
 553:../../tmk_core/protocol/lufa/LUFA-git/LUFA/Drivers/USB/Core/AVR8/../AVR8/Endpoint_AVR8.h **** 			{
 554:../../tmk_core/protocol/lufa/LUFA-git/LUFA/Drivers/USB/Core/AVR8/../AVR8/Endpoint_AVR8.h **** 				UEDATX = Data;
 896               		.loc 2 554 5 view .LVU256
 897               		.loc 2 554 12 is_stmt 0 view .LVU257
 898 00a6 8093 F100 		sts 241,r24
 899               	.LVL54:
 900               		.loc 2 554 12 view .LVU258
 901               	.LBE350:
 902               	.LBE349:
 145:../../tmk_core/protocol/lufa/lufa.c ****             Endpoint_ClearIN();
 903               		.loc 1 145 9 is_stmt 1 view .LVU259
 904               	.LBB351:
 905               	.LBI351:
 358:../../tmk_core/protocol/lufa/LUFA-git/LUFA/Drivers/USB/Core/AVR8/../AVR8/Endpoint_AVR8.h **** 			{
 906               		.loc 2 358 23 view .LVU260
 907               	.LBB352:
 360:../../tmk_core/protocol/lufa/LUFA-git/LUFA/Drivers/USB/Core/AVR8/../AVR8/Endpoint_AVR8.h **** 			}
 908               		.loc 2 360 5 view .LVU261
 360:../../tmk_core/protocol/lufa/LUFA-git/LUFA/Drivers/USB/Core/AVR8/../AVR8/Endpoint_AVR8.h **** 			}
 909               		.loc 2 360 14 is_stmt 0 view .LVU262
 910 00aa 8091 E800 		lds r24,232
 911               	.LBE352:
 912               	.LBE351:
 145:../../tmk_core/protocol/lufa/lufa.c ****             Endpoint_ClearIN();
 913               		.loc 1 145 12 view .LVU263
 914 00ae 85FD      		sbrc r24,5
 915 00b0 00C0      		rjmp .L58
 916               	.LBB353:
 917               	.LBI353:
 405:../../tmk_core/protocol/lufa/LUFA-git/LUFA/Drivers/USB/Core/AVR8/../AVR8/Endpoint_AVR8.h **** 			{
 918               		.loc 2 405 23 is_stmt 1 view .LVU264
 919               	.LBB354:
 407:../../tmk_core/protocol/lufa/LUFA-git/LUFA/Drivers/USB/Core/AVR8/../AVR8/Endpoint_AVR8.h **** 			}
 920               		.loc 2 407 5 view .LVU265
 407:../../tmk_core/protocol/lufa/LUFA-git/LUFA/Drivers/USB/Core/AVR8/../AVR8/Endpoint_AVR8.h **** 			}
 921               		.loc 2 407 14 is_stmt 0 view .LVU266
 922 00b2 8091 E800 		lds r24,232
 923               	.LBE354:
 924               	.LBE353:
 145:../../tmk_core/protocol/lufa/lufa.c ****             Endpoint_ClearIN();
 925               		.loc 1 145 44 view .LVU267
 926 00b6 80FF      		sbrs r24,0
 927 00b8 00C0      		rjmp .L58
 146:../../tmk_core/protocol/lufa/lufa.c ****         }
 928               		.loc 1 146 13 is_stmt 1 view .LVU268
 929               	.LBB355:
 930               	.LBI355:
 453:../../tmk_core/protocol/lufa/LUFA-git/LUFA/Drivers/USB/Core/AVR8/../AVR8/Endpoint_AVR8.h **** 			{
 931               		.loc 2 453 23 view .LVU269
 932               	.LBB356:
 456:../../tmk_core/protocol/lufa/LUFA-git/LUFA/Drivers/USB/Core/AVR8/../AVR8/Endpoint_AVR8.h **** 				#else
 933               		.loc 2 456 6 view .LVU270
 456:../../tmk_core/protocol/lufa/LUFA-git/LUFA/Drivers/USB/Core/AVR8/../AVR8/Endpoint_AVR8.h **** 				#else
 934               		.loc 2 456 13 is_stmt 0 view .LVU271
 935 00ba 8091 E800 		lds r24,232
 936 00be 8E77      		andi r24,lo8(126)
 937 00c0 8093 E800 		sts 232,r24
 938               	.L58:
 939               	.LVL55:
 456:../../tmk_core/protocol/lufa/LUFA-git/LUFA/Drivers/USB/Core/AVR8/../AVR8/Endpoint_AVR8.h **** 				#else
 940               		.loc 2 456 13 view .LVU272
 941               	.LBE356:
 942               	.LBE355:
 943               	.LBB357:
 944               	.LBI357:
  60:../../tmk_core/common/ringbuf.h **** {
 945               		.loc 4 60 20 is_stmt 1 view .LVU273
 946               	.LBB358:
  62:../../tmk_core/common/ringbuf.h **** }
 947               		.loc 4 62 5 view .LVU274
  62:../../tmk_core/common/ringbuf.h **** }
 948               		.loc 4 62 29 is_stmt 0 view .LVU275
 949 00c4 2091 0000 		lds r18,sendbuf+3
 950               	.LVL56:
  62:../../tmk_core/common/ringbuf.h **** }
 951               		.loc 4 62 29 view .LVU276
 952               	.LBE358:
 953               	.LBE357:
 954               	.LBB359:
 955               	.LBB360:
 360:../../tmk_core/protocol/lufa/LUFA-git/LUFA/Drivers/USB/Core/AVR8/../AVR8/Endpoint_AVR8.h **** 			}
 956               		.loc 2 360 14 view .LVU277
 957 00c8 8091 E800 		lds r24,232
 958               	.LBE360:
 959               	.LBE359:
 141:../../tmk_core/protocol/lufa/lufa.c ****         Endpoint_Write_8(ringbuf_get(&sendbuf));
 960               		.loc 1 141 11 view .LVU278
 961 00cc 3217      		cp r19,r18
 962 00ce 01F0      		breq .L60
 963               	.LBB362:
 964               	.LBI359:
 358:../../tmk_core/protocol/lufa/LUFA-git/LUFA/Drivers/USB/Core/AVR8/../AVR8/Endpoint_AVR8.h **** 			{
 965               		.loc 2 358 23 is_stmt 1 view .LVU279
 966               	.LBB361:
 360:../../tmk_core/protocol/lufa/LUFA-git/LUFA/Drivers/USB/Core/AVR8/../AVR8/Endpoint_AVR8.h **** 			}
 967               		.loc 2 360 5 view .LVU280
 968               	.LBE361:
 969               	.LBE362:
 141:../../tmk_core/protocol/lufa/lufa.c ****         Endpoint_Write_8(ringbuf_get(&sendbuf));
 970               		.loc 1 141 40 is_stmt 0 view .LVU281
 971 00d0 85FD      		sbrc r24,5
 972 00d2 00C0      		rjmp .L61
 973 00d4 00C0      		rjmp .L57
 974               	.L60:
 151:../../tmk_core/protocol/lufa/lufa.c ****         Endpoint_Write_8(c);
 975               		.loc 1 151 5 is_stmt 1 view .LVU282
 976               	.LVL57:
 151:../../tmk_core/protocol/lufa/lufa.c ****         Endpoint_Write_8(c);
 977               		.loc 1 151 5 is_stmt 0 view .LVU283
 978               	.LBE370:
 979               	.LBE373:
  62:../../tmk_core/common/ringbuf.h **** }
 980               		.loc 4 62 5 is_stmt 1 view .LVU284
 981               	.LBB374:
 982               	.LBB371:
 983               	.LBB363:
 984               	.LBI363:
 358:../../tmk_core/protocol/lufa/LUFA-git/LUFA/Drivers/USB/Core/AVR8/../AVR8/Endpoint_AVR8.h **** 			{
 985               		.loc 2 358 23 view .LVU285
 986               	.LBB364:
 360:../../tmk_core/protocol/lufa/LUFA-git/LUFA/Drivers/USB/Core/AVR8/../AVR8/Endpoint_AVR8.h **** 			}
 987               		.loc 2 360 5 view .LVU286
 988               	.LBE364:
 989               	.LBE363:
 151:../../tmk_core/protocol/lufa/lufa.c ****         Endpoint_Write_8(c);
 990               		.loc 1 151 36 is_stmt 0 view .LVU287
 991 00d6 85FF      		sbrs r24,5
 992 00d8 00C0      		rjmp .L57
 152:../../tmk_core/protocol/lufa/lufa.c ****         Endpoint_SelectEndpoint(ep);
 993               		.loc 1 152 9 is_stmt 1 view .LVU288
 994               	.LVL58:
 995               	.LBB365:
 996               	.LBI365:
 552:../../tmk_core/protocol/lufa/LUFA-git/LUFA/Drivers/USB/Core/AVR8/../AVR8/Endpoint_AVR8.h **** 			{
 997               		.loc 2 552 23 view .LVU289
 998               	.LBB366:
 999               		.loc 2 554 5 view .LVU290
 1000               		.loc 2 554 12 is_stmt 0 view .LVU291
 1001 00da C093 F100 		sts 241,r28
 1002               	.LVL59:
 1003               		.loc 2 554 12 view .LVU292
 1004               	.LBE366:
 1005               	.LBE365:
 153:../../tmk_core/protocol/lufa/lufa.c ****         return true;
 1006               		.loc 1 153 9 is_stmt 1 view .LVU293
 1007               	.LBB367:
 1008               	.LBI367:
 267:../../tmk_core/protocol/lufa/LUFA-git/LUFA/Drivers/USB/Core/AVR8/../AVR8/Endpoint_AVR8.h **** 			{
 1009               		.loc 2 267 23 view .LVU294
 1010               	.LBB368:
 270:../../tmk_core/protocol/lufa/LUFA-git/LUFA/Drivers/USB/Core/AVR8/../AVR8/Endpoint_AVR8.h **** 				#endif
 1011               		.loc 2 270 6 view .LVU295
 1012 00de 9F70      		andi r25,lo8(15)
 1013               	.LVL60:
 270:../../tmk_core/protocol/lufa/LUFA-git/LUFA/Drivers/USB/Core/AVR8/../AVR8/Endpoint_AVR8.h **** 				#endif
 1014               		.loc 2 270 12 is_stmt 0 view .LVU296
 1015 00e0 9093 E900 		sts 233,r25
 270:../../tmk_core/protocol/lufa/LUFA-git/LUFA/Drivers/USB/Core/AVR8/../AVR8/Endpoint_AVR8.h **** 				#endif
 1016               		.loc 2 270 12 view .LVU297
 1017               	.LBE368:
 1018               	.LBE367:
 154:../../tmk_core/protocol/lufa/lufa.c ****     }
 1019               		.loc 1 154 9 is_stmt 1 view .LVU298
 1020               	.LVL61:
 1021               	.L68:
 154:../../tmk_core/protocol/lufa/lufa.c ****     }
 1022               		.loc 1 154 9 is_stmt 0 view .LVU299
 1023               	.LBE371:
 1024               	.LBE374:
 601:../../tmk_core/protocol/lufa/lufa.c **** }
 1025               		.loc 1 601 1 view .LVU300
 1026 00e4 80E0      		ldi r24,0
 1027               	/* epilogue start */
 1028 00e6 CF91      		pop r28
 1029               	.LVL62:
 1030               		.loc 1 601 1 view .LVU301
 1031 00e8 0895      		ret
 1032               		.cfi_endproc
 1033               	.LFE127:
 1035               		.section	.text.EVENT_USB_Device_Connect,"ax",@progbits
 1036               	.global	EVENT_USB_Device_Connect
 1038               	EVENT_USB_Device_Connect:
 1039               	.LFB114:
 224:../../tmk_core/protocol/lufa/lufa.c **** #ifdef LUFA_DEBUG
 1040               		.loc 1 224 1 is_stmt 1 view -0
 1041               		.cfi_startproc
 1042               	/* prologue: function */
 1043               	/* frame size = 0 */
 1044               	/* stack size = 0 */
 1045               	.L__stack_usage = 0
 229:../../tmk_core/protocol/lufa/lufa.c ****         USB_Disable();
 1046               		.loc 1 229 5 view .LVU303
 229:../../tmk_core/protocol/lufa/lufa.c ****         USB_Disable();
 1047               		.loc 1 229 9 is_stmt 0 view .LVU304
 1048 0000 8091 0000 		lds r24,USB_IsInitialized
 229:../../tmk_core/protocol/lufa/lufa.c ****         USB_Disable();
 1049               		.loc 1 229 8 view .LVU305
 1050 0004 8111      		cpse r24,__zero_reg__
 1051 0006 00C0      		rjmp .L75
 230:../../tmk_core/protocol/lufa/lufa.c ****         USB_Init();
 1052               		.loc 1 230 9 is_stmt 1 view .LVU306
 1053 0008 0E94 0000 		call USB_Disable
 1054               	.LVL63:
 231:../../tmk_core/protocol/lufa/lufa.c ****         USB_Device_EnableSOFEvents();
 1055               		.loc 1 231 9 view .LVU307
 1056 000c 0E94 0000 		call USB_Init
 1057               	.LVL64:
 232:../../tmk_core/protocol/lufa/lufa.c ****     }
 1058               		.loc 1 232 9 view .LVU308
 1059               	.LBB375:
 1060               	.LBI375:
 1061               		.file 5 "../../tmk_core/protocol/lufa/LUFA-git/LUFA/Drivers/USB/Core/AVR8/../AVR8/Device_AVR8.h"
   1:../../tmk_core/protocol/lufa/LUFA-git/LUFA/Drivers/USB/Core/AVR8/../AVR8/Device_AVR8.h **** /*
   2:../../tmk_core/protocol/lufa/LUFA-git/LUFA/Drivers/USB/Core/AVR8/../AVR8/Device_AVR8.h ****              LUFA Library
   3:../../tmk_core/protocol/lufa/LUFA-git/LUFA/Drivers/USB/Core/AVR8/../AVR8/Device_AVR8.h ****      Copyright (C) Dean Camera, 2014.
   4:../../tmk_core/protocol/lufa/LUFA-git/LUFA/Drivers/USB/Core/AVR8/../AVR8/Device_AVR8.h **** 
   5:../../tmk_core/protocol/lufa/LUFA-git/LUFA/Drivers/USB/Core/AVR8/../AVR8/Device_AVR8.h ****   dean [at] fourwalledcubicle [dot] com
   6:../../tmk_core/protocol/lufa/LUFA-git/LUFA/Drivers/USB/Core/AVR8/../AVR8/Device_AVR8.h ****            www.lufa-lib.org
   7:../../tmk_core/protocol/lufa/LUFA-git/LUFA/Drivers/USB/Core/AVR8/../AVR8/Device_AVR8.h **** */
   8:../../tmk_core/protocol/lufa/LUFA-git/LUFA/Drivers/USB/Core/AVR8/../AVR8/Device_AVR8.h **** 
   9:../../tmk_core/protocol/lufa/LUFA-git/LUFA/Drivers/USB/Core/AVR8/../AVR8/Device_AVR8.h **** /*
  10:../../tmk_core/protocol/lufa/LUFA-git/LUFA/Drivers/USB/Core/AVR8/../AVR8/Device_AVR8.h ****   Copyright 2014  Dean Camera (dean [at] fourwalledcubicle [dot] com)
  11:../../tmk_core/protocol/lufa/LUFA-git/LUFA/Drivers/USB/Core/AVR8/../AVR8/Device_AVR8.h **** 
  12:../../tmk_core/protocol/lufa/LUFA-git/LUFA/Drivers/USB/Core/AVR8/../AVR8/Device_AVR8.h ****   Permission to use, copy, modify, distribute, and sell this
  13:../../tmk_core/protocol/lufa/LUFA-git/LUFA/Drivers/USB/Core/AVR8/../AVR8/Device_AVR8.h ****   software and its documentation for any purpose is hereby granted
  14:../../tmk_core/protocol/lufa/LUFA-git/LUFA/Drivers/USB/Core/AVR8/../AVR8/Device_AVR8.h ****   without fee, provided that the above copyright notice appear in
  15:../../tmk_core/protocol/lufa/LUFA-git/LUFA/Drivers/USB/Core/AVR8/../AVR8/Device_AVR8.h ****   all copies and that both that the copyright notice and this
  16:../../tmk_core/protocol/lufa/LUFA-git/LUFA/Drivers/USB/Core/AVR8/../AVR8/Device_AVR8.h ****   permission notice and warranty disclaimer appear in supporting
  17:../../tmk_core/protocol/lufa/LUFA-git/LUFA/Drivers/USB/Core/AVR8/../AVR8/Device_AVR8.h ****   documentation, and that the name of the author not be used in
  18:../../tmk_core/protocol/lufa/LUFA-git/LUFA/Drivers/USB/Core/AVR8/../AVR8/Device_AVR8.h ****   advertising or publicity pertaining to distribution of the
  19:../../tmk_core/protocol/lufa/LUFA-git/LUFA/Drivers/USB/Core/AVR8/../AVR8/Device_AVR8.h ****   software without specific, written prior permission.
  20:../../tmk_core/protocol/lufa/LUFA-git/LUFA/Drivers/USB/Core/AVR8/../AVR8/Device_AVR8.h **** 
  21:../../tmk_core/protocol/lufa/LUFA-git/LUFA/Drivers/USB/Core/AVR8/../AVR8/Device_AVR8.h ****   The author disclaims all warranties with regard to this
  22:../../tmk_core/protocol/lufa/LUFA-git/LUFA/Drivers/USB/Core/AVR8/../AVR8/Device_AVR8.h ****   software, including all implied warranties of merchantability
  23:../../tmk_core/protocol/lufa/LUFA-git/LUFA/Drivers/USB/Core/AVR8/../AVR8/Device_AVR8.h ****   and fitness.  In no event shall the author be liable for any
  24:../../tmk_core/protocol/lufa/LUFA-git/LUFA/Drivers/USB/Core/AVR8/../AVR8/Device_AVR8.h ****   special, indirect or consequential damages or any damages
  25:../../tmk_core/protocol/lufa/LUFA-git/LUFA/Drivers/USB/Core/AVR8/../AVR8/Device_AVR8.h ****   whatsoever resulting from loss of use, data or profits, whether
  26:../../tmk_core/protocol/lufa/LUFA-git/LUFA/Drivers/USB/Core/AVR8/../AVR8/Device_AVR8.h ****   in an action of contract, negligence or other tortious action,
  27:../../tmk_core/protocol/lufa/LUFA-git/LUFA/Drivers/USB/Core/AVR8/../AVR8/Device_AVR8.h ****   arising out of or in connection with the use or performance of
  28:../../tmk_core/protocol/lufa/LUFA-git/LUFA/Drivers/USB/Core/AVR8/../AVR8/Device_AVR8.h ****   this software.
  29:../../tmk_core/protocol/lufa/LUFA-git/LUFA/Drivers/USB/Core/AVR8/../AVR8/Device_AVR8.h **** */
  30:../../tmk_core/protocol/lufa/LUFA-git/LUFA/Drivers/USB/Core/AVR8/../AVR8/Device_AVR8.h **** 
  31:../../tmk_core/protocol/lufa/LUFA-git/LUFA/Drivers/USB/Core/AVR8/../AVR8/Device_AVR8.h **** /** \file
  32:../../tmk_core/protocol/lufa/LUFA-git/LUFA/Drivers/USB/Core/AVR8/../AVR8/Device_AVR8.h ****  *  \brief USB Device definitions for the AVR8 microcontrollers.
  33:../../tmk_core/protocol/lufa/LUFA-git/LUFA/Drivers/USB/Core/AVR8/../AVR8/Device_AVR8.h ****  *  \copydetails Group_Device_AVR8
  34:../../tmk_core/protocol/lufa/LUFA-git/LUFA/Drivers/USB/Core/AVR8/../AVR8/Device_AVR8.h ****  *
  35:../../tmk_core/protocol/lufa/LUFA-git/LUFA/Drivers/USB/Core/AVR8/../AVR8/Device_AVR8.h ****  *  \note This file should not be included directly. It is automatically included as needed by the 
  36:../../tmk_core/protocol/lufa/LUFA-git/LUFA/Drivers/USB/Core/AVR8/../AVR8/Device_AVR8.h ****  *        dispatch header located in LUFA/Drivers/USB/USB.h.
  37:../../tmk_core/protocol/lufa/LUFA-git/LUFA/Drivers/USB/Core/AVR8/../AVR8/Device_AVR8.h ****  */
  38:../../tmk_core/protocol/lufa/LUFA-git/LUFA/Drivers/USB/Core/AVR8/../AVR8/Device_AVR8.h **** 
  39:../../tmk_core/protocol/lufa/LUFA-git/LUFA/Drivers/USB/Core/AVR8/../AVR8/Device_AVR8.h **** /** \ingroup Group_Device
  40:../../tmk_core/protocol/lufa/LUFA-git/LUFA/Drivers/USB/Core/AVR8/../AVR8/Device_AVR8.h ****  *  \defgroup Group_Device_AVR8 Device Management (AVR8)
  41:../../tmk_core/protocol/lufa/LUFA-git/LUFA/Drivers/USB/Core/AVR8/../AVR8/Device_AVR8.h ****  *  \brief USB Device definitions for the AVR8 microcontrollers.
  42:../../tmk_core/protocol/lufa/LUFA-git/LUFA/Drivers/USB/Core/AVR8/../AVR8/Device_AVR8.h ****  *
  43:../../tmk_core/protocol/lufa/LUFA-git/LUFA/Drivers/USB/Core/AVR8/../AVR8/Device_AVR8.h ****  *  Architecture specific USB Device definitions for the Atmel 8-bit AVR microcontrollers.
  44:../../tmk_core/protocol/lufa/LUFA-git/LUFA/Drivers/USB/Core/AVR8/../AVR8/Device_AVR8.h ****  *
  45:../../tmk_core/protocol/lufa/LUFA-git/LUFA/Drivers/USB/Core/AVR8/../AVR8/Device_AVR8.h ****  *  @{
  46:../../tmk_core/protocol/lufa/LUFA-git/LUFA/Drivers/USB/Core/AVR8/../AVR8/Device_AVR8.h ****  */
  47:../../tmk_core/protocol/lufa/LUFA-git/LUFA/Drivers/USB/Core/AVR8/../AVR8/Device_AVR8.h **** 
  48:../../tmk_core/protocol/lufa/LUFA-git/LUFA/Drivers/USB/Core/AVR8/../AVR8/Device_AVR8.h **** #ifndef __USBDEVICE_AVR8_H__
  49:../../tmk_core/protocol/lufa/LUFA-git/LUFA/Drivers/USB/Core/AVR8/../AVR8/Device_AVR8.h **** #define __USBDEVICE_AVR8_H__
  50:../../tmk_core/protocol/lufa/LUFA-git/LUFA/Drivers/USB/Core/AVR8/../AVR8/Device_AVR8.h **** 
  51:../../tmk_core/protocol/lufa/LUFA-git/LUFA/Drivers/USB/Core/AVR8/../AVR8/Device_AVR8.h **** 	/* Includes: */
  52:../../tmk_core/protocol/lufa/LUFA-git/LUFA/Drivers/USB/Core/AVR8/../AVR8/Device_AVR8.h **** 		#include "../../../../Common/Common.h"
  53:../../tmk_core/protocol/lufa/LUFA-git/LUFA/Drivers/USB/Core/AVR8/../AVR8/Device_AVR8.h **** 		#include "../USBController.h"
  54:../../tmk_core/protocol/lufa/LUFA-git/LUFA/Drivers/USB/Core/AVR8/../AVR8/Device_AVR8.h **** 		#include "../StdDescriptors.h"
  55:../../tmk_core/protocol/lufa/LUFA-git/LUFA/Drivers/USB/Core/AVR8/../AVR8/Device_AVR8.h **** 		#include "../USBInterrupt.h"
  56:../../tmk_core/protocol/lufa/LUFA-git/LUFA/Drivers/USB/Core/AVR8/../AVR8/Device_AVR8.h **** 		#include "../Endpoint.h"
  57:../../tmk_core/protocol/lufa/LUFA-git/LUFA/Drivers/USB/Core/AVR8/../AVR8/Device_AVR8.h **** 
  58:../../tmk_core/protocol/lufa/LUFA-git/LUFA/Drivers/USB/Core/AVR8/../AVR8/Device_AVR8.h **** 	/* Enable C linkage for C++ Compilers: */
  59:../../tmk_core/protocol/lufa/LUFA-git/LUFA/Drivers/USB/Core/AVR8/../AVR8/Device_AVR8.h **** 		#if defined(__cplusplus)
  60:../../tmk_core/protocol/lufa/LUFA-git/LUFA/Drivers/USB/Core/AVR8/../AVR8/Device_AVR8.h **** 			extern "C" {
  61:../../tmk_core/protocol/lufa/LUFA-git/LUFA/Drivers/USB/Core/AVR8/../AVR8/Device_AVR8.h **** 		#endif
  62:../../tmk_core/protocol/lufa/LUFA-git/LUFA/Drivers/USB/Core/AVR8/../AVR8/Device_AVR8.h **** 
  63:../../tmk_core/protocol/lufa/LUFA-git/LUFA/Drivers/USB/Core/AVR8/../AVR8/Device_AVR8.h **** 	/* Preprocessor Checks: */
  64:../../tmk_core/protocol/lufa/LUFA-git/LUFA/Drivers/USB/Core/AVR8/../AVR8/Device_AVR8.h **** 		#if !defined(__INCLUDE_FROM_USB_DRIVER)
  65:../../tmk_core/protocol/lufa/LUFA-git/LUFA/Drivers/USB/Core/AVR8/../AVR8/Device_AVR8.h **** 			#error Do not include this file directly. Include LUFA/Drivers/USB/USB.h instead.
  66:../../tmk_core/protocol/lufa/LUFA-git/LUFA/Drivers/USB/Core/AVR8/../AVR8/Device_AVR8.h **** 		#endif
  67:../../tmk_core/protocol/lufa/LUFA-git/LUFA/Drivers/USB/Core/AVR8/../AVR8/Device_AVR8.h **** 
  68:../../tmk_core/protocol/lufa/LUFA-git/LUFA/Drivers/USB/Core/AVR8/../AVR8/Device_AVR8.h **** 		#if (defined(USE_RAM_DESCRIPTORS) && defined(USE_EEPROM_DESCRIPTORS))
  69:../../tmk_core/protocol/lufa/LUFA-git/LUFA/Drivers/USB/Core/AVR8/../AVR8/Device_AVR8.h **** 			#error USE_RAM_DESCRIPTORS and USE_EEPROM_DESCRIPTORS are mutually exclusive.
  70:../../tmk_core/protocol/lufa/LUFA-git/LUFA/Drivers/USB/Core/AVR8/../AVR8/Device_AVR8.h **** 		#endif
  71:../../tmk_core/protocol/lufa/LUFA-git/LUFA/Drivers/USB/Core/AVR8/../AVR8/Device_AVR8.h **** 
  72:../../tmk_core/protocol/lufa/LUFA-git/LUFA/Drivers/USB/Core/AVR8/../AVR8/Device_AVR8.h **** 		#if (defined(USE_FLASH_DESCRIPTORS) && defined(USE_EEPROM_DESCRIPTORS))
  73:../../tmk_core/protocol/lufa/LUFA-git/LUFA/Drivers/USB/Core/AVR8/../AVR8/Device_AVR8.h **** 			#error USE_FLASH_DESCRIPTORS and USE_EEPROM_DESCRIPTORS are mutually exclusive.
  74:../../tmk_core/protocol/lufa/LUFA-git/LUFA/Drivers/USB/Core/AVR8/../AVR8/Device_AVR8.h **** 		#endif
  75:../../tmk_core/protocol/lufa/LUFA-git/LUFA/Drivers/USB/Core/AVR8/../AVR8/Device_AVR8.h **** 
  76:../../tmk_core/protocol/lufa/LUFA-git/LUFA/Drivers/USB/Core/AVR8/../AVR8/Device_AVR8.h **** 		#if (defined(USE_FLASH_DESCRIPTORS) && defined(USE_RAM_DESCRIPTORS))
  77:../../tmk_core/protocol/lufa/LUFA-git/LUFA/Drivers/USB/Core/AVR8/../AVR8/Device_AVR8.h **** 			#error USE_FLASH_DESCRIPTORS and USE_RAM_DESCRIPTORS are mutually exclusive.
  78:../../tmk_core/protocol/lufa/LUFA-git/LUFA/Drivers/USB/Core/AVR8/../AVR8/Device_AVR8.h **** 		#endif
  79:../../tmk_core/protocol/lufa/LUFA-git/LUFA/Drivers/USB/Core/AVR8/../AVR8/Device_AVR8.h **** 
  80:../../tmk_core/protocol/lufa/LUFA-git/LUFA/Drivers/USB/Core/AVR8/../AVR8/Device_AVR8.h **** 	/* Public Interface - May be used in end-application: */
  81:../../tmk_core/protocol/lufa/LUFA-git/LUFA/Drivers/USB/Core/AVR8/../AVR8/Device_AVR8.h **** 		/* Macros: */
  82:../../tmk_core/protocol/lufa/LUFA-git/LUFA/Drivers/USB/Core/AVR8/../AVR8/Device_AVR8.h **** 			/** \name USB Device Mode Option Masks */
  83:../../tmk_core/protocol/lufa/LUFA-git/LUFA/Drivers/USB/Core/AVR8/../AVR8/Device_AVR8.h **** 			//@{
  84:../../tmk_core/protocol/lufa/LUFA-git/LUFA/Drivers/USB/Core/AVR8/../AVR8/Device_AVR8.h **** 			#if defined(USB_SERIES_4_AVR) || defined(USB_SERIES_6_AVR) || defined(USB_SERIES_7_AVR) || defin
  85:../../tmk_core/protocol/lufa/LUFA-git/LUFA/Drivers/USB/Core/AVR8/../AVR8/Device_AVR8.h **** 				/** Mask for the Options parameter of the \ref USB_Init() function. This indicates that the
  86:../../tmk_core/protocol/lufa/LUFA-git/LUFA/Drivers/USB/Core/AVR8/../AVR8/Device_AVR8.h **** 				 *  USB interface should be initialized in low speed (1.5Mb/s) mode.
  87:../../tmk_core/protocol/lufa/LUFA-git/LUFA/Drivers/USB/Core/AVR8/../AVR8/Device_AVR8.h **** 				 *
  88:../../tmk_core/protocol/lufa/LUFA-git/LUFA/Drivers/USB/Core/AVR8/../AVR8/Device_AVR8.h **** 				 *  \note Low Speed mode is not available on all USB AVR models.
  89:../../tmk_core/protocol/lufa/LUFA-git/LUFA/Drivers/USB/Core/AVR8/../AVR8/Device_AVR8.h **** 				 *        \n
  90:../../tmk_core/protocol/lufa/LUFA-git/LUFA/Drivers/USB/Core/AVR8/../AVR8/Device_AVR8.h **** 				 *
  91:../../tmk_core/protocol/lufa/LUFA-git/LUFA/Drivers/USB/Core/AVR8/../AVR8/Device_AVR8.h **** 				 *  \note Restrictions apply on the number, size and type of endpoints which can be used
  92:../../tmk_core/protocol/lufa/LUFA-git/LUFA/Drivers/USB/Core/AVR8/../AVR8/Device_AVR8.h **** 				 *        when running in low speed mode - please refer to the USB 2.0 specification.
  93:../../tmk_core/protocol/lufa/LUFA-git/LUFA/Drivers/USB/Core/AVR8/../AVR8/Device_AVR8.h **** 				 */
  94:../../tmk_core/protocol/lufa/LUFA-git/LUFA/Drivers/USB/Core/AVR8/../AVR8/Device_AVR8.h **** 				#define USB_DEVICE_OPT_LOWSPEED            (1 << 0)
  95:../../tmk_core/protocol/lufa/LUFA-git/LUFA/Drivers/USB/Core/AVR8/../AVR8/Device_AVR8.h **** 			#endif
  96:../../tmk_core/protocol/lufa/LUFA-git/LUFA/Drivers/USB/Core/AVR8/../AVR8/Device_AVR8.h **** 
  97:../../tmk_core/protocol/lufa/LUFA-git/LUFA/Drivers/USB/Core/AVR8/../AVR8/Device_AVR8.h **** 			/** Mask for the Options parameter of the \ref USB_Init() function. This indicates that the
  98:../../tmk_core/protocol/lufa/LUFA-git/LUFA/Drivers/USB/Core/AVR8/../AVR8/Device_AVR8.h **** 			 *  USB interface should be initialized in full speed (12Mb/s) mode.
  99:../../tmk_core/protocol/lufa/LUFA-git/LUFA/Drivers/USB/Core/AVR8/../AVR8/Device_AVR8.h **** 			 */
 100:../../tmk_core/protocol/lufa/LUFA-git/LUFA/Drivers/USB/Core/AVR8/../AVR8/Device_AVR8.h **** 			#define USB_DEVICE_OPT_FULLSPEED               (0 << 0)
 101:../../tmk_core/protocol/lufa/LUFA-git/LUFA/Drivers/USB/Core/AVR8/../AVR8/Device_AVR8.h **** 			//@}
 102:../../tmk_core/protocol/lufa/LUFA-git/LUFA/Drivers/USB/Core/AVR8/../AVR8/Device_AVR8.h **** 
 103:../../tmk_core/protocol/lufa/LUFA-git/LUFA/Drivers/USB/Core/AVR8/../AVR8/Device_AVR8.h **** 			#if (!defined(NO_INTERNAL_SERIAL) && \
 104:../../tmk_core/protocol/lufa/LUFA-git/LUFA/Drivers/USB/Core/AVR8/../AVR8/Device_AVR8.h **** 			     (defined(USB_SERIES_7_AVR) || defined(USB_SERIES_6_AVR) || \
 105:../../tmk_core/protocol/lufa/LUFA-git/LUFA/Drivers/USB/Core/AVR8/../AVR8/Device_AVR8.h **** 			      defined(USB_SERIES_4_AVR) || defined(USB_SERIES_2_AVR) || \
 106:../../tmk_core/protocol/lufa/LUFA-git/LUFA/Drivers/USB/Core/AVR8/../AVR8/Device_AVR8.h **** 				  defined(__DOXYGEN__)))
 107:../../tmk_core/protocol/lufa/LUFA-git/LUFA/Drivers/USB/Core/AVR8/../AVR8/Device_AVR8.h **** 				/** String descriptor index for the device's unique serial number string descriptor within the 
 108:../../tmk_core/protocol/lufa/LUFA-git/LUFA/Drivers/USB/Core/AVR8/../AVR8/Device_AVR8.h **** 				 *  This unique serial number is used by the host to associate resources to the device (such as
 109:../../tmk_core/protocol/lufa/LUFA-git/LUFA/Drivers/USB/Core/AVR8/../AVR8/Device_AVR8.h **** 				 *  number allocations) to a device regardless of the port it is plugged in to on the host. Som
 110:../../tmk_core/protocol/lufa/LUFA-git/LUFA/Drivers/USB/Core/AVR8/../AVR8/Device_AVR8.h **** 				 *  a unique serial number internally, and setting the device descriptors serial number string 
 111:../../tmk_core/protocol/lufa/LUFA-git/LUFA/Drivers/USB/Core/AVR8/../AVR8/Device_AVR8.h **** 				 *  will cause it to use the internal serial number.
 112:../../tmk_core/protocol/lufa/LUFA-git/LUFA/Drivers/USB/Core/AVR8/../AVR8/Device_AVR8.h **** 				 *
 113:../../tmk_core/protocol/lufa/LUFA-git/LUFA/Drivers/USB/Core/AVR8/../AVR8/Device_AVR8.h **** 				 *  On unsupported devices, this will evaluate to \ref NO_DESCRIPTOR and so will force the host
 114:../../tmk_core/protocol/lufa/LUFA-git/LUFA/Drivers/USB/Core/AVR8/../AVR8/Device_AVR8.h **** 				 *  number for the device.
 115:../../tmk_core/protocol/lufa/LUFA-git/LUFA/Drivers/USB/Core/AVR8/../AVR8/Device_AVR8.h **** 				 */
 116:../../tmk_core/protocol/lufa/LUFA-git/LUFA/Drivers/USB/Core/AVR8/../AVR8/Device_AVR8.h **** 				#define USE_INTERNAL_SERIAL            0xDC
 117:../../tmk_core/protocol/lufa/LUFA-git/LUFA/Drivers/USB/Core/AVR8/../AVR8/Device_AVR8.h **** 
 118:../../tmk_core/protocol/lufa/LUFA-git/LUFA/Drivers/USB/Core/AVR8/../AVR8/Device_AVR8.h **** 				/** Length of the device's unique internal serial number, in bits, if present on the selected m
 119:../../tmk_core/protocol/lufa/LUFA-git/LUFA/Drivers/USB/Core/AVR8/../AVR8/Device_AVR8.h **** 				 *  model.
 120:../../tmk_core/protocol/lufa/LUFA-git/LUFA/Drivers/USB/Core/AVR8/../AVR8/Device_AVR8.h **** 				 */
 121:../../tmk_core/protocol/lufa/LUFA-git/LUFA/Drivers/USB/Core/AVR8/../AVR8/Device_AVR8.h **** 				#define INTERNAL_SERIAL_LENGTH_BITS    80
 122:../../tmk_core/protocol/lufa/LUFA-git/LUFA/Drivers/USB/Core/AVR8/../AVR8/Device_AVR8.h **** 
 123:../../tmk_core/protocol/lufa/LUFA-git/LUFA/Drivers/USB/Core/AVR8/../AVR8/Device_AVR8.h **** 				/** Start address of the internal serial number, in the appropriate address space, if present o
 124:../../tmk_core/protocol/lufa/LUFA-git/LUFA/Drivers/USB/Core/AVR8/../AVR8/Device_AVR8.h **** 				 *  model.
 125:../../tmk_core/protocol/lufa/LUFA-git/LUFA/Drivers/USB/Core/AVR8/../AVR8/Device_AVR8.h **** 				 */
 126:../../tmk_core/protocol/lufa/LUFA-git/LUFA/Drivers/USB/Core/AVR8/../AVR8/Device_AVR8.h **** 				#define INTERNAL_SERIAL_START_ADDRESS  0x0E
 127:../../tmk_core/protocol/lufa/LUFA-git/LUFA/Drivers/USB/Core/AVR8/../AVR8/Device_AVR8.h **** 			#else
 128:../../tmk_core/protocol/lufa/LUFA-git/LUFA/Drivers/USB/Core/AVR8/../AVR8/Device_AVR8.h **** 				#define USE_INTERNAL_SERIAL            NO_DESCRIPTOR
 129:../../tmk_core/protocol/lufa/LUFA-git/LUFA/Drivers/USB/Core/AVR8/../AVR8/Device_AVR8.h **** 
 130:../../tmk_core/protocol/lufa/LUFA-git/LUFA/Drivers/USB/Core/AVR8/../AVR8/Device_AVR8.h **** 				#define INTERNAL_SERIAL_LENGTH_BITS    0
 131:../../tmk_core/protocol/lufa/LUFA-git/LUFA/Drivers/USB/Core/AVR8/../AVR8/Device_AVR8.h **** 				#define INTERNAL_SERIAL_START_ADDRESS  0
 132:../../tmk_core/protocol/lufa/LUFA-git/LUFA/Drivers/USB/Core/AVR8/../AVR8/Device_AVR8.h **** 			#endif
 133:../../tmk_core/protocol/lufa/LUFA-git/LUFA/Drivers/USB/Core/AVR8/../AVR8/Device_AVR8.h **** 
 134:../../tmk_core/protocol/lufa/LUFA-git/LUFA/Drivers/USB/Core/AVR8/../AVR8/Device_AVR8.h **** 		/* Function Prototypes: */
 135:../../tmk_core/protocol/lufa/LUFA-git/LUFA/Drivers/USB/Core/AVR8/../AVR8/Device_AVR8.h **** 			/** Sends a Remote Wakeup request to the host. This signals to the host that the device should
 136:../../tmk_core/protocol/lufa/LUFA-git/LUFA/Drivers/USB/Core/AVR8/../AVR8/Device_AVR8.h **** 			 *  be taken out of suspended mode, and communications should resume.
 137:../../tmk_core/protocol/lufa/LUFA-git/LUFA/Drivers/USB/Core/AVR8/../AVR8/Device_AVR8.h **** 			 *
 138:../../tmk_core/protocol/lufa/LUFA-git/LUFA/Drivers/USB/Core/AVR8/../AVR8/Device_AVR8.h **** 			 *  Typically, this is implemented so that HID devices (mice, keyboards, etc.) can wake up the
 139:../../tmk_core/protocol/lufa/LUFA-git/LUFA/Drivers/USB/Core/AVR8/../AVR8/Device_AVR8.h **** 			 *  host computer when the host has suspended all USB devices to enter a low power state.
 140:../../tmk_core/protocol/lufa/LUFA-git/LUFA/Drivers/USB/Core/AVR8/../AVR8/Device_AVR8.h **** 			 *
 141:../../tmk_core/protocol/lufa/LUFA-git/LUFA/Drivers/USB/Core/AVR8/../AVR8/Device_AVR8.h **** 			 *  \attention This function should only be used if the device has indicated to the host that it
 142:../../tmk_core/protocol/lufa/LUFA-git/LUFA/Drivers/USB/Core/AVR8/../AVR8/Device_AVR8.h **** 			 *             supports the Remote Wakeup feature in the device descriptors, and should only be
 143:../../tmk_core/protocol/lufa/LUFA-git/LUFA/Drivers/USB/Core/AVR8/../AVR8/Device_AVR8.h **** 			 *             issued if the host is currently allowing remote wakeup events from the device (i.
 144:../../tmk_core/protocol/lufa/LUFA-git/LUFA/Drivers/USB/Core/AVR8/../AVR8/Device_AVR8.h **** 			 *             the \ref USB_Device_RemoteWakeupEnabled flag is set). When the \c NO_DEVICE_REMOT
 145:../../tmk_core/protocol/lufa/LUFA-git/LUFA/Drivers/USB/Core/AVR8/../AVR8/Device_AVR8.h **** 			 *             compile time option is used, this function is unavailable.
 146:../../tmk_core/protocol/lufa/LUFA-git/LUFA/Drivers/USB/Core/AVR8/../AVR8/Device_AVR8.h **** 			 *             \n\n
 147:../../tmk_core/protocol/lufa/LUFA-git/LUFA/Drivers/USB/Core/AVR8/../AVR8/Device_AVR8.h **** 			 *
 148:../../tmk_core/protocol/lufa/LUFA-git/LUFA/Drivers/USB/Core/AVR8/../AVR8/Device_AVR8.h **** 			 *  \attention The USB clock must be running for this function to operate. If the stack is initi
 149:../../tmk_core/protocol/lufa/LUFA-git/LUFA/Drivers/USB/Core/AVR8/../AVR8/Device_AVR8.h **** 			 *             the \ref USB_OPT_MANUAL_PLL option enabled, the user must ensure that the PLL is 
 150:../../tmk_core/protocol/lufa/LUFA-git/LUFA/Drivers/USB/Core/AVR8/../AVR8/Device_AVR8.h **** 			 *             before attempting to call this function.
 151:../../tmk_core/protocol/lufa/LUFA-git/LUFA/Drivers/USB/Core/AVR8/../AVR8/Device_AVR8.h **** 			 *
 152:../../tmk_core/protocol/lufa/LUFA-git/LUFA/Drivers/USB/Core/AVR8/../AVR8/Device_AVR8.h **** 			 *  \see \ref Group_StdDescriptors for more information on the RMWAKEUP feature and device descr
 153:../../tmk_core/protocol/lufa/LUFA-git/LUFA/Drivers/USB/Core/AVR8/../AVR8/Device_AVR8.h **** 			 */
 154:../../tmk_core/protocol/lufa/LUFA-git/LUFA/Drivers/USB/Core/AVR8/../AVR8/Device_AVR8.h **** 			void USB_Device_SendRemoteWakeup(void);
 155:../../tmk_core/protocol/lufa/LUFA-git/LUFA/Drivers/USB/Core/AVR8/../AVR8/Device_AVR8.h **** 
 156:../../tmk_core/protocol/lufa/LUFA-git/LUFA/Drivers/USB/Core/AVR8/../AVR8/Device_AVR8.h **** 		/* Inline Functions: */
 157:../../tmk_core/protocol/lufa/LUFA-git/LUFA/Drivers/USB/Core/AVR8/../AVR8/Device_AVR8.h **** 			/** Returns the current USB frame number, when in device mode. Every millisecond the USB bus is 
 158:../../tmk_core/protocol/lufa/LUFA-git/LUFA/Drivers/USB/Core/AVR8/../AVR8/Device_AVR8.h **** 			 *  the frame number is incremented by one.
 159:../../tmk_core/protocol/lufa/LUFA-git/LUFA/Drivers/USB/Core/AVR8/../AVR8/Device_AVR8.h **** 			 *
 160:../../tmk_core/protocol/lufa/LUFA-git/LUFA/Drivers/USB/Core/AVR8/../AVR8/Device_AVR8.h **** 			 *  \return Current USB frame number from the USB controller.
 161:../../tmk_core/protocol/lufa/LUFA-git/LUFA/Drivers/USB/Core/AVR8/../AVR8/Device_AVR8.h **** 			 */
 162:../../tmk_core/protocol/lufa/LUFA-git/LUFA/Drivers/USB/Core/AVR8/../AVR8/Device_AVR8.h **** 			static inline uint16_t USB_Device_GetFrameNumber(void) ATTR_ALWAYS_INLINE ATTR_WARN_UNUSED_RESUL
 163:../../tmk_core/protocol/lufa/LUFA-git/LUFA/Drivers/USB/Core/AVR8/../AVR8/Device_AVR8.h **** 			static inline uint16_t USB_Device_GetFrameNumber(void)
 164:../../tmk_core/protocol/lufa/LUFA-git/LUFA/Drivers/USB/Core/AVR8/../AVR8/Device_AVR8.h **** 			{
 165:../../tmk_core/protocol/lufa/LUFA-git/LUFA/Drivers/USB/Core/AVR8/../AVR8/Device_AVR8.h **** 				return UDFNUM;
 166:../../tmk_core/protocol/lufa/LUFA-git/LUFA/Drivers/USB/Core/AVR8/../AVR8/Device_AVR8.h **** 			}
 167:../../tmk_core/protocol/lufa/LUFA-git/LUFA/Drivers/USB/Core/AVR8/../AVR8/Device_AVR8.h **** 
 168:../../tmk_core/protocol/lufa/LUFA-git/LUFA/Drivers/USB/Core/AVR8/../AVR8/Device_AVR8.h **** 			#if !defined(NO_SOF_EVENTS)
 169:../../tmk_core/protocol/lufa/LUFA-git/LUFA/Drivers/USB/Core/AVR8/../AVR8/Device_AVR8.h **** 				/** Enables the device mode Start Of Frame events. When enabled, this causes the
 170:../../tmk_core/protocol/lufa/LUFA-git/LUFA/Drivers/USB/Core/AVR8/../AVR8/Device_AVR8.h **** 				 *  \ref EVENT_USB_Device_StartOfFrame() event to fire once per millisecond, synchronized to th
 171:../../tmk_core/protocol/lufa/LUFA-git/LUFA/Drivers/USB/Core/AVR8/../AVR8/Device_AVR8.h **** 				 *  at the start of each USB frame when enumerated in device mode.
 172:../../tmk_core/protocol/lufa/LUFA-git/LUFA/Drivers/USB/Core/AVR8/../AVR8/Device_AVR8.h **** 				 *
 173:../../tmk_core/protocol/lufa/LUFA-git/LUFA/Drivers/USB/Core/AVR8/../AVR8/Device_AVR8.h **** 				 *  \note This function is not available when the \c NO_SOF_EVENTS compile time token is define
 174:../../tmk_core/protocol/lufa/LUFA-git/LUFA/Drivers/USB/Core/AVR8/../AVR8/Device_AVR8.h **** 				 */
 175:../../tmk_core/protocol/lufa/LUFA-git/LUFA/Drivers/USB/Core/AVR8/../AVR8/Device_AVR8.h **** 				static inline void USB_Device_EnableSOFEvents(void) ATTR_ALWAYS_INLINE;
 176:../../tmk_core/protocol/lufa/LUFA-git/LUFA/Drivers/USB/Core/AVR8/../AVR8/Device_AVR8.h **** 				static inline void USB_Device_EnableSOFEvents(void)
 1062               		.loc 5 176 24 view .LVU309
 1063               	.LBB376:
 177:../../tmk_core/protocol/lufa/LUFA-git/LUFA/Drivers/USB/Core/AVR8/../AVR8/Device_AVR8.h **** 				{
 178:../../tmk_core/protocol/lufa/LUFA-git/LUFA/Drivers/USB/Core/AVR8/../AVR8/Device_AVR8.h **** 					USB_INT_Enable(USB_INT_SOFI);
 1064               		.loc 5 178 6 view .LVU310
 1065               	.LBB377:
 1066               	.LBI377:
 1067               		.file 6 "../../tmk_core/protocol/lufa/LUFA-git/LUFA/Drivers/USB/Core/AVR8/../AVR8/USBInterrupt_AVR
   1:../../tmk_core/protocol/lufa/LUFA-git/LUFA/Drivers/USB/Core/AVR8/../AVR8/USBInterrupt_AVR8.h **** /*
   2:../../tmk_core/protocol/lufa/LUFA-git/LUFA/Drivers/USB/Core/AVR8/../AVR8/USBInterrupt_AVR8.h ****              LUFA Library
   3:../../tmk_core/protocol/lufa/LUFA-git/LUFA/Drivers/USB/Core/AVR8/../AVR8/USBInterrupt_AVR8.h ****      Copyright (C) Dean Camera, 2014.
   4:../../tmk_core/protocol/lufa/LUFA-git/LUFA/Drivers/USB/Core/AVR8/../AVR8/USBInterrupt_AVR8.h **** 
   5:../../tmk_core/protocol/lufa/LUFA-git/LUFA/Drivers/USB/Core/AVR8/../AVR8/USBInterrupt_AVR8.h ****   dean [at] fourwalledcubicle [dot] com
   6:../../tmk_core/protocol/lufa/LUFA-git/LUFA/Drivers/USB/Core/AVR8/../AVR8/USBInterrupt_AVR8.h ****            www.lufa-lib.org
   7:../../tmk_core/protocol/lufa/LUFA-git/LUFA/Drivers/USB/Core/AVR8/../AVR8/USBInterrupt_AVR8.h **** */
   8:../../tmk_core/protocol/lufa/LUFA-git/LUFA/Drivers/USB/Core/AVR8/../AVR8/USBInterrupt_AVR8.h **** 
   9:../../tmk_core/protocol/lufa/LUFA-git/LUFA/Drivers/USB/Core/AVR8/../AVR8/USBInterrupt_AVR8.h **** /*
  10:../../tmk_core/protocol/lufa/LUFA-git/LUFA/Drivers/USB/Core/AVR8/../AVR8/USBInterrupt_AVR8.h ****   Copyright 2014  Dean Camera (dean [at] fourwalledcubicle [dot] com)
  11:../../tmk_core/protocol/lufa/LUFA-git/LUFA/Drivers/USB/Core/AVR8/../AVR8/USBInterrupt_AVR8.h **** 
  12:../../tmk_core/protocol/lufa/LUFA-git/LUFA/Drivers/USB/Core/AVR8/../AVR8/USBInterrupt_AVR8.h ****   Permission to use, copy, modify, distribute, and sell this
  13:../../tmk_core/protocol/lufa/LUFA-git/LUFA/Drivers/USB/Core/AVR8/../AVR8/USBInterrupt_AVR8.h ****   software and its documentation for any purpose is hereby granted
  14:../../tmk_core/protocol/lufa/LUFA-git/LUFA/Drivers/USB/Core/AVR8/../AVR8/USBInterrupt_AVR8.h ****   without fee, provided that the above copyright notice appear in
  15:../../tmk_core/protocol/lufa/LUFA-git/LUFA/Drivers/USB/Core/AVR8/../AVR8/USBInterrupt_AVR8.h ****   all copies and that both that the copyright notice and this
  16:../../tmk_core/protocol/lufa/LUFA-git/LUFA/Drivers/USB/Core/AVR8/../AVR8/USBInterrupt_AVR8.h ****   permission notice and warranty disclaimer appear in supporting
  17:../../tmk_core/protocol/lufa/LUFA-git/LUFA/Drivers/USB/Core/AVR8/../AVR8/USBInterrupt_AVR8.h ****   documentation, and that the name of the author not be used in
  18:../../tmk_core/protocol/lufa/LUFA-git/LUFA/Drivers/USB/Core/AVR8/../AVR8/USBInterrupt_AVR8.h ****   advertising or publicity pertaining to distribution of the
  19:../../tmk_core/protocol/lufa/LUFA-git/LUFA/Drivers/USB/Core/AVR8/../AVR8/USBInterrupt_AVR8.h ****   software without specific, written prior permission.
  20:../../tmk_core/protocol/lufa/LUFA-git/LUFA/Drivers/USB/Core/AVR8/../AVR8/USBInterrupt_AVR8.h **** 
  21:../../tmk_core/protocol/lufa/LUFA-git/LUFA/Drivers/USB/Core/AVR8/../AVR8/USBInterrupt_AVR8.h ****   The author disclaims all warranties with regard to this
  22:../../tmk_core/protocol/lufa/LUFA-git/LUFA/Drivers/USB/Core/AVR8/../AVR8/USBInterrupt_AVR8.h ****   software, including all implied warranties of merchantability
  23:../../tmk_core/protocol/lufa/LUFA-git/LUFA/Drivers/USB/Core/AVR8/../AVR8/USBInterrupt_AVR8.h ****   and fitness.  In no event shall the author be liable for any
  24:../../tmk_core/protocol/lufa/LUFA-git/LUFA/Drivers/USB/Core/AVR8/../AVR8/USBInterrupt_AVR8.h ****   special, indirect or consequential damages or any damages
  25:../../tmk_core/protocol/lufa/LUFA-git/LUFA/Drivers/USB/Core/AVR8/../AVR8/USBInterrupt_AVR8.h ****   whatsoever resulting from loss of use, data or profits, whether
  26:../../tmk_core/protocol/lufa/LUFA-git/LUFA/Drivers/USB/Core/AVR8/../AVR8/USBInterrupt_AVR8.h ****   in an action of contract, negligence or other tortious action,
  27:../../tmk_core/protocol/lufa/LUFA-git/LUFA/Drivers/USB/Core/AVR8/../AVR8/USBInterrupt_AVR8.h ****   arising out of or in connection with the use or performance of
  28:../../tmk_core/protocol/lufa/LUFA-git/LUFA/Drivers/USB/Core/AVR8/../AVR8/USBInterrupt_AVR8.h ****   this software.
  29:../../tmk_core/protocol/lufa/LUFA-git/LUFA/Drivers/USB/Core/AVR8/../AVR8/USBInterrupt_AVR8.h **** */
  30:../../tmk_core/protocol/lufa/LUFA-git/LUFA/Drivers/USB/Core/AVR8/../AVR8/USBInterrupt_AVR8.h **** 
  31:../../tmk_core/protocol/lufa/LUFA-git/LUFA/Drivers/USB/Core/AVR8/../AVR8/USBInterrupt_AVR8.h **** /** \file
  32:../../tmk_core/protocol/lufa/LUFA-git/LUFA/Drivers/USB/Core/AVR8/../AVR8/USBInterrupt_AVR8.h ****  *  \brief USB Controller Interrupt definitions for the AVR8 microcontrollers.
  33:../../tmk_core/protocol/lufa/LUFA-git/LUFA/Drivers/USB/Core/AVR8/../AVR8/USBInterrupt_AVR8.h ****  *
  34:../../tmk_core/protocol/lufa/LUFA-git/LUFA/Drivers/USB/Core/AVR8/../AVR8/USBInterrupt_AVR8.h ****  *  This file contains definitions required for the correct handling of low level USB service routi
  35:../../tmk_core/protocol/lufa/LUFA-git/LUFA/Drivers/USB/Core/AVR8/../AVR8/USBInterrupt_AVR8.h ****  *  from the USB controller.
  36:../../tmk_core/protocol/lufa/LUFA-git/LUFA/Drivers/USB/Core/AVR8/../AVR8/USBInterrupt_AVR8.h ****  *
  37:../../tmk_core/protocol/lufa/LUFA-git/LUFA/Drivers/USB/Core/AVR8/../AVR8/USBInterrupt_AVR8.h ****  *  \note This file should not be included directly. It is automatically included as needed by the 
  38:../../tmk_core/protocol/lufa/LUFA-git/LUFA/Drivers/USB/Core/AVR8/../AVR8/USBInterrupt_AVR8.h ****  *        dispatch header located in LUFA/Drivers/USB/USB.h.
  39:../../tmk_core/protocol/lufa/LUFA-git/LUFA/Drivers/USB/Core/AVR8/../AVR8/USBInterrupt_AVR8.h ****  */
  40:../../tmk_core/protocol/lufa/LUFA-git/LUFA/Drivers/USB/Core/AVR8/../AVR8/USBInterrupt_AVR8.h **** 
  41:../../tmk_core/protocol/lufa/LUFA-git/LUFA/Drivers/USB/Core/AVR8/../AVR8/USBInterrupt_AVR8.h **** #ifndef __USBINTERRUPT_AVR8_H__
  42:../../tmk_core/protocol/lufa/LUFA-git/LUFA/Drivers/USB/Core/AVR8/../AVR8/USBInterrupt_AVR8.h **** #define __USBINTERRUPT_AVR8_H__
  43:../../tmk_core/protocol/lufa/LUFA-git/LUFA/Drivers/USB/Core/AVR8/../AVR8/USBInterrupt_AVR8.h **** 
  44:../../tmk_core/protocol/lufa/LUFA-git/LUFA/Drivers/USB/Core/AVR8/../AVR8/USBInterrupt_AVR8.h **** 	/* Includes: */
  45:../../tmk_core/protocol/lufa/LUFA-git/LUFA/Drivers/USB/Core/AVR8/../AVR8/USBInterrupt_AVR8.h **** 		#include "../../../../Common/Common.h"
  46:../../tmk_core/protocol/lufa/LUFA-git/LUFA/Drivers/USB/Core/AVR8/../AVR8/USBInterrupt_AVR8.h **** 
  47:../../tmk_core/protocol/lufa/LUFA-git/LUFA/Drivers/USB/Core/AVR8/../AVR8/USBInterrupt_AVR8.h **** 	/* Enable C linkage for C++ Compilers: */
  48:../../tmk_core/protocol/lufa/LUFA-git/LUFA/Drivers/USB/Core/AVR8/../AVR8/USBInterrupt_AVR8.h **** 		#if defined(__cplusplus)
  49:../../tmk_core/protocol/lufa/LUFA-git/LUFA/Drivers/USB/Core/AVR8/../AVR8/USBInterrupt_AVR8.h **** 			extern "C" {
  50:../../tmk_core/protocol/lufa/LUFA-git/LUFA/Drivers/USB/Core/AVR8/../AVR8/USBInterrupt_AVR8.h **** 		#endif
  51:../../tmk_core/protocol/lufa/LUFA-git/LUFA/Drivers/USB/Core/AVR8/../AVR8/USBInterrupt_AVR8.h **** 
  52:../../tmk_core/protocol/lufa/LUFA-git/LUFA/Drivers/USB/Core/AVR8/../AVR8/USBInterrupt_AVR8.h **** 	/* Preprocessor Checks: */
  53:../../tmk_core/protocol/lufa/LUFA-git/LUFA/Drivers/USB/Core/AVR8/../AVR8/USBInterrupt_AVR8.h **** 		#if !defined(__INCLUDE_FROM_USB_DRIVER)
  54:../../tmk_core/protocol/lufa/LUFA-git/LUFA/Drivers/USB/Core/AVR8/../AVR8/USBInterrupt_AVR8.h **** 			#error Do not include this file directly. Include LUFA/Drivers/USB/USB.h instead.
  55:../../tmk_core/protocol/lufa/LUFA-git/LUFA/Drivers/USB/Core/AVR8/../AVR8/USBInterrupt_AVR8.h **** 		#endif
  56:../../tmk_core/protocol/lufa/LUFA-git/LUFA/Drivers/USB/Core/AVR8/../AVR8/USBInterrupt_AVR8.h **** 
  57:../../tmk_core/protocol/lufa/LUFA-git/LUFA/Drivers/USB/Core/AVR8/../AVR8/USBInterrupt_AVR8.h **** 	/* Private Interface - For use in library only: */
  58:../../tmk_core/protocol/lufa/LUFA-git/LUFA/Drivers/USB/Core/AVR8/../AVR8/USBInterrupt_AVR8.h **** 	#if !defined(__DOXYGEN__)
  59:../../tmk_core/protocol/lufa/LUFA-git/LUFA/Drivers/USB/Core/AVR8/../AVR8/USBInterrupt_AVR8.h **** 		/* Enums: */
  60:../../tmk_core/protocol/lufa/LUFA-git/LUFA/Drivers/USB/Core/AVR8/../AVR8/USBInterrupt_AVR8.h **** 			enum USB_Interrupts_t
  61:../../tmk_core/protocol/lufa/LUFA-git/LUFA/Drivers/USB/Core/AVR8/../AVR8/USBInterrupt_AVR8.h **** 			{
  62:../../tmk_core/protocol/lufa/LUFA-git/LUFA/Drivers/USB/Core/AVR8/../AVR8/USBInterrupt_AVR8.h **** 				#if (defined(USB_SERIES_4_AVR) || defined(USB_SERIES_6_AVR) || defined(USB_SERIES_7_AVR) || def
  63:../../tmk_core/protocol/lufa/LUFA-git/LUFA/Drivers/USB/Core/AVR8/../AVR8/USBInterrupt_AVR8.h **** 				USB_INT_VBUSTI  = 0,
  64:../../tmk_core/protocol/lufa/LUFA-git/LUFA/Drivers/USB/Core/AVR8/../AVR8/USBInterrupt_AVR8.h **** 				#endif
  65:../../tmk_core/protocol/lufa/LUFA-git/LUFA/Drivers/USB/Core/AVR8/../AVR8/USBInterrupt_AVR8.h **** 				#if (defined(USB_CAN_BE_BOTH) || defined(__DOXYGEN__))
  66:../../tmk_core/protocol/lufa/LUFA-git/LUFA/Drivers/USB/Core/AVR8/../AVR8/USBInterrupt_AVR8.h **** 				USB_INT_IDTI    = 1,
  67:../../tmk_core/protocol/lufa/LUFA-git/LUFA/Drivers/USB/Core/AVR8/../AVR8/USBInterrupt_AVR8.h **** 				#endif
  68:../../tmk_core/protocol/lufa/LUFA-git/LUFA/Drivers/USB/Core/AVR8/../AVR8/USBInterrupt_AVR8.h **** 				#if (defined(USB_CAN_BE_DEVICE) || defined(__DOXYGEN__))
  69:../../tmk_core/protocol/lufa/LUFA-git/LUFA/Drivers/USB/Core/AVR8/../AVR8/USBInterrupt_AVR8.h **** 				USB_INT_WAKEUPI = 2,
  70:../../tmk_core/protocol/lufa/LUFA-git/LUFA/Drivers/USB/Core/AVR8/../AVR8/USBInterrupt_AVR8.h **** 				USB_INT_SUSPI   = 3,
  71:../../tmk_core/protocol/lufa/LUFA-git/LUFA/Drivers/USB/Core/AVR8/../AVR8/USBInterrupt_AVR8.h **** 				USB_INT_EORSTI  = 4,
  72:../../tmk_core/protocol/lufa/LUFA-git/LUFA/Drivers/USB/Core/AVR8/../AVR8/USBInterrupt_AVR8.h **** 				USB_INT_SOFI    = 5,
  73:../../tmk_core/protocol/lufa/LUFA-git/LUFA/Drivers/USB/Core/AVR8/../AVR8/USBInterrupt_AVR8.h **** 				USB_INT_RXSTPI  = 6,
  74:../../tmk_core/protocol/lufa/LUFA-git/LUFA/Drivers/USB/Core/AVR8/../AVR8/USBInterrupt_AVR8.h **** 				#endif
  75:../../tmk_core/protocol/lufa/LUFA-git/LUFA/Drivers/USB/Core/AVR8/../AVR8/USBInterrupt_AVR8.h **** 				#if (defined(USB_CAN_BE_HOST) || defined(__DOXYGEN__))
  76:../../tmk_core/protocol/lufa/LUFA-git/LUFA/Drivers/USB/Core/AVR8/../AVR8/USBInterrupt_AVR8.h **** 				USB_INT_HSOFI   = 7,
  77:../../tmk_core/protocol/lufa/LUFA-git/LUFA/Drivers/USB/Core/AVR8/../AVR8/USBInterrupt_AVR8.h **** 				USB_INT_DCONNI  = 8,
  78:../../tmk_core/protocol/lufa/LUFA-git/LUFA/Drivers/USB/Core/AVR8/../AVR8/USBInterrupt_AVR8.h **** 				USB_INT_DDISCI  = 9,
  79:../../tmk_core/protocol/lufa/LUFA-git/LUFA/Drivers/USB/Core/AVR8/../AVR8/USBInterrupt_AVR8.h **** 				USB_INT_RSTI    = 10,
  80:../../tmk_core/protocol/lufa/LUFA-git/LUFA/Drivers/USB/Core/AVR8/../AVR8/USBInterrupt_AVR8.h **** 				USB_INT_BCERRI  = 11,
  81:../../tmk_core/protocol/lufa/LUFA-git/LUFA/Drivers/USB/Core/AVR8/../AVR8/USBInterrupt_AVR8.h **** 				USB_INT_VBERRI  = 12,
  82:../../tmk_core/protocol/lufa/LUFA-git/LUFA/Drivers/USB/Core/AVR8/../AVR8/USBInterrupt_AVR8.h **** 				USB_INT_SRPI    = 13,
  83:../../tmk_core/protocol/lufa/LUFA-git/LUFA/Drivers/USB/Core/AVR8/../AVR8/USBInterrupt_AVR8.h **** 				#endif
  84:../../tmk_core/protocol/lufa/LUFA-git/LUFA/Drivers/USB/Core/AVR8/../AVR8/USBInterrupt_AVR8.h **** 			};
  85:../../tmk_core/protocol/lufa/LUFA-git/LUFA/Drivers/USB/Core/AVR8/../AVR8/USBInterrupt_AVR8.h **** 
  86:../../tmk_core/protocol/lufa/LUFA-git/LUFA/Drivers/USB/Core/AVR8/../AVR8/USBInterrupt_AVR8.h **** 		/* Inline Functions: */
  87:../../tmk_core/protocol/lufa/LUFA-git/LUFA/Drivers/USB/Core/AVR8/../AVR8/USBInterrupt_AVR8.h **** 			static inline void USB_INT_Enable(const uint8_t Interrupt) ATTR_ALWAYS_INLINE;
  88:../../tmk_core/protocol/lufa/LUFA-git/LUFA/Drivers/USB/Core/AVR8/../AVR8/USBInterrupt_AVR8.h **** 			static inline void USB_INT_Enable(const uint8_t Interrupt)
 1068               		.loc 6 88 23 view .LVU311
 1069               	.LBB378:
  89:../../tmk_core/protocol/lufa/LUFA-git/LUFA/Drivers/USB/Core/AVR8/../AVR8/USBInterrupt_AVR8.h **** 			{
  90:../../tmk_core/protocol/lufa/LUFA-git/LUFA/Drivers/USB/Core/AVR8/../AVR8/USBInterrupt_AVR8.h **** 				switch (Interrupt)
 1070               		.loc 6 90 5 view .LVU312
  91:../../tmk_core/protocol/lufa/LUFA-git/LUFA/Drivers/USB/Core/AVR8/../AVR8/USBInterrupt_AVR8.h **** 				{
  92:../../tmk_core/protocol/lufa/LUFA-git/LUFA/Drivers/USB/Core/AVR8/../AVR8/USBInterrupt_AVR8.h **** 					#if (defined(USB_SERIES_4_AVR) || defined(USB_SERIES_6_AVR) || defined(USB_SERIES_7_AVR))
  93:../../tmk_core/protocol/lufa/LUFA-git/LUFA/Drivers/USB/Core/AVR8/../AVR8/USBInterrupt_AVR8.h **** 					case USB_INT_VBUSTI:
  94:../../tmk_core/protocol/lufa/LUFA-git/LUFA/Drivers/USB/Core/AVR8/../AVR8/USBInterrupt_AVR8.h **** 						USBCON |= (1 << VBUSTE);
  95:../../tmk_core/protocol/lufa/LUFA-git/LUFA/Drivers/USB/Core/AVR8/../AVR8/USBInterrupt_AVR8.h **** 						break;
  96:../../tmk_core/protocol/lufa/LUFA-git/LUFA/Drivers/USB/Core/AVR8/../AVR8/USBInterrupt_AVR8.h **** 					#endif
  97:../../tmk_core/protocol/lufa/LUFA-git/LUFA/Drivers/USB/Core/AVR8/../AVR8/USBInterrupt_AVR8.h **** 					#if defined(USB_CAN_BE_BOTH)
  98:../../tmk_core/protocol/lufa/LUFA-git/LUFA/Drivers/USB/Core/AVR8/../AVR8/USBInterrupt_AVR8.h **** 					case USB_INT_IDTI:
  99:../../tmk_core/protocol/lufa/LUFA-git/LUFA/Drivers/USB/Core/AVR8/../AVR8/USBInterrupt_AVR8.h **** 						USBCON |= (1 << IDTE);
 100:../../tmk_core/protocol/lufa/LUFA-git/LUFA/Drivers/USB/Core/AVR8/../AVR8/USBInterrupt_AVR8.h **** 						break;
 101:../../tmk_core/protocol/lufa/LUFA-git/LUFA/Drivers/USB/Core/AVR8/../AVR8/USBInterrupt_AVR8.h **** 					#endif
 102:../../tmk_core/protocol/lufa/LUFA-git/LUFA/Drivers/USB/Core/AVR8/../AVR8/USBInterrupt_AVR8.h **** 					#if defined(USB_CAN_BE_DEVICE)
 103:../../tmk_core/protocol/lufa/LUFA-git/LUFA/Drivers/USB/Core/AVR8/../AVR8/USBInterrupt_AVR8.h **** 					case USB_INT_WAKEUPI:
 104:../../tmk_core/protocol/lufa/LUFA-git/LUFA/Drivers/USB/Core/AVR8/../AVR8/USBInterrupt_AVR8.h **** 						UDIEN  |= (1 << WAKEUPE);
 105:../../tmk_core/protocol/lufa/LUFA-git/LUFA/Drivers/USB/Core/AVR8/../AVR8/USBInterrupt_AVR8.h **** 						break;
 106:../../tmk_core/protocol/lufa/LUFA-git/LUFA/Drivers/USB/Core/AVR8/../AVR8/USBInterrupt_AVR8.h **** 					case USB_INT_SUSPI:
 107:../../tmk_core/protocol/lufa/LUFA-git/LUFA/Drivers/USB/Core/AVR8/../AVR8/USBInterrupt_AVR8.h **** 						UDIEN  |= (1 << SUSPE);
 108:../../tmk_core/protocol/lufa/LUFA-git/LUFA/Drivers/USB/Core/AVR8/../AVR8/USBInterrupt_AVR8.h **** 						break;
 109:../../tmk_core/protocol/lufa/LUFA-git/LUFA/Drivers/USB/Core/AVR8/../AVR8/USBInterrupt_AVR8.h **** 					case USB_INT_EORSTI:
 110:../../tmk_core/protocol/lufa/LUFA-git/LUFA/Drivers/USB/Core/AVR8/../AVR8/USBInterrupt_AVR8.h **** 						UDIEN  |= (1 << EORSTE);
 111:../../tmk_core/protocol/lufa/LUFA-git/LUFA/Drivers/USB/Core/AVR8/../AVR8/USBInterrupt_AVR8.h **** 						break;
 112:../../tmk_core/protocol/lufa/LUFA-git/LUFA/Drivers/USB/Core/AVR8/../AVR8/USBInterrupt_AVR8.h **** 					case USB_INT_SOFI:
 113:../../tmk_core/protocol/lufa/LUFA-git/LUFA/Drivers/USB/Core/AVR8/../AVR8/USBInterrupt_AVR8.h **** 						UDIEN  |= (1 << SOFE);
 1071               		.loc 6 113 7 view .LVU313
 1072               		.loc 6 113 14 is_stmt 0 view .LVU314
 1073 0010 8091 E200 		lds r24,226
 1074 0014 8460      		ori r24,lo8(4)
 1075 0016 8093 E200 		sts 226,r24
 114:../../tmk_core/protocol/lufa/LUFA-git/LUFA/Drivers/USB/Core/AVR8/../AVR8/USBInterrupt_AVR8.h **** 						break;
 1076               		.loc 6 114 7 is_stmt 1 view .LVU315
 1077               	.LVL65:
 1078               	.L75:
 1079               	/* epilogue start */
 1080               		.loc 6 114 7 is_stmt 0 view .LVU316
 1081               	.LBE378:
 1082               	.LBE377:
 1083               	.LBE376:
 1084               	.LBE375:
 234:../../tmk_core/protocol/lufa/lufa.c **** 
 1085               		.loc 1 234 1 view .LVU317
 1086 001a 0895      		ret
 1087               		.cfi_endproc
 1088               	.LFE114:
 1090               		.section	.text.EVENT_USB_Device_Disconnect,"ax",@progbits
 1091               	.global	EVENT_USB_Device_Disconnect
 1093               	EVENT_USB_Device_Disconnect:
 1094               	.LFB115:
 237:../../tmk_core/protocol/lufa/lufa.c **** #ifdef LUFA_DEBUG
 1095               		.loc 1 237 1 is_stmt 1 view -0
 1096               		.cfi_startproc
 1097               	/* prologue: function */
 1098               	/* frame size = 0 */
 1099               	/* stack size = 0 */
 1100               	.L__stack_usage = 0
 242:../../tmk_core/protocol/lufa/lufa.c **** /* TODO: This doesn't work. After several plug in/outs can not be enumerated.
 1101               		.loc 1 242 5 view .LVU319
 242:../../tmk_core/protocol/lufa/lufa.c **** /* TODO: This doesn't work. After several plug in/outs can not be enumerated.
 1102               		.loc 1 242 23 is_stmt 0 view .LVU320
 1103 0000 1092 0000 		sts USB_IsInitialized,__zero_reg__
 1104               	/* epilogue start */
 250:../../tmk_core/protocol/lufa/lufa.c **** 
 1105               		.loc 1 250 1 view .LVU321
 1106 0004 0895      		ret
 1107               		.cfi_endproc
 1108               	.LFE115:
 1110               		.section	.text.EVENT_USB_Device_Reset,"ax",@progbits
 1111               	.global	EVENT_USB_Device_Reset
 1113               	EVENT_USB_Device_Reset:
 1114               	.LFB116:
 253:../../tmk_core/protocol/lufa/lufa.c **** #ifdef LUFA_DEBUG
 1115               		.loc 1 253 1 is_stmt 1 view -0
 1116               		.cfi_startproc
 1117               	/* prologue: function */
 1118               	/* frame size = 0 */
 1119               	/* stack size = 0 */
 1120               	.L__stack_usage = 0
 257:../../tmk_core/protocol/lufa/lufa.c **** 
 1121               		.loc 1 257 1 view .LVU323
 1122               	/* epilogue start */
 1123 0000 0895      		ret
 1124               		.cfi_endproc
 1125               	.LFE116:
 1127               		.section	.text.EVENT_USB_Device_StartOfFrame,"ax",@progbits
 1128               	.global	EVENT_USB_Device_StartOfFrame
 1130               	EVENT_USB_Device_StartOfFrame:
 1131               	.LFB142:
 1132               		.cfi_startproc
 1133               	/* prologue: function */
 1134               	/* frame size = 0 */
 1135               	/* stack size = 0 */
 1136               	.L__stack_usage = 0
 1137               	/* epilogue start */
 1138 0000 0895      		ret
 1139               		.cfi_endproc
 1140               	.LFE142:
 1142               		.section	.text.EVENT_USB_Device_ConfigurationChanged,"ax",@progbits
 1143               	.global	EVENT_USB_Device_ConfigurationChanged
 1145               	EVENT_USB_Device_ConfigurationChanged:
 1146               	.LFB120:
 287:../../tmk_core/protocol/lufa/lufa.c **** #ifdef LUFA_DEBUG
 1147               		.loc 1 287 1 view -0
 1148               		.cfi_startproc
 1149               	/* prologue: function */
 1150               	/* frame size = 0 */
 1151               	/* stack size = 0 */
 1152               	.L__stack_usage = 0
 291:../../tmk_core/protocol/lufa/lufa.c **** 
 1153               		.loc 1 291 5 view .LVU325
 1154               	.LVL66:
 294:../../tmk_core/protocol/lufa/lufa.c ****                                      KEYBOARD_EPSIZE, ENDPOINT_BANK_SINGLE);
 1155               		.loc 1 294 5 view .LVU326
 1156               	.LBB379:
 1157               	.LBI379:
 200:../../tmk_core/protocol/lufa/LUFA-git/LUFA/Drivers/USB/Core/AVR8/../AVR8/Endpoint_AVR8.h **** 			                                              const uint8_t Type,
 1158               		.loc 2 200 23 view .LVU327
 1159               	.LBB380:
 205:../../tmk_core/protocol/lufa/LUFA-git/LUFA/Drivers/USB/Core/AVR8/../AVR8/Endpoint_AVR8.h **** 
 1160               		.loc 2 205 5 view .LVU328
 207:../../tmk_core/protocol/lufa/LUFA-git/LUFA/Drivers/USB/Core/AVR8/../AVR8/Endpoint_AVR8.h **** 				  return false;
 1161               		.loc 2 207 5 view .LVU329
 210:../../tmk_core/protocol/lufa/LUFA-git/LUFA/Drivers/USB/Core/AVR8/../AVR8/Endpoint_AVR8.h **** 				                                      ((Type << EPTYPE0) | ((Address & ENDPOINT_DIR_IN) ? (1 <<
 1162               		.loc 2 210 5 view .LVU330
 210:../../tmk_core/protocol/lufa/LUFA-git/LUFA/Drivers/USB/Core/AVR8/../AVR8/Endpoint_AVR8.h **** 				                                      ((Type << EPTYPE0) | ((Address & ENDPOINT_DIR_IN) ? (1 <<
 1163               		.loc 2 210 5 is_stmt 0 view .LVU331
 1164               	.LBE380:
 1165               	.LBE379:
  97:../../tmk_core/protocol/lufa/LUFA-git/LUFA/Drivers/USB/Core/AVR8/../AVR8/Endpoint_AVR8.h **** 				uint16_t CheckBytes = 8;
 1166               		.loc 2 97 5 is_stmt 1 view .LVU332
  98:../../tmk_core/protocol/lufa/LUFA-git/LUFA/Drivers/USB/Core/AVR8/../AVR8/Endpoint_AVR8.h **** 
 1167               		.loc 2 98 5 view .LVU333
 100:../../tmk_core/protocol/lufa/LUFA-git/LUFA/Drivers/USB/Core/AVR8/../AVR8/Endpoint_AVR8.h **** 				{
 1168               		.loc 2 100 5 view .LVU334
 106:../../tmk_core/protocol/lufa/LUFA-git/LUFA/Drivers/USB/Core/AVR8/../AVR8/Endpoint_AVR8.h **** 			}
 1169               		.loc 2 106 5 view .LVU335
 1170               	.LBB382:
 1171               	.LBB381:
 210:../../tmk_core/protocol/lufa/LUFA-git/LUFA/Drivers/USB/Core/AVR8/../AVR8/Endpoint_AVR8.h **** 				                                      ((Type << EPTYPE0) | ((Address & ENDPOINT_DIR_IN) ? (1 <<
 1172               		.loc 2 210 12 is_stmt 0 view .LVU336
 1173 0000 42E0      		ldi r20,lo8(2)
 1174 0002 61EC      		ldi r22,lo8(-63)
 1175 0004 81E0      		ldi r24,lo8(1)
 1176 0006 0E94 0000 		call Endpoint_ConfigureEndpoint_Prv
 1177               	.LVL67:
 210:../../tmk_core/protocol/lufa/LUFA-git/LUFA/Drivers/USB/Core/AVR8/../AVR8/Endpoint_AVR8.h **** 				                                      ((Type << EPTYPE0) | ((Address & ENDPOINT_DIR_IN) ? (1 <<
 1178               		.loc 2 210 12 view .LVU337
 1179               	.LBE381:
 1180               	.LBE382:
 299:../../tmk_core/protocol/lufa/lufa.c ****                                      MOUSE_EPSIZE, ENDPOINT_BANK_SINGLE);
 1181               		.loc 1 299 5 is_stmt 1 view .LVU338
 1182               	.LBB383:
 1183               	.LBI383:
 200:../../tmk_core/protocol/lufa/LUFA-git/LUFA/Drivers/USB/Core/AVR8/../AVR8/Endpoint_AVR8.h **** 			                                              const uint8_t Type,
 1184               		.loc 2 200 23 view .LVU339
 1185               	.LBB384:
 205:../../tmk_core/protocol/lufa/LUFA-git/LUFA/Drivers/USB/Core/AVR8/../AVR8/Endpoint_AVR8.h **** 
 1186               		.loc 2 205 5 view .LVU340
 207:../../tmk_core/protocol/lufa/LUFA-git/LUFA/Drivers/USB/Core/AVR8/../AVR8/Endpoint_AVR8.h **** 				  return false;
 1187               		.loc 2 207 5 view .LVU341
 210:../../tmk_core/protocol/lufa/LUFA-git/LUFA/Drivers/USB/Core/AVR8/../AVR8/Endpoint_AVR8.h **** 				                                      ((Type << EPTYPE0) | ((Address & ENDPOINT_DIR_IN) ? (1 <<
 1188               		.loc 2 210 5 view .LVU342
 210:../../tmk_core/protocol/lufa/LUFA-git/LUFA/Drivers/USB/Core/AVR8/../AVR8/Endpoint_AVR8.h **** 				                                      ((Type << EPTYPE0) | ((Address & ENDPOINT_DIR_IN) ? (1 <<
 1189               		.loc 2 210 5 is_stmt 0 view .LVU343
 1190               	.LBE384:
 1191               	.LBE383:
  97:../../tmk_core/protocol/lufa/LUFA-git/LUFA/Drivers/USB/Core/AVR8/../AVR8/Endpoint_AVR8.h **** 				uint16_t CheckBytes = 8;
 1192               		.loc 2 97 5 is_stmt 1 view .LVU344
  98:../../tmk_core/protocol/lufa/LUFA-git/LUFA/Drivers/USB/Core/AVR8/../AVR8/Endpoint_AVR8.h **** 
 1193               		.loc 2 98 5 view .LVU345
 100:../../tmk_core/protocol/lufa/LUFA-git/LUFA/Drivers/USB/Core/AVR8/../AVR8/Endpoint_AVR8.h **** 				{
 1194               		.loc 2 100 5 view .LVU346
 106:../../tmk_core/protocol/lufa/LUFA-git/LUFA/Drivers/USB/Core/AVR8/../AVR8/Endpoint_AVR8.h **** 			}
 1195               		.loc 2 106 5 view .LVU347
 1196               	.LBB386:
 1197               	.LBB385:
 210:../../tmk_core/protocol/lufa/LUFA-git/LUFA/Drivers/USB/Core/AVR8/../AVR8/Endpoint_AVR8.h **** 				                                      ((Type << EPTYPE0) | ((Address & ENDPOINT_DIR_IN) ? (1 <<
 1198               		.loc 2 210 12 is_stmt 0 view .LVU348
 1199 000a 42E0      		ldi r20,lo8(2)
 1200 000c 61EC      		ldi r22,lo8(-63)
 1201 000e 82E0      		ldi r24,lo8(2)
 1202 0010 0E94 0000 		call Endpoint_ConfigureEndpoint_Prv
 1203               	.LVL68:
 210:../../tmk_core/protocol/lufa/LUFA-git/LUFA/Drivers/USB/Core/AVR8/../AVR8/Endpoint_AVR8.h **** 				                                      ((Type << EPTYPE0) | ((Address & ENDPOINT_DIR_IN) ? (1 <<
 1204               		.loc 2 210 12 view .LVU349
 1205               	.LBE385:
 1206               	.LBE386:
 305:../../tmk_core/protocol/lufa/lufa.c ****                                      EXTRAKEY_EPSIZE, ENDPOINT_BANK_SINGLE);
 1207               		.loc 1 305 5 is_stmt 1 view .LVU350
 1208               	.LBB387:
 1209               	.LBI387:
 200:../../tmk_core/protocol/lufa/LUFA-git/LUFA/Drivers/USB/Core/AVR8/../AVR8/Endpoint_AVR8.h **** 			                                              const uint8_t Type,
 1210               		.loc 2 200 23 view .LVU351
 1211               	.LBB388:
 205:../../tmk_core/protocol/lufa/LUFA-git/LUFA/Drivers/USB/Core/AVR8/../AVR8/Endpoint_AVR8.h **** 
 1212               		.loc 2 205 5 view .LVU352
 207:../../tmk_core/protocol/lufa/LUFA-git/LUFA/Drivers/USB/Core/AVR8/../AVR8/Endpoint_AVR8.h **** 				  return false;
 1213               		.loc 2 207 5 view .LVU353
 210:../../tmk_core/protocol/lufa/LUFA-git/LUFA/Drivers/USB/Core/AVR8/../AVR8/Endpoint_AVR8.h **** 				                                      ((Type << EPTYPE0) | ((Address & ENDPOINT_DIR_IN) ? (1 <<
 1214               		.loc 2 210 5 view .LVU354
 210:../../tmk_core/protocol/lufa/LUFA-git/LUFA/Drivers/USB/Core/AVR8/../AVR8/Endpoint_AVR8.h **** 				                                      ((Type << EPTYPE0) | ((Address & ENDPOINT_DIR_IN) ? (1 <<
 1215               		.loc 2 210 5 is_stmt 0 view .LVU355
 1216               	.LBE388:
 1217               	.LBE387:
  97:../../tmk_core/protocol/lufa/LUFA-git/LUFA/Drivers/USB/Core/AVR8/../AVR8/Endpoint_AVR8.h **** 				uint16_t CheckBytes = 8;
 1218               		.loc 2 97 5 is_stmt 1 view .LVU356
  98:../../tmk_core/protocol/lufa/LUFA-git/LUFA/Drivers/USB/Core/AVR8/../AVR8/Endpoint_AVR8.h **** 
 1219               		.loc 2 98 5 view .LVU357
 100:../../tmk_core/protocol/lufa/LUFA-git/LUFA/Drivers/USB/Core/AVR8/../AVR8/Endpoint_AVR8.h **** 				{
 1220               		.loc 2 100 5 view .LVU358
 106:../../tmk_core/protocol/lufa/LUFA-git/LUFA/Drivers/USB/Core/AVR8/../AVR8/Endpoint_AVR8.h **** 			}
 1221               		.loc 2 106 5 view .LVU359
 1222               	.LBB390:
 1223               	.LBB389:
 210:../../tmk_core/protocol/lufa/LUFA-git/LUFA/Drivers/USB/Core/AVR8/../AVR8/Endpoint_AVR8.h **** 				                                      ((Type << EPTYPE0) | ((Address & ENDPOINT_DIR_IN) ? (1 <<
 1224               		.loc 2 210 12 is_stmt 0 view .LVU360
 1225 0014 42E0      		ldi r20,lo8(2)
 1226 0016 61EC      		ldi r22,lo8(-63)
 1227 0018 83E0      		ldi r24,lo8(3)
 1228 001a 0E94 0000 		call Endpoint_ConfigureEndpoint_Prv
 1229               	.LVL69:
 210:../../tmk_core/protocol/lufa/LUFA-git/LUFA/Drivers/USB/Core/AVR8/../AVR8/Endpoint_AVR8.h **** 				                                      ((Type << EPTYPE0) | ((Address & ENDPOINT_DIR_IN) ? (1 <<
 1230               		.loc 2 210 12 view .LVU361
 1231               	.LBE389:
 1232               	.LBE390:
 311:../../tmk_core/protocol/lufa/lufa.c ****                                      CONSOLE_EPSIZE, ENDPOINT_BANK_SINGLE);
 1233               		.loc 1 311 5 is_stmt 1 view .LVU362
 1234               	.LBB391:
 1235               	.LBI391:
 200:../../tmk_core/protocol/lufa/LUFA-git/LUFA/Drivers/USB/Core/AVR8/../AVR8/Endpoint_AVR8.h **** 			                                              const uint8_t Type,
 1236               		.loc 2 200 23 view .LVU363
 1237               	.LBB392:
 205:../../tmk_core/protocol/lufa/LUFA-git/LUFA/Drivers/USB/Core/AVR8/../AVR8/Endpoint_AVR8.h **** 
 1238               		.loc 2 205 5 view .LVU364
 207:../../tmk_core/protocol/lufa/LUFA-git/LUFA/Drivers/USB/Core/AVR8/../AVR8/Endpoint_AVR8.h **** 				  return false;
 1239               		.loc 2 207 5 view .LVU365
 207:../../tmk_core/protocol/lufa/LUFA-git/LUFA/Drivers/USB/Core/AVR8/../AVR8/Endpoint_AVR8.h **** 				  return false;
 1240               		.loc 2 207 5 is_stmt 0 view .LVU366
 1241               	.LBE392:
 1242               	.LBE391:
 102:../../tmk_core/protocol/lufa/LUFA-git/LUFA/Drivers/USB/Core/AVR8/../AVR8/Endpoint_AVR8.h **** 					CheckBytes <<= 1;
 1243               		.loc 2 102 6 is_stmt 1 view .LVU367
 103:../../tmk_core/protocol/lufa/LUFA-git/LUFA/Drivers/USB/Core/AVR8/../AVR8/Endpoint_AVR8.h **** 				}
 1244               		.loc 2 103 6 view .LVU368
 102:../../tmk_core/protocol/lufa/LUFA-git/LUFA/Drivers/USB/Core/AVR8/../AVR8/Endpoint_AVR8.h **** 					CheckBytes <<= 1;
 1245               		.loc 2 102 6 view .LVU369
 103:../../tmk_core/protocol/lufa/LUFA-git/LUFA/Drivers/USB/Core/AVR8/../AVR8/Endpoint_AVR8.h **** 				}
 1246               		.loc 2 103 6 view .LVU370
 106:../../tmk_core/protocol/lufa/LUFA-git/LUFA/Drivers/USB/Core/AVR8/../AVR8/Endpoint_AVR8.h **** 			}
 1247               		.loc 2 106 5 view .LVU371
 1248               	.LBB394:
 1249               	.LBB393:
 210:../../tmk_core/protocol/lufa/LUFA-git/LUFA/Drivers/USB/Core/AVR8/../AVR8/Endpoint_AVR8.h **** 				                                      ((Type << EPTYPE0) | ((Address & ENDPOINT_DIR_IN) ? (1 <<
 1250               		.loc 2 210 12 is_stmt 0 view .LVU372
 1251 001e 42E2      		ldi r20,lo8(34)
 1252 0020 61EC      		ldi r22,lo8(-63)
 1253 0022 84E0      		ldi r24,lo8(4)
 1254 0024 0C94 0000 		jmp Endpoint_ConfigureEndpoint_Prv
 1255               	.LVL70:
 1256               	.LBE393:
 1257               	.LBE394:
 1258               		.cfi_endproc
 1259               	.LFE120:
 1261               		.section	.text.EVENT_USB_Device_ControlRequest,"ax",@progbits
 1262               	.global	EVENT_USB_Device_ControlRequest
 1264               	EVENT_USB_Device_ControlRequest:
 1265               	.LFB121:
 343:../../tmk_core/protocol/lufa/lufa.c ****     uint8_t* ReportData = NULL;
 1266               		.loc 1 343 1 is_stmt 1 view -0
 1267               		.cfi_startproc
 1268               	/* prologue: function */
 1269               	/* frame size = 0 */
 1270               	/* stack size = 0 */
 1271               	.L__stack_usage = 0
 344:../../tmk_core/protocol/lufa/lufa.c ****     uint8_t  ReportSize = 0;
 1272               		.loc 1 344 5 view .LVU374
 1273               	.LVL71:
 345:../../tmk_core/protocol/lufa/lufa.c **** 
 1274               		.loc 1 345 5 view .LVU375
 348:../../tmk_core/protocol/lufa/lufa.c ****     {
 1275               		.loc 1 348 5 view .LVU376
 348:../../tmk_core/protocol/lufa/lufa.c ****     {
 1276               		.loc 1 348 31 is_stmt 0 view .LVU377
 1277 0000 8091 0000 		lds r24,USB_ControlRequest+1
 348:../../tmk_core/protocol/lufa/lufa.c ****     {
 1278               		.loc 1 348 5 view .LVU378
 1279 0004 8930      		cpi r24,lo8(9)
 1280 0006 01F0      		breq .L82
 1281 0008 00F4      		brsh .L83
 1282 000a 8230      		cpi r24,lo8(2)
 1283 000c 01F4      		brne .+2
 1284 000e 00C0      		rjmp .L84
 1285 0010 8330      		cpi r24,lo8(3)
 1286 0012 01F4      		brne .+2
 1287 0014 00C0      		rjmp .L85
 1288 0016 8130      		cpi r24,lo8(1)
 1289 0018 01F0      		breq .L86
 1290 001a 0895      		ret
 1291               	.L83:
 1292 001c 8A30      		cpi r24,lo8(10)
 1293 001e 01F4      		brne .+2
 1294 0020 00C0      		rjmp .L88
 1295 0022 8B30      		cpi r24,lo8(11)
 1296 0024 01F4      		brne .+2
 1297 0026 00C0      		rjmp .L89
 1298 0028 0895      		ret
 1299               	.L86:
 351:../../tmk_core/protocol/lufa/lufa.c ****             {
 1300               		.loc 1 351 13 is_stmt 1 view .LVU379
 351:../../tmk_core/protocol/lufa/lufa.c ****             {
 1301               		.loc 1 351 16 is_stmt 0 view .LVU380
 1302 002a 8091 0000 		lds r24,USB_ControlRequest
 1303 002e 813A      		cpi r24,lo8(-95)
 1304 0030 01F4      		brne .L81
 353:../../tmk_core/protocol/lufa/lufa.c **** 
 1305               		.loc 1 353 17 is_stmt 1 view .LVU381
 1306               	.LBB395:
 1307               	.LBI395:
 442:../../tmk_core/protocol/lufa/LUFA-git/LUFA/Drivers/USB/Core/AVR8/../AVR8/Endpoint_AVR8.h **** 			{
 1308               		.loc 2 442 23 view .LVU382
 1309               	.LBB396:
 444:../../tmk_core/protocol/lufa/LUFA-git/LUFA/Drivers/USB/Core/AVR8/../AVR8/Endpoint_AVR8.h **** 			}
 1310               		.loc 2 444 5 view .LVU383
 444:../../tmk_core/protocol/lufa/LUFA-git/LUFA/Drivers/USB/Core/AVR8/../AVR8/Endpoint_AVR8.h **** 			}
 1311               		.loc 2 444 12 is_stmt 0 view .LVU384
 1312 0032 8091 E800 		lds r24,232
 1313 0036 877F      		andi r24,lo8(-9)
 1314 0038 8093 E800 		sts 232,r24
 1315               	.LBE396:
 1316               	.LBE395:
 356:../../tmk_core/protocol/lufa/lufa.c ****                 case KEYBOARD_INTERFACE:
 1317               		.loc 1 356 17 is_stmt 1 view .LVU385
 1318 003c 8091 0000 		lds r24,USB_ControlRequest+4
 1319 0040 9091 0000 		lds r25,USB_ControlRequest+4+1
 1320 0044 892B      		or r24,r25
 1321 0046 01F4      		brne .L97
 360:../../tmk_core/protocol/lufa/lufa.c ****                     break;
 1322               		.loc 1 360 32 is_stmt 0 view .LVU386
 1323 0048 68E0      		ldi r22,lo8(8)
 359:../../tmk_core/protocol/lufa/lufa.c ****                     ReportSize = sizeof(keyboard_report_sent);
 1324               		.loc 1 359 32 view .LVU387
 1325 004a 80E0      		ldi r24,lo8(keyboard_report_sent)
 1326 004c 90E0      		ldi r25,hi8(keyboard_report_sent)
 1327               	.L91:
 1328               	.LVL72:
 365:../../tmk_core/protocol/lufa/lufa.c ****                 Endpoint_ClearOUT();
 1329               		.loc 1 365 17 is_stmt 1 view .LVU388
 1330 004e 70E0      		ldi r23,0
 1331 0050 0E94 0000 		call Endpoint_Write_Control_Stream_LE
 1332               	.LVL73:
 366:../../tmk_core/protocol/lufa/lufa.c **** #ifdef LUFA_DEBUG
 1333               		.loc 1 366 17 view .LVU389
 1334               	.LBB397:
 1335               	.LBI397:
 468:../../tmk_core/protocol/lufa/LUFA-git/LUFA/Drivers/USB/Core/AVR8/../AVR8/Endpoint_AVR8.h **** 			{
 1336               		.loc 2 468 23 view .LVU390
 1337               	.LBB398:
 471:../../tmk_core/protocol/lufa/LUFA-git/LUFA/Drivers/USB/Core/AVR8/../AVR8/Endpoint_AVR8.h **** 				#else
 1338               		.loc 2 471 6 view .LVU391
 471:../../tmk_core/protocol/lufa/LUFA-git/LUFA/Drivers/USB/Core/AVR8/../AVR8/Endpoint_AVR8.h **** 				#else
 1339               		.loc 2 471 13 is_stmt 0 view .LVU392
 1340 0054 8091 E800 		lds r24,232
 1341 0058 8B77      		andi r24,lo8(123)
 1342 005a 8093 E800 		sts 232,r24
 475:../../tmk_core/protocol/lufa/LUFA-git/LUFA/Drivers/USB/Core/AVR8/../AVR8/Endpoint_AVR8.h **** 
 1343               		.loc 2 475 4 view .LVU393
 1344 005e 0895      		ret
 1345               	.LVL74:
 1346               	.L97:
 475:../../tmk_core/protocol/lufa/LUFA-git/LUFA/Drivers/USB/Core/AVR8/../AVR8/Endpoint_AVR8.h **** 
 1347               		.loc 2 475 4 view .LVU394
 1348               	.LBE398:
 1349               	.LBE397:
 345:../../tmk_core/protocol/lufa/lufa.c **** 
 1350               		.loc 1 345 14 view .LVU395
 1351 0060 60E0      		ldi r22,0
 344:../../tmk_core/protocol/lufa/lufa.c ****     uint8_t  ReportSize = 0;
 1352               		.loc 1 344 14 view .LVU396
 1353 0062 90E0      		ldi r25,0
 1354 0064 80E0      		ldi r24,0
 1355 0066 00C0      		rjmp .L91
 1356               	.L82:
 374:../../tmk_core/protocol/lufa/lufa.c ****             {
 1357               		.loc 1 374 13 is_stmt 1 view .LVU397
 374:../../tmk_core/protocol/lufa/lufa.c ****             {
 1358               		.loc 1 374 16 is_stmt 0 view .LVU398
 1359 0068 8091 0000 		lds r24,USB_ControlRequest
 1360 006c 8132      		cpi r24,lo8(33)
 1361 006e 01F4      		brne .L81
 378:../../tmk_core/protocol/lufa/lufa.c ****                 case KEYBOARD_INTERFACE:
 1362               		.loc 1 378 17 is_stmt 1 view .LVU399
 1363 0070 8091 0000 		lds r24,USB_ControlRequest+4
 1364 0074 9091 0000 		lds r25,USB_ControlRequest+4+1
 1365 0078 892B      		or r24,r25
 1366 007a 01F4      		brne .L81
 383:../../tmk_core/protocol/lufa/lufa.c **** 
 1367               		.loc 1 383 21 view .LVU400
 1368               	.LBB399:
 1369               	.LBI399:
 442:../../tmk_core/protocol/lufa/LUFA-git/LUFA/Drivers/USB/Core/AVR8/../AVR8/Endpoint_AVR8.h **** 			{
 1370               		.loc 2 442 23 view .LVU401
 1371               	.LBB400:
 444:../../tmk_core/protocol/lufa/LUFA-git/LUFA/Drivers/USB/Core/AVR8/../AVR8/Endpoint_AVR8.h **** 			}
 1372               		.loc 2 444 5 view .LVU402
 444:../../tmk_core/protocol/lufa/LUFA-git/LUFA/Drivers/USB/Core/AVR8/../AVR8/Endpoint_AVR8.h **** 			}
 1373               		.loc 2 444 12 is_stmt 0 view .LVU403
 1374 007c 8091 E800 		lds r24,232
 1375 0080 877F      		andi r24,lo8(-9)
 1376 0082 8093 E800 		sts 232,r24
 1377               	.L93:
 1378               	.LBE400:
 1379               	.LBE399:
 1380               	.LBB401:
 1381               	.LBI401:
 417:../../tmk_core/protocol/lufa/LUFA-git/LUFA/Drivers/USB/Core/AVR8/../AVR8/Endpoint_AVR8.h **** 			{
 1382               		.loc 2 417 23 is_stmt 1 view .LVU404
 1383               	.LBB402:
 419:../../tmk_core/protocol/lufa/LUFA-git/LUFA/Drivers/USB/Core/AVR8/../AVR8/Endpoint_AVR8.h **** 			}
 1384               		.loc 2 419 5 view .LVU405
 419:../../tmk_core/protocol/lufa/LUFA-git/LUFA/Drivers/USB/Core/AVR8/../AVR8/Endpoint_AVR8.h **** 			}
 1385               		.loc 2 419 14 is_stmt 0 view .LVU406
 1386 0086 8091 E800 		lds r24,232
 1387               	.LBE402:
 1388               	.LBE401:
 385:../../tmk_core/protocol/lufa/lufa.c ****                         if (USB_DeviceState == DEVICE_STATE_Unattached)
 1389               		.loc 1 385 27 view .LVU407
 1390 008a 82FF      		sbrs r24,2
 1391 008c 00C0      		rjmp .L94
 389:../../tmk_core/protocol/lufa/lufa.c **** 
 1392               		.loc 1 389 21 is_stmt 1 view .LVU408
 1393               	.LBB403:
 1394               	.LBI403:
 540:../../tmk_core/protocol/lufa/LUFA-git/LUFA/Drivers/USB/Core/AVR8/../AVR8/Endpoint_AVR8.h **** 			{
 1395               		.loc 2 540 26 view .LVU409
 1396               	.LBB404:
 542:../../tmk_core/protocol/lufa/LUFA-git/LUFA/Drivers/USB/Core/AVR8/../AVR8/Endpoint_AVR8.h **** 			}
 1397               		.loc 2 542 5 view .LVU410
 542:../../tmk_core/protocol/lufa/LUFA-git/LUFA/Drivers/USB/Core/AVR8/../AVR8/Endpoint_AVR8.h **** 			}
 1398               		.loc 2 542 12 is_stmt 0 view .LVU411
 1399 008e 8091 F100 		lds r24,241
 1400               	.LBE404:
 1401               	.LBE403:
 389:../../tmk_core/protocol/lufa/lufa.c **** 
 1402               		.loc 1 389 40 view .LVU412
 1403 0092 8093 0000 		sts keyboard_led_stats,r24
 391:../../tmk_core/protocol/lufa/lufa.c ****                     Endpoint_ClearStatusStage();
 1404               		.loc 1 391 21 is_stmt 1 view .LVU413
 1405               	.LBB405:
 1406               	.LBI405:
 468:../../tmk_core/protocol/lufa/LUFA-git/LUFA/Drivers/USB/Core/AVR8/../AVR8/Endpoint_AVR8.h **** 			{
 1407               		.loc 2 468 23 view .LVU414
 1408               	.LBB406:
 471:../../tmk_core/protocol/lufa/LUFA-git/LUFA/Drivers/USB/Core/AVR8/../AVR8/Endpoint_AVR8.h **** 				#else
 1409               		.loc 2 471 6 view .LVU415
 471:../../tmk_core/protocol/lufa/LUFA-git/LUFA/Drivers/USB/Core/AVR8/../AVR8/Endpoint_AVR8.h **** 				#else
 1410               		.loc 2 471 13 is_stmt 0 view .LVU416
 1411 0096 8091 E800 		lds r24,232
 1412 009a 8B77      		andi r24,lo8(123)
 1413               	.L105:
 1414               	.LBE406:
 1415               	.LBE405:
 1416               	.LBB407:
 1417               	.LBB408:
 456:../../tmk_core/protocol/lufa/LUFA-git/LUFA/Drivers/USB/Core/AVR8/../AVR8/Endpoint_AVR8.h **** 				#else
 1418               		.loc 2 456 13 view .LVU417
 1419 009c 8093 E800 		sts 232,r24
 1420               	.LBE408:
 1421               	.LBE407:
 455:../../tmk_core/protocol/lufa/lufa.c **** #ifdef LUFA_DEBUG
 1422               		.loc 1 455 17 is_stmt 1 view .LVU418
 1423 00a0 0C94 0000 		jmp Endpoint_ClearStatusStage
 1424               	.LVL75:
 1425               	.L94:
 386:../../tmk_core/protocol/lufa/lufa.c ****                           return;
 1426               		.loc 1 386 25 view .LVU419
 386:../../tmk_core/protocol/lufa/lufa.c ****                           return;
 1427               		.loc 1 386 45 is_stmt 0 view .LVU420
 1428 00a4 8091 0000 		lds r24,USB_DeviceState
 386:../../tmk_core/protocol/lufa/lufa.c ****                           return;
 1429               		.loc 1 386 28 view .LVU421
 1430 00a8 8111      		cpse r24,__zero_reg__
 1431 00aa 00C0      		rjmp .L93
 1432               	.L81:
 1433               	/* epilogue start */
 463:../../tmk_core/protocol/lufa/lufa.c **** 
 1434               		.loc 1 463 1 view .LVU422
 1435 00ac 0895      		ret
 1436               	.L85:
 404:../../tmk_core/protocol/lufa/lufa.c ****             {
 1437               		.loc 1 404 13 is_stmt 1 view .LVU423
 404:../../tmk_core/protocol/lufa/lufa.c ****             {
 1438               		.loc 1 404 16 is_stmt 0 view .LVU424
 1439 00ae 8091 0000 		lds r24,USB_ControlRequest
 1440 00b2 813A      		cpi r24,lo8(-95)
 1441 00b4 01F4      		brne .L81
 406:../../tmk_core/protocol/lufa/lufa.c ****                     Endpoint_ClearSETUP();
 1442               		.loc 1 406 17 is_stmt 1 view .LVU425
 406:../../tmk_core/protocol/lufa/lufa.c ****                     Endpoint_ClearSETUP();
 1443               		.loc 1 406 20 is_stmt 0 view .LVU426
 1444 00b6 8091 0000 		lds r24,USB_ControlRequest+4
 1445 00ba 9091 0000 		lds r25,USB_ControlRequest+4+1
 1446 00be 892B      		or r24,r25
 1447 00c0 01F4      		brne .L81
 407:../../tmk_core/protocol/lufa/lufa.c ****                     while (!(Endpoint_IsINReady()));
 1448               		.loc 1 407 21 is_stmt 1 view .LVU427
 1449               	.LBB410:
 1450               	.LBI410:
 442:../../tmk_core/protocol/lufa/LUFA-git/LUFA/Drivers/USB/Core/AVR8/../AVR8/Endpoint_AVR8.h **** 			{
 1451               		.loc 2 442 23 view .LVU428
 1452               	.LBB411:
 444:../../tmk_core/protocol/lufa/LUFA-git/LUFA/Drivers/USB/Core/AVR8/../AVR8/Endpoint_AVR8.h **** 			}
 1453               		.loc 2 444 5 view .LVU429
 444:../../tmk_core/protocol/lufa/LUFA-git/LUFA/Drivers/USB/Core/AVR8/../AVR8/Endpoint_AVR8.h **** 			}
 1454               		.loc 2 444 12 is_stmt 0 view .LVU430
 1455 00c2 8091 E800 		lds r24,232
 1456 00c6 877F      		andi r24,lo8(-9)
 1457 00c8 8093 E800 		sts 232,r24
 1458               	.L95:
 1459               	.LBE411:
 1460               	.LBE410:
 408:../../tmk_core/protocol/lufa/lufa.c ****                     Endpoint_Write_8(keyboard_protocol);
 1461               		.loc 1 408 52 is_stmt 1 discriminator 1 view .LVU431
 1462               	.LBB412:
 1463               	.LBI412:
 405:../../tmk_core/protocol/lufa/LUFA-git/LUFA/Drivers/USB/Core/AVR8/../AVR8/Endpoint_AVR8.h **** 			{
 1464               		.loc 2 405 23 discriminator 1 view .LVU432
 1465               	.LBB413:
 407:../../tmk_core/protocol/lufa/LUFA-git/LUFA/Drivers/USB/Core/AVR8/../AVR8/Endpoint_AVR8.h **** 			}
 1466               		.loc 2 407 5 discriminator 1 view .LVU433
 407:../../tmk_core/protocol/lufa/LUFA-git/LUFA/Drivers/USB/Core/AVR8/../AVR8/Endpoint_AVR8.h **** 			}
 1467               		.loc 2 407 14 is_stmt 0 discriminator 1 view .LVU434
 1468 00cc 8091 E800 		lds r24,232
 1469               	.LBE413:
 1470               	.LBE412:
 408:../../tmk_core/protocol/lufa/lufa.c ****                     Endpoint_Write_8(keyboard_protocol);
 1471               		.loc 1 408 27 discriminator 1 view .LVU435
 1472 00d0 80FF      		sbrs r24,0
 1473 00d2 00C0      		rjmp .L95
 409:../../tmk_core/protocol/lufa/lufa.c ****                     Endpoint_ClearIN();
 1474               		.loc 1 409 21 is_stmt 1 view .LVU436
 1475 00d4 8091 0000 		lds r24,keyboard_protocol
 1476               	.LVL76:
 1477               	.LBB414:
 1478               	.LBI414:
 552:../../tmk_core/protocol/lufa/LUFA-git/LUFA/Drivers/USB/Core/AVR8/../AVR8/Endpoint_AVR8.h **** 			{
 1479               		.loc 2 552 23 view .LVU437
 1480               	.LBB415:
 1481               		.loc 2 554 5 view .LVU438
 1482               	.L106:
 1483               		.loc 2 554 5 is_stmt 0 view .LVU439
 1484               	.LBE415:
 1485               	.LBE414:
 1486               	.LBB416:
 1487               	.LBI416:
 552:../../tmk_core/protocol/lufa/LUFA-git/LUFA/Drivers/USB/Core/AVR8/../AVR8/Endpoint_AVR8.h **** 			{
 1488               		.loc 2 552 23 is_stmt 1 view .LVU440
 1489               	.LBB417:
 1490               		.loc 2 554 5 view .LVU441
 1491               		.loc 2 554 12 is_stmt 0 view .LVU442
 1492 00d8 8093 F100 		sts 241,r24
 1493               	.LVL77:
 1494               		.loc 2 554 12 view .LVU443
 1495               	.LBE417:
 1496               	.LBE416:
 454:../../tmk_core/protocol/lufa/lufa.c ****                 Endpoint_ClearStatusStage();
 1497               		.loc 1 454 17 is_stmt 1 view .LVU444
 1498               	.LBB418:
 1499               	.LBI407:
 453:../../tmk_core/protocol/lufa/LUFA-git/LUFA/Drivers/USB/Core/AVR8/../AVR8/Endpoint_AVR8.h **** 			{
 1500               		.loc 2 453 23 view .LVU445
 1501               	.LBB409:
 456:../../tmk_core/protocol/lufa/LUFA-git/LUFA/Drivers/USB/Core/AVR8/../AVR8/Endpoint_AVR8.h **** 				#else
 1502               		.loc 2 456 6 view .LVU446
 456:../../tmk_core/protocol/lufa/LUFA-git/LUFA/Drivers/USB/Core/AVR8/../AVR8/Endpoint_AVR8.h **** 				#else
 1503               		.loc 2 456 13 is_stmt 0 view .LVU447
 1504 00dc 8091 E800 		lds r24,232
 1505 00e0 8E77      		andi r24,lo8(126)
 1506 00e2 00C0      		rjmp .L105
 1507               	.L89:
 1508               	.LBE409:
 1509               	.LBE418:
 420:../../tmk_core/protocol/lufa/lufa.c ****             {
 1510               		.loc 1 420 13 is_stmt 1 view .LVU448
 420:../../tmk_core/protocol/lufa/lufa.c ****             {
 1511               		.loc 1 420 16 is_stmt 0 view .LVU449
 1512 00e4 8091 0000 		lds r24,USB_ControlRequest
 1513 00e8 8132      		cpi r24,lo8(33)
 1514 00ea 01F4      		brne .L81
 422:../../tmk_core/protocol/lufa/lufa.c ****                     Endpoint_ClearSETUP();
 1515               		.loc 1 422 17 is_stmt 1 view .LVU450
 422:../../tmk_core/protocol/lufa/lufa.c ****                     Endpoint_ClearSETUP();
 1516               		.loc 1 422 20 is_stmt 0 view .LVU451
 1517 00ec 8091 0000 		lds r24,USB_ControlRequest+4
 1518 00f0 9091 0000 		lds r25,USB_ControlRequest+4+1
 1519 00f4 892B      		or r24,r25
 1520 00f6 01F4      		brne .L81
 423:../../tmk_core/protocol/lufa/lufa.c ****                     Endpoint_ClearStatusStage();
 1521               		.loc 1 423 21 is_stmt 1 view .LVU452
 1522               	.LBB419:
 1523               	.LBI419:
 442:../../tmk_core/protocol/lufa/LUFA-git/LUFA/Drivers/USB/Core/AVR8/../AVR8/Endpoint_AVR8.h **** 			{
 1524               		.loc 2 442 23 view .LVU453
 1525               	.LBB420:
 444:../../tmk_core/protocol/lufa/LUFA-git/LUFA/Drivers/USB/Core/AVR8/../AVR8/Endpoint_AVR8.h **** 			}
 1526               		.loc 2 444 5 view .LVU454
 444:../../tmk_core/protocol/lufa/LUFA-git/LUFA/Drivers/USB/Core/AVR8/../AVR8/Endpoint_AVR8.h **** 			}
 1527               		.loc 2 444 12 is_stmt 0 view .LVU455
 1528 00f8 8091 E800 		lds r24,232
 1529 00fc 877F      		andi r24,lo8(-9)
 1530 00fe 8093 E800 		sts 232,r24
 1531               	.LBE420:
 1532               	.LBE419:
 424:../../tmk_core/protocol/lufa/lufa.c **** 
 1533               		.loc 1 424 21 is_stmt 1 view .LVU456
 1534 0102 0E94 0000 		call Endpoint_ClearStatusStage
 1535               	.LVL78:
 426:../../tmk_core/protocol/lufa/lufa.c ****                     clear_keyboard();
 1536               		.loc 1 426 21 view .LVU457
 426:../../tmk_core/protocol/lufa/lufa.c ****                     clear_keyboard();
 1537               		.loc 1 426 39 is_stmt 0 view .LVU458
 1538 0106 8091 0000 		lds r24,USB_ControlRequest+2
 1539 010a 8093 0000 		sts keyboard_protocol,r24
 427:../../tmk_core/protocol/lufa/lufa.c **** #ifdef LUFA_DEBUG
 1540               		.loc 1 427 21 is_stmt 1 view .LVU459
 1541 010e 0C94 0000 		jmp clear_keyboard
 1542               	.LVL79:
 1543               	.L88:
 436:../../tmk_core/protocol/lufa/lufa.c ****             {
 1544               		.loc 1 436 13 view .LVU460
 436:../../tmk_core/protocol/lufa/lufa.c ****             {
 1545               		.loc 1 436 16 is_stmt 0 view .LVU461
 1546 0112 8091 0000 		lds r24,USB_ControlRequest
 1547 0116 8132      		cpi r24,lo8(33)
 1548 0118 01F4      		brne .L81
 438:../../tmk_core/protocol/lufa/lufa.c ****                 Endpoint_ClearStatusStage();
 1549               		.loc 1 438 17 is_stmt 1 view .LVU462
 1550               	.LBB421:
 1551               	.LBI421:
 442:../../tmk_core/protocol/lufa/LUFA-git/LUFA/Drivers/USB/Core/AVR8/../AVR8/Endpoint_AVR8.h **** 			{
 1552               		.loc 2 442 23 view .LVU463
 1553               	.LBB422:
 444:../../tmk_core/protocol/lufa/LUFA-git/LUFA/Drivers/USB/Core/AVR8/../AVR8/Endpoint_AVR8.h **** 			}
 1554               		.loc 2 444 5 view .LVU464
 444:../../tmk_core/protocol/lufa/LUFA-git/LUFA/Drivers/USB/Core/AVR8/../AVR8/Endpoint_AVR8.h **** 			}
 1555               		.loc 2 444 12 is_stmt 0 view .LVU465
 1556 011a 8091 E800 		lds r24,232
 1557 011e 877F      		andi r24,lo8(-9)
 1558 0120 8093 E800 		sts 232,r24
 1559               	.LBE422:
 1560               	.LBE421:
 439:../../tmk_core/protocol/lufa/lufa.c **** 
 1561               		.loc 1 439 17 is_stmt 1 view .LVU466
 1562 0124 0E94 0000 		call Endpoint_ClearStatusStage
 1563               	.LVL80:
 441:../../tmk_core/protocol/lufa/lufa.c **** #ifdef LUFA_DEBUG
 1564               		.loc 1 441 17 view .LVU467
 441:../../tmk_core/protocol/lufa/lufa.c **** #ifdef LUFA_DEBUG
 1565               		.loc 1 441 71 is_stmt 0 view .LVU468
 1566 0128 8091 0000 		lds r24,USB_ControlRequest+3
 441:../../tmk_core/protocol/lufa/lufa.c **** #ifdef LUFA_DEBUG
 1567               		.loc 1 441 31 view .LVU469
 1568 012c 8093 0000 		sts keyboard_idle,r24
 1569 0130 0895      		ret
 1570               	.L84:
 449:../../tmk_core/protocol/lufa/lufa.c ****             {
 1571               		.loc 1 449 13 is_stmt 1 view .LVU470
 449:../../tmk_core/protocol/lufa/lufa.c ****             {
 1572               		.loc 1 449 16 is_stmt 0 view .LVU471
 1573 0132 8091 0000 		lds r24,USB_ControlRequest
 1574 0136 813A      		cpi r24,lo8(-95)
 1575 0138 01F0      		breq .+2
 1576 013a 00C0      		rjmp .L81
 451:../../tmk_core/protocol/lufa/lufa.c ****                 while (!(Endpoint_IsINReady()));
 1577               		.loc 1 451 17 is_stmt 1 view .LVU472
 1578               	.LBB423:
 1579               	.LBI423:
 442:../../tmk_core/protocol/lufa/LUFA-git/LUFA/Drivers/USB/Core/AVR8/../AVR8/Endpoint_AVR8.h **** 			{
 1580               		.loc 2 442 23 view .LVU473
 1581               	.LBB424:
 444:../../tmk_core/protocol/lufa/LUFA-git/LUFA/Drivers/USB/Core/AVR8/../AVR8/Endpoint_AVR8.h **** 			}
 1582               		.loc 2 444 5 view .LVU474
 444:../../tmk_core/protocol/lufa/LUFA-git/LUFA/Drivers/USB/Core/AVR8/../AVR8/Endpoint_AVR8.h **** 			}
 1583               		.loc 2 444 12 is_stmt 0 view .LVU475
 1584 013c 8091 E800 		lds r24,232
 1585 0140 877F      		andi r24,lo8(-9)
 1586 0142 8093 E800 		sts 232,r24
 1587               	.L96:
 1588               	.LBE424:
 1589               	.LBE423:
 452:../../tmk_core/protocol/lufa/lufa.c ****                 Endpoint_Write_8(keyboard_idle);
 1590               		.loc 1 452 48 is_stmt 1 discriminator 1 view .LVU476
 1591               	.LBB425:
 1592               	.LBI425:
 405:../../tmk_core/protocol/lufa/LUFA-git/LUFA/Drivers/USB/Core/AVR8/../AVR8/Endpoint_AVR8.h **** 			{
 1593               		.loc 2 405 23 discriminator 1 view .LVU477
 1594               	.LBB426:
 407:../../tmk_core/protocol/lufa/LUFA-git/LUFA/Drivers/USB/Core/AVR8/../AVR8/Endpoint_AVR8.h **** 			}
 1595               		.loc 2 407 5 discriminator 1 view .LVU478
 407:../../tmk_core/protocol/lufa/LUFA-git/LUFA/Drivers/USB/Core/AVR8/../AVR8/Endpoint_AVR8.h **** 			}
 1596               		.loc 2 407 14 is_stmt 0 discriminator 1 view .LVU479
 1597 0146 8091 E800 		lds r24,232
 1598               	.LBE426:
 1599               	.LBE425:
 452:../../tmk_core/protocol/lufa/lufa.c ****                 Endpoint_Write_8(keyboard_idle);
 1600               		.loc 1 452 23 discriminator 1 view .LVU480
 1601 014a 80FF      		sbrs r24,0
 1602 014c 00C0      		rjmp .L96
 453:../../tmk_core/protocol/lufa/lufa.c ****                 Endpoint_ClearIN();
 1603               		.loc 1 453 17 is_stmt 1 view .LVU481
 1604 014e 8091 0000 		lds r24,keyboard_idle
 1605 0152 00C0      		rjmp .L106
 1606               		.cfi_endproc
 1607               	.LFE121:
 1609               		.section	.text.hook_early_init,"ax",@progbits
 1610               		.weak	hook_early_init
 1612               	hook_early_init:
 1613               	.LFB131:
 602:../../tmk_core/protocol/lufa/lufa.c **** 
 603:../../tmk_core/protocol/lufa/lufa.c **** 
 604:../../tmk_core/protocol/lufa/lufa.c **** /*******************************************************************************
 605:../../tmk_core/protocol/lufa/lufa.c ****  * main
 606:../../tmk_core/protocol/lufa/lufa.c ****  ******************************************************************************/
 607:../../tmk_core/protocol/lufa/lufa.c **** static void setup_mcu(void)
 608:../../tmk_core/protocol/lufa/lufa.c **** {
 609:../../tmk_core/protocol/lufa/lufa.c ****     /* Disable watchdog if enabled by bootloader/fuses */
 610:../../tmk_core/protocol/lufa/lufa.c ****     MCUSR &= ~(1 << WDRF);
 611:../../tmk_core/protocol/lufa/lufa.c ****     wdt_disable();
 612:../../tmk_core/protocol/lufa/lufa.c **** 
 613:../../tmk_core/protocol/lufa/lufa.c ****     /* Disable clock division */
 614:../../tmk_core/protocol/lufa/lufa.c ****     clock_prescale_set(clock_div_1);
 615:../../tmk_core/protocol/lufa/lufa.c **** }
 616:../../tmk_core/protocol/lufa/lufa.c **** 
 617:../../tmk_core/protocol/lufa/lufa.c **** static void setup_usb(void)
 618:../../tmk_core/protocol/lufa/lufa.c **** {
 619:../../tmk_core/protocol/lufa/lufa.c ****     // Leonardo needs. Without this USB device is not recognized.
 620:../../tmk_core/protocol/lufa/lufa.c ****     USB_Disable();
 621:../../tmk_core/protocol/lufa/lufa.c **** 
 622:../../tmk_core/protocol/lufa/lufa.c ****     USB_Init();
 623:../../tmk_core/protocol/lufa/lufa.c **** 
 624:../../tmk_core/protocol/lufa/lufa.c ****     USB_Device_EnableSOFEvents();
 625:../../tmk_core/protocol/lufa/lufa.c **** }
 626:../../tmk_core/protocol/lufa/lufa.c **** 
 627:../../tmk_core/protocol/lufa/lufa.c **** int main(void)  __attribute__ ((weak));
 628:../../tmk_core/protocol/lufa/lufa.c **** int main(void)
 629:../../tmk_core/protocol/lufa/lufa.c **** {
 630:../../tmk_core/protocol/lufa/lufa.c ****     setup_mcu();
 631:../../tmk_core/protocol/lufa/lufa.c **** 
 632:../../tmk_core/protocol/lufa/lufa.c **** #ifdef LUFA_DEBUG_SUART
 633:../../tmk_core/protocol/lufa/lufa.c ****     SUART_OUT_DDR |= (1<<SUART_OUT_BIT);
 634:../../tmk_core/protocol/lufa/lufa.c ****     SUART_OUT_PORT |= (1<<SUART_OUT_BIT);
 635:../../tmk_core/protocol/lufa/lufa.c **** #endif
 636:../../tmk_core/protocol/lufa/lufa.c **** 
 637:../../tmk_core/protocol/lufa/lufa.c **** #ifdef LUFA_DEBUG_UART
 638:../../tmk_core/protocol/lufa/lufa.c ****     uart_init(115200);
 639:../../tmk_core/protocol/lufa/lufa.c **** #endif
 640:../../tmk_core/protocol/lufa/lufa.c **** 
 641:../../tmk_core/protocol/lufa/lufa.c ****     // setup sendchar: DO NOT USE print functions before this line
 642:../../tmk_core/protocol/lufa/lufa.c ****     print_set_sendchar(sendchar);
 643:../../tmk_core/protocol/lufa/lufa.c ****     host_set_driver(&lufa_driver);
 644:../../tmk_core/protocol/lufa/lufa.c **** 
 645:../../tmk_core/protocol/lufa/lufa.c ****     print("\n\nTMK:" STR(TMK_VERSION) "/LUFA\n\n");
 646:../../tmk_core/protocol/lufa/lufa.c ****     hook_early_init();
 647:../../tmk_core/protocol/lufa/lufa.c ****     keyboard_setup();
 648:../../tmk_core/protocol/lufa/lufa.c ****     setup_usb();
 649:../../tmk_core/protocol/lufa/lufa.c **** #ifdef SLEEP_LED_ENABLE
 650:../../tmk_core/protocol/lufa/lufa.c ****     sleep_led_init();
 651:../../tmk_core/protocol/lufa/lufa.c **** #endif
 652:../../tmk_core/protocol/lufa/lufa.c **** 
 653:../../tmk_core/protocol/lufa/lufa.c ****     sei();
 654:../../tmk_core/protocol/lufa/lufa.c **** 
 655:../../tmk_core/protocol/lufa/lufa.c ****     keyboard_init();
 656:../../tmk_core/protocol/lufa/lufa.c **** 
 657:../../tmk_core/protocol/lufa/lufa.c **** #ifndef NO_USB_STARTUP_WAIT_LOOP
 658:../../tmk_core/protocol/lufa/lufa.c ****     /* wait for USB startup */
 659:../../tmk_core/protocol/lufa/lufa.c ****     while (USB_DeviceState != DEVICE_STATE_Configured) {
 660:../../tmk_core/protocol/lufa/lufa.c **** #if defined(INTERRUPT_CONTROL_ENDPOINT)
 661:../../tmk_core/protocol/lufa/lufa.c ****         ;
 662:../../tmk_core/protocol/lufa/lufa.c **** #else
 663:../../tmk_core/protocol/lufa/lufa.c ****         USB_USBTask();
 664:../../tmk_core/protocol/lufa/lufa.c **** #endif
 665:../../tmk_core/protocol/lufa/lufa.c ****         hook_usb_startup_wait_loop();
 666:../../tmk_core/protocol/lufa/lufa.c ****     }
 667:../../tmk_core/protocol/lufa/lufa.c ****     print("\nUSB configured.\n");
 668:../../tmk_core/protocol/lufa/lufa.c **** #endif
 669:../../tmk_core/protocol/lufa/lufa.c **** 
 670:../../tmk_core/protocol/lufa/lufa.c ****     hook_late_init();
 671:../../tmk_core/protocol/lufa/lufa.c **** 
 672:../../tmk_core/protocol/lufa/lufa.c ****     print("\nKeyboard start.\n");
 673:../../tmk_core/protocol/lufa/lufa.c ****     while (1) {
 674:../../tmk_core/protocol/lufa/lufa.c **** #ifndef NO_USB_SUSPEND_LOOP
 675:../../tmk_core/protocol/lufa/lufa.c ****         while (USB_DeviceState == DEVICE_STATE_Suspended) {
 676:../../tmk_core/protocol/lufa/lufa.c ****             hook_usb_suspend_loop();
 677:../../tmk_core/protocol/lufa/lufa.c ****         }
 678:../../tmk_core/protocol/lufa/lufa.c **** #endif
 679:../../tmk_core/protocol/lufa/lufa.c **** 
 680:../../tmk_core/protocol/lufa/lufa.c ****         keyboard_task();
 681:../../tmk_core/protocol/lufa/lufa.c **** 
 682:../../tmk_core/protocol/lufa/lufa.c **** #ifdef CONSOLE_ENABLE
 683:../../tmk_core/protocol/lufa/lufa.c ****         console_task();
 684:../../tmk_core/protocol/lufa/lufa.c **** #endif
 685:../../tmk_core/protocol/lufa/lufa.c **** 
 686:../../tmk_core/protocol/lufa/lufa.c **** #if !defined(INTERRUPT_CONTROL_ENDPOINT)
 687:../../tmk_core/protocol/lufa/lufa.c ****         USB_USBTask();
 688:../../tmk_core/protocol/lufa/lufa.c **** #endif
 689:../../tmk_core/protocol/lufa/lufa.c ****     }
 690:../../tmk_core/protocol/lufa/lufa.c **** }
 691:../../tmk_core/protocol/lufa/lufa.c **** 
 692:../../tmk_core/protocol/lufa/lufa.c **** 
 693:../../tmk_core/protocol/lufa/lufa.c **** /* hooks */
 694:../../tmk_core/protocol/lufa/lufa.c **** __attribute__((weak))
 695:../../tmk_core/protocol/lufa/lufa.c **** void hook_early_init(void) {}
 1614               		.loc 1 695 28 view -0
 1615               		.cfi_startproc
 1616               	/* prologue: function */
 1617               	/* frame size = 0 */
 1618               	/* stack size = 0 */
 1619               	.L__stack_usage = 0
 1620               		.loc 1 695 29 view .LVU483
 1621               	/* epilogue start */
 1622               		.loc 1 695 1 is_stmt 0 view .LVU484
 1623 0000 0895      		ret
 1624               		.cfi_endproc
 1625               	.LFE131:
 1627               		.set	hook_early_init.localalias,hook_early_init
 1628               		.section	.text.hook_late_init,"ax",@progbits
 1629               		.weak	hook_late_init
 1631               	hook_late_init:
 1632               	.LFB138:
 1633               		.cfi_startproc
 1634               	/* prologue: function */
 1635               	/* frame size = 0 */
 1636               	/* stack size = 0 */
 1637               	.L__stack_usage = 0
 1638               	/* epilogue start */
 1639 0000 0895      		ret
 1640               		.cfi_endproc
 1641               	.LFE138:
 1643               		.section	.text.hook_usb_suspend_entry,"ax",@progbits
 1644               		.weak	hook_usb_suspend_entry
 1646               	hook_usb_suspend_entry:
 1647               	.LFB133:
 696:../../tmk_core/protocol/lufa/lufa.c **** 
 697:../../tmk_core/protocol/lufa/lufa.c **** __attribute__((weak))
 698:../../tmk_core/protocol/lufa/lufa.c **** void hook_late_init(void) {}
 699:../../tmk_core/protocol/lufa/lufa.c **** 
 700:../../tmk_core/protocol/lufa/lufa.c **** static uint8_t _led_stats = 0;
 701:../../tmk_core/protocol/lufa/lufa.c ****  __attribute__((weak))
 702:../../tmk_core/protocol/lufa/lufa.c **** void hook_usb_suspend_entry(void)
 703:../../tmk_core/protocol/lufa/lufa.c **** {
 1648               		.loc 1 703 1 is_stmt 1 view -0
 1649               		.cfi_startproc
 1650               	/* prologue: function */
 1651               	/* frame size = 0 */
 1652               	/* stack size = 0 */
 1653               	.L__stack_usage = 0
 704:../../tmk_core/protocol/lufa/lufa.c ****     // Turn off LED to save power and keep its status to resotre it later.
 705:../../tmk_core/protocol/lufa/lufa.c ****     // LED status will be updated by keyboard_task() in main loop hopefully.
 706:../../tmk_core/protocol/lufa/lufa.c ****     _led_stats = keyboard_led_stats;
 1654               		.loc 1 706 5 view .LVU486
 1655               		.loc 1 706 16 is_stmt 0 view .LVU487
 1656 0000 8091 0000 		lds r24,keyboard_led_stats
 1657 0004 8093 0000 		sts _led_stats,r24
 707:../../tmk_core/protocol/lufa/lufa.c ****     keyboard_led_stats = 0;
 1658               		.loc 1 707 5 is_stmt 1 view .LVU488
 1659               		.loc 1 707 24 is_stmt 0 view .LVU489
 1660 0008 1092 0000 		sts keyboard_led_stats,__zero_reg__
 708:../../tmk_core/protocol/lufa/lufa.c **** 
 709:../../tmk_core/protocol/lufa/lufa.c ****     // Calling long task here can prevent USB state transition
 710:../../tmk_core/protocol/lufa/lufa.c **** 
 711:../../tmk_core/protocol/lufa/lufa.c ****     matrix_clear();
 1661               		.loc 1 711 5 is_stmt 1 view .LVU490
 1662 000c 0E94 0000 		call matrix_clear
 1663               	.LVL81:
 712:../../tmk_core/protocol/lufa/lufa.c ****     clear_keyboard();
 1664               		.loc 1 712 5 view .LVU491
 1665 0010 0C94 0000 		jmp clear_keyboard
 1666               	.LVL82:
 1667               		.cfi_endproc
 1668               	.LFE133:
 1670               		.section	.text.EVENT_USB_Device_Suspend,"ax",@progbits
 1671               	.global	EVENT_USB_Device_Suspend
 1673               	EVENT_USB_Device_Suspend:
 1674               	.LFB117:
 260:../../tmk_core/protocol/lufa/lufa.c **** #ifdef LUFA_DEBUG
 1675               		.loc 1 260 1 view -0
 1676               		.cfi_startproc
 1677               	/* prologue: function */
 1678               	/* frame size = 0 */
 1679               	/* stack size = 0 */
 1680               	.L__stack_usage = 0
 264:../../tmk_core/protocol/lufa/lufa.c **** }
 1681               		.loc 1 264 5 view .LVU493
 1682 0000 0C94 0000 		jmp hook_usb_suspend_entry
 1683               	.LVL83:
 1684               		.cfi_endproc
 1685               	.LFE117:
 1687               		.section	.text.hook_usb_suspend_loop,"ax",@progbits
 1688               		.weak	hook_usb_suspend_loop
 1690               	hook_usb_suspend_loop:
 1691               	.LFB134:
 713:../../tmk_core/protocol/lufa/lufa.c **** #ifdef SLEEP_LED_ENABLE
 714:../../tmk_core/protocol/lufa/lufa.c ****     sleep_led_enable();
 715:../../tmk_core/protocol/lufa/lufa.c **** #endif
 716:../../tmk_core/protocol/lufa/lufa.c **** }
 717:../../tmk_core/protocol/lufa/lufa.c **** 
 718:../../tmk_core/protocol/lufa/lufa.c **** __attribute__((weak))
 719:../../tmk_core/protocol/lufa/lufa.c **** void hook_usb_suspend_loop(void)
 720:../../tmk_core/protocol/lufa/lufa.c **** {
 1692               		.loc 1 720 1 view -0
 1693               		.cfi_startproc
 1694               	/* prologue: function */
 1695               	/* frame size = 0 */
 1696               	/* stack size = 0 */
 1697               	.L__stack_usage = 0
 721:../../tmk_core/protocol/lufa/lufa.c **** #ifndef LUFA_DEBUG_UART
 722:../../tmk_core/protocol/lufa/lufa.c ****     // This corrupts debug print when suspend
 723:../../tmk_core/protocol/lufa/lufa.c ****     suspend_power_down();
 1698               		.loc 1 723 5 view .LVU495
 1699 0000 0E94 0000 		call suspend_power_down
 1700               	.LVL84:
 724:../../tmk_core/protocol/lufa/lufa.c **** #endif
 725:../../tmk_core/protocol/lufa/lufa.c ****     if (USB_Device_RemoteWakeupEnabled && suspend_wakeup_condition()) {
 1701               		.loc 1 725 5 view .LVU496
 1702               		.loc 1 725 8 is_stmt 0 view .LVU497
 1703 0004 8091 0000 		lds r24,USB_Device_RemoteWakeupEnabled
 1704 0008 8823      		tst r24
 1705 000a 01F0      		breq .L111
 1706               		.loc 1 725 43 discriminator 1 view .LVU498
 1707 000c 0E94 0000 		call suspend_wakeup_condition
 1708               	.LVL85:
 1709               		.loc 1 725 40 discriminator 1 view .LVU499
 1710 0010 8111      		cpse r24,__zero_reg__
 726:../../tmk_core/protocol/lufa/lufa.c ****         USB_Device_SendRemoteWakeup();
 1711               		.loc 1 726 9 is_stmt 1 view .LVU500
 1712 0012 0C94 0000 		jmp USB_Device_SendRemoteWakeup
 1713               	.LVL86:
 1714               	.L111:
 1715               	/* epilogue start */
 727:../../tmk_core/protocol/lufa/lufa.c ****     }
 728:../../tmk_core/protocol/lufa/lufa.c **** }
 1716               		.loc 1 728 1 is_stmt 0 view .LVU501
 1717 0016 0895      		ret
 1718               		.cfi_endproc
 1719               	.LFE134:
 1721               		.section	.text.hook_usb_wakeup,"ax",@progbits
 1722               		.weak	hook_usb_wakeup
 1724               	hook_usb_wakeup:
 1725               	.LFB135:
 729:../../tmk_core/protocol/lufa/lufa.c **** 
 730:../../tmk_core/protocol/lufa/lufa.c **** __attribute__((weak))
 731:../../tmk_core/protocol/lufa/lufa.c **** void hook_usb_wakeup(void)
 732:../../tmk_core/protocol/lufa/lufa.c **** {
 1726               		.loc 1 732 1 is_stmt 1 view -0
 1727               		.cfi_startproc
 1728               	/* prologue: function */
 1729               	/* frame size = 0 */
 1730               	/* stack size = 0 */
 1731               	.L__stack_usage = 0
 733:../../tmk_core/protocol/lufa/lufa.c ****     suspend_wakeup_init();
 1732               		.loc 1 733 5 view .LVU503
 1733 0000 0E94 0000 		call suspend_wakeup_init
 1734               	.LVL87:
 734:../../tmk_core/protocol/lufa/lufa.c **** #ifdef SLEEP_LED_ENABLE
 735:../../tmk_core/protocol/lufa/lufa.c ****     sleep_led_disable();
 736:../../tmk_core/protocol/lufa/lufa.c **** #endif
 737:../../tmk_core/protocol/lufa/lufa.c **** 
 738:../../tmk_core/protocol/lufa/lufa.c ****     // Restore LED status and update at keyboard_task() in main loop
 739:../../tmk_core/protocol/lufa/lufa.c ****     keyboard_led_stats = _led_stats;
 1735               		.loc 1 739 5 view .LVU504
 1736               		.loc 1 739 24 is_stmt 0 view .LVU505
 1737 0004 8091 0000 		lds r24,_led_stats
 1738 0008 8093 0000 		sts keyboard_led_stats,r24
 1739               	/* epilogue start */
 740:../../tmk_core/protocol/lufa/lufa.c **** 
 741:../../tmk_core/protocol/lufa/lufa.c ****     // Calling long task here can prevent USB state transition
 742:../../tmk_core/protocol/lufa/lufa.c **** }
 1740               		.loc 1 742 1 view .LVU506
 1741 000c 0895      		ret
 1742               		.cfi_endproc
 1743               	.LFE135:
 1745               		.section	.text.EVENT_USB_Device_WakeUp,"ax",@progbits
 1746               	.global	EVENT_USB_Device_WakeUp
 1748               	EVENT_USB_Device_WakeUp:
 1749               	.LFB118:
 268:../../tmk_core/protocol/lufa/lufa.c **** #ifdef LUFA_DEBUG
 1750               		.loc 1 268 1 is_stmt 1 view -0
 1751               		.cfi_startproc
 1752               	/* prologue: function */
 1753               	/* frame size = 0 */
 1754               	/* stack size = 0 */
 1755               	.L__stack_usage = 0
 272:../../tmk_core/protocol/lufa/lufa.c **** }
 1756               		.loc 1 272 5 view .LVU508
 1757 0000 0C94 0000 		jmp hook_usb_wakeup
 1758               	.LVL88:
 1759               		.cfi_endproc
 1760               	.LFE118:
 1762               		.section	.text.hook_usb_startup_wait_loop,"ax",@progbits
 1763               		.weak	hook_usb_startup_wait_loop
 1765               	hook_usb_startup_wait_loop:
 1766               	.LFB140:
 1767               		.cfi_startproc
 1768               	/* prologue: function */
 1769               	/* frame size = 0 */
 1770               	/* stack size = 0 */
 1771               	.L__stack_usage = 0
 1772               	/* epilogue start */
 1773 0000 0895      		ret
 1774               		.cfi_endproc
 1775               	.LFE140:
 1777               		.section	.text.startup.main,"ax",@progbits
 1778               		.weak	main
 1780               	main:
 1781               	.LFB130:
 629:../../tmk_core/protocol/lufa/lufa.c ****     setup_mcu();
 1782               		.loc 1 629 1 view -0
 1783               		.cfi_startproc
 1784               	/* prologue: function */
 1785               	/* frame size = 0 */
 1786               	/* stack size = 0 */
 1787               	.L__stack_usage = 0
 630:../../tmk_core/protocol/lufa/lufa.c **** 
 1788               		.loc 1 630 5 view .LVU510
 1789               	.LBB489:
 1790               	.LBI489:
 607:../../tmk_core/protocol/lufa/lufa.c **** {
 1791               		.loc 1 607 13 view .LVU511
 1792               	.LBB490:
 610:../../tmk_core/protocol/lufa/lufa.c ****     wdt_disable();
 1793               		.loc 1 610 5 view .LVU512
 610:../../tmk_core/protocol/lufa/lufa.c ****     wdt_disable();
 1794               		.loc 1 610 11 is_stmt 0 view .LVU513
 1795 0000 84B7      		in r24,0x34
 1796 0002 877F      		andi r24,lo8(-9)
 1797 0004 84BF      		out 0x34,r24
 611:../../tmk_core/protocol/lufa/lufa.c **** 
 1798               		.loc 1 611 5 is_stmt 1 view .LVU514
 1799               	.LBB491:
 1800               	.LBI491:
 1801               		.file 7 "/usr/local/Cellar/avr-gcc/9.1.0/avr/include/avr/wdt.h"
   1:/usr/local/Cellar/avr-gcc/9.1.0/avr/include/avr/wdt.h **** /* Copyright (c) 2002, 2004 Marek Michalkiewicz
   2:/usr/local/Cellar/avr-gcc/9.1.0/avr/include/avr/wdt.h ****    Copyright (c) 2005, 2006, 2007 Eric B. Weddington
   3:/usr/local/Cellar/avr-gcc/9.1.0/avr/include/avr/wdt.h ****    All rights reserved.
   4:/usr/local/Cellar/avr-gcc/9.1.0/avr/include/avr/wdt.h **** 
   5:/usr/local/Cellar/avr-gcc/9.1.0/avr/include/avr/wdt.h ****    Redistribution and use in source and binary forms, with or without
   6:/usr/local/Cellar/avr-gcc/9.1.0/avr/include/avr/wdt.h ****    modification, are permitted provided that the following conditions are met:
   7:/usr/local/Cellar/avr-gcc/9.1.0/avr/include/avr/wdt.h **** 
   8:/usr/local/Cellar/avr-gcc/9.1.0/avr/include/avr/wdt.h ****    * Redistributions of source code must retain the above copyright
   9:/usr/local/Cellar/avr-gcc/9.1.0/avr/include/avr/wdt.h ****      notice, this list of conditions and the following disclaimer.
  10:/usr/local/Cellar/avr-gcc/9.1.0/avr/include/avr/wdt.h **** 
  11:/usr/local/Cellar/avr-gcc/9.1.0/avr/include/avr/wdt.h ****    * Redistributions in binary form must reproduce the above copyright
  12:/usr/local/Cellar/avr-gcc/9.1.0/avr/include/avr/wdt.h ****      notice, this list of conditions and the following disclaimer in
  13:/usr/local/Cellar/avr-gcc/9.1.0/avr/include/avr/wdt.h ****      the documentation and/or other materials provided with the
  14:/usr/local/Cellar/avr-gcc/9.1.0/avr/include/avr/wdt.h ****      distribution.
  15:/usr/local/Cellar/avr-gcc/9.1.0/avr/include/avr/wdt.h **** 
  16:/usr/local/Cellar/avr-gcc/9.1.0/avr/include/avr/wdt.h ****    * Neither the name of the copyright holders nor the names of
  17:/usr/local/Cellar/avr-gcc/9.1.0/avr/include/avr/wdt.h ****      contributors may be used to endorse or promote products derived
  18:/usr/local/Cellar/avr-gcc/9.1.0/avr/include/avr/wdt.h ****      from this software without specific prior written permission.
  19:/usr/local/Cellar/avr-gcc/9.1.0/avr/include/avr/wdt.h **** 
  20:/usr/local/Cellar/avr-gcc/9.1.0/avr/include/avr/wdt.h ****   THIS SOFTWARE IS PROVIDED BY THE COPYRIGHT HOLDERS AND CONTRIBUTORS "AS IS"
  21:/usr/local/Cellar/avr-gcc/9.1.0/avr/include/avr/wdt.h ****   AND ANY EXPRESS OR IMPLIED WARRANTIES, INCLUDING, BUT NOT LIMITED TO, THE
  22:/usr/local/Cellar/avr-gcc/9.1.0/avr/include/avr/wdt.h ****   IMPLIED WARRANTIES OF MERCHANTABILITY AND FITNESS FOR A PARTICULAR PURPOSE
  23:/usr/local/Cellar/avr-gcc/9.1.0/avr/include/avr/wdt.h ****   ARE DISCLAIMED. IN NO EVENT SHALL THE COPYRIGHT OWNER OR CONTRIBUTORS BE
  24:/usr/local/Cellar/avr-gcc/9.1.0/avr/include/avr/wdt.h ****   LIABLE FOR ANY DIRECT, INDIRECT, INCIDENTAL, SPECIAL, EXEMPLARY, OR
  25:/usr/local/Cellar/avr-gcc/9.1.0/avr/include/avr/wdt.h ****   CONSEQUENTIAL DAMAGES (INCLUDING, BUT NOT LIMITED TO, PROCUREMENT OF
  26:/usr/local/Cellar/avr-gcc/9.1.0/avr/include/avr/wdt.h ****   SUBSTITUTE GOODS OR SERVICES; LOSS OF USE, DATA, OR PROFITS; OR BUSINESS
  27:/usr/local/Cellar/avr-gcc/9.1.0/avr/include/avr/wdt.h ****   INTERRUPTION) HOWEVER CAUSED AND ON ANY THEORY OF LIABILITY, WHETHER IN
  28:/usr/local/Cellar/avr-gcc/9.1.0/avr/include/avr/wdt.h ****   CONTRACT, STRICT LIABILITY, OR TORT (INCLUDING NEGLIGENCE OR OTHERWISE)
  29:/usr/local/Cellar/avr-gcc/9.1.0/avr/include/avr/wdt.h ****   ARISING IN ANY WAY OUT OF THE USE OF THIS SOFTWARE, EVEN IF ADVISED OF THE
  30:/usr/local/Cellar/avr-gcc/9.1.0/avr/include/avr/wdt.h ****   POSSIBILITY OF SUCH DAMAGE. */
  31:/usr/local/Cellar/avr-gcc/9.1.0/avr/include/avr/wdt.h **** 
  32:/usr/local/Cellar/avr-gcc/9.1.0/avr/include/avr/wdt.h **** /* $Id: wdt.h 2503 2016-02-07 22:59:47Z joerg_wunsch $ */
  33:/usr/local/Cellar/avr-gcc/9.1.0/avr/include/avr/wdt.h **** 
  34:/usr/local/Cellar/avr-gcc/9.1.0/avr/include/avr/wdt.h **** /*
  35:/usr/local/Cellar/avr-gcc/9.1.0/avr/include/avr/wdt.h ****    avr/wdt.h - macros for AVR watchdog timer
  36:/usr/local/Cellar/avr-gcc/9.1.0/avr/include/avr/wdt.h ****  */
  37:/usr/local/Cellar/avr-gcc/9.1.0/avr/include/avr/wdt.h **** 
  38:/usr/local/Cellar/avr-gcc/9.1.0/avr/include/avr/wdt.h **** #ifndef _AVR_WDT_H_
  39:/usr/local/Cellar/avr-gcc/9.1.0/avr/include/avr/wdt.h **** #define _AVR_WDT_H_
  40:/usr/local/Cellar/avr-gcc/9.1.0/avr/include/avr/wdt.h **** 
  41:/usr/local/Cellar/avr-gcc/9.1.0/avr/include/avr/wdt.h **** #include <avr/io.h>
  42:/usr/local/Cellar/avr-gcc/9.1.0/avr/include/avr/wdt.h **** #include <stdint.h>
  43:/usr/local/Cellar/avr-gcc/9.1.0/avr/include/avr/wdt.h **** 
  44:/usr/local/Cellar/avr-gcc/9.1.0/avr/include/avr/wdt.h **** /** \file */
  45:/usr/local/Cellar/avr-gcc/9.1.0/avr/include/avr/wdt.h **** /** \defgroup avr_watchdog <avr/wdt.h>: Watchdog timer handling
  46:/usr/local/Cellar/avr-gcc/9.1.0/avr/include/avr/wdt.h ****     \code #include <avr/wdt.h> \endcode
  47:/usr/local/Cellar/avr-gcc/9.1.0/avr/include/avr/wdt.h **** 
  48:/usr/local/Cellar/avr-gcc/9.1.0/avr/include/avr/wdt.h ****     This header file declares the interface to some inline macros
  49:/usr/local/Cellar/avr-gcc/9.1.0/avr/include/avr/wdt.h ****     handling the watchdog timer present in many AVR devices.  In order
  50:/usr/local/Cellar/avr-gcc/9.1.0/avr/include/avr/wdt.h ****     to prevent the watchdog timer configuration from being
  51:/usr/local/Cellar/avr-gcc/9.1.0/avr/include/avr/wdt.h ****     accidentally altered by a crashing application, a special timed
  52:/usr/local/Cellar/avr-gcc/9.1.0/avr/include/avr/wdt.h ****     sequence is required in order to change it.  The macros within
  53:/usr/local/Cellar/avr-gcc/9.1.0/avr/include/avr/wdt.h ****     this header file handle the required sequence automatically
  54:/usr/local/Cellar/avr-gcc/9.1.0/avr/include/avr/wdt.h ****     before changing any value.  Interrupts will be disabled during
  55:/usr/local/Cellar/avr-gcc/9.1.0/avr/include/avr/wdt.h ****     the manipulation.
  56:/usr/local/Cellar/avr-gcc/9.1.0/avr/include/avr/wdt.h **** 
  57:/usr/local/Cellar/avr-gcc/9.1.0/avr/include/avr/wdt.h ****     \note Depending on the fuse configuration of the particular
  58:/usr/local/Cellar/avr-gcc/9.1.0/avr/include/avr/wdt.h ****     device, further restrictions might apply, in particular it might
  59:/usr/local/Cellar/avr-gcc/9.1.0/avr/include/avr/wdt.h ****     be disallowed to turn off the watchdog timer.
  60:/usr/local/Cellar/avr-gcc/9.1.0/avr/include/avr/wdt.h **** 
  61:/usr/local/Cellar/avr-gcc/9.1.0/avr/include/avr/wdt.h ****     Note that for newer devices (ATmega88 and newer, effectively any
  62:/usr/local/Cellar/avr-gcc/9.1.0/avr/include/avr/wdt.h ****     AVR that has the option to also generate interrupts), the watchdog
  63:/usr/local/Cellar/avr-gcc/9.1.0/avr/include/avr/wdt.h ****     timer remains active even after a system reset (except a power-on
  64:/usr/local/Cellar/avr-gcc/9.1.0/avr/include/avr/wdt.h ****     condition), using the fastest prescaler value (approximately 15
  65:/usr/local/Cellar/avr-gcc/9.1.0/avr/include/avr/wdt.h ****     ms).  It is therefore required to turn off the watchdog early
  66:/usr/local/Cellar/avr-gcc/9.1.0/avr/include/avr/wdt.h ****     during program startup, the datasheet recommends a sequence like
  67:/usr/local/Cellar/avr-gcc/9.1.0/avr/include/avr/wdt.h ****     the following:
  68:/usr/local/Cellar/avr-gcc/9.1.0/avr/include/avr/wdt.h **** 
  69:/usr/local/Cellar/avr-gcc/9.1.0/avr/include/avr/wdt.h ****     \code
  70:/usr/local/Cellar/avr-gcc/9.1.0/avr/include/avr/wdt.h ****     #include <stdint.h>
  71:/usr/local/Cellar/avr-gcc/9.1.0/avr/include/avr/wdt.h ****     #include <avr/wdt.h>
  72:/usr/local/Cellar/avr-gcc/9.1.0/avr/include/avr/wdt.h **** 
  73:/usr/local/Cellar/avr-gcc/9.1.0/avr/include/avr/wdt.h ****     uint8_t mcusr_mirror __attribute__ ((section (".noinit")));
  74:/usr/local/Cellar/avr-gcc/9.1.0/avr/include/avr/wdt.h **** 
  75:/usr/local/Cellar/avr-gcc/9.1.0/avr/include/avr/wdt.h ****     void get_mcusr(void) \
  76:/usr/local/Cellar/avr-gcc/9.1.0/avr/include/avr/wdt.h ****       __attribute__((naked)) \
  77:/usr/local/Cellar/avr-gcc/9.1.0/avr/include/avr/wdt.h ****       __attribute__((section(".init3")));
  78:/usr/local/Cellar/avr-gcc/9.1.0/avr/include/avr/wdt.h ****     void get_mcusr(void)
  79:/usr/local/Cellar/avr-gcc/9.1.0/avr/include/avr/wdt.h ****     {
  80:/usr/local/Cellar/avr-gcc/9.1.0/avr/include/avr/wdt.h ****       mcusr_mirror = MCUSR;
  81:/usr/local/Cellar/avr-gcc/9.1.0/avr/include/avr/wdt.h ****       MCUSR = 0;
  82:/usr/local/Cellar/avr-gcc/9.1.0/avr/include/avr/wdt.h ****       wdt_disable();
  83:/usr/local/Cellar/avr-gcc/9.1.0/avr/include/avr/wdt.h ****     }
  84:/usr/local/Cellar/avr-gcc/9.1.0/avr/include/avr/wdt.h ****     \endcode
  85:/usr/local/Cellar/avr-gcc/9.1.0/avr/include/avr/wdt.h **** 
  86:/usr/local/Cellar/avr-gcc/9.1.0/avr/include/avr/wdt.h ****     Saving the value of MCUSR in \c mcusr_mirror is only needed if the
  87:/usr/local/Cellar/avr-gcc/9.1.0/avr/include/avr/wdt.h ****     application later wants to examine the reset source, but in particular, 
  88:/usr/local/Cellar/avr-gcc/9.1.0/avr/include/avr/wdt.h ****     clearing the watchdog reset flag before disabling the
  89:/usr/local/Cellar/avr-gcc/9.1.0/avr/include/avr/wdt.h ****     watchdog is required, according to the datasheet.
  90:/usr/local/Cellar/avr-gcc/9.1.0/avr/include/avr/wdt.h **** */
  91:/usr/local/Cellar/avr-gcc/9.1.0/avr/include/avr/wdt.h **** 
  92:/usr/local/Cellar/avr-gcc/9.1.0/avr/include/avr/wdt.h **** /**
  93:/usr/local/Cellar/avr-gcc/9.1.0/avr/include/avr/wdt.h ****    \ingroup avr_watchdog
  94:/usr/local/Cellar/avr-gcc/9.1.0/avr/include/avr/wdt.h ****    Reset the watchdog timer.  When the watchdog timer is enabled,
  95:/usr/local/Cellar/avr-gcc/9.1.0/avr/include/avr/wdt.h ****    a call to this instruction is required before the timer expires,
  96:/usr/local/Cellar/avr-gcc/9.1.0/avr/include/avr/wdt.h ****    otherwise a watchdog-initiated device reset will occur. 
  97:/usr/local/Cellar/avr-gcc/9.1.0/avr/include/avr/wdt.h **** */
  98:/usr/local/Cellar/avr-gcc/9.1.0/avr/include/avr/wdt.h **** 
  99:/usr/local/Cellar/avr-gcc/9.1.0/avr/include/avr/wdt.h **** #define wdt_reset() __asm__ __volatile__ ("wdr")
 100:/usr/local/Cellar/avr-gcc/9.1.0/avr/include/avr/wdt.h **** 
 101:/usr/local/Cellar/avr-gcc/9.1.0/avr/include/avr/wdt.h **** #ifndef __DOXYGEN__
 102:/usr/local/Cellar/avr-gcc/9.1.0/avr/include/avr/wdt.h **** 
 103:/usr/local/Cellar/avr-gcc/9.1.0/avr/include/avr/wdt.h **** #if defined(WDP3)
 104:/usr/local/Cellar/avr-gcc/9.1.0/avr/include/avr/wdt.h **** # define _WD_PS3_MASK       _BV(WDP3)
 105:/usr/local/Cellar/avr-gcc/9.1.0/avr/include/avr/wdt.h **** #else
 106:/usr/local/Cellar/avr-gcc/9.1.0/avr/include/avr/wdt.h **** # define _WD_PS3_MASK       0x00
 107:/usr/local/Cellar/avr-gcc/9.1.0/avr/include/avr/wdt.h **** #endif
 108:/usr/local/Cellar/avr-gcc/9.1.0/avr/include/avr/wdt.h **** 
 109:/usr/local/Cellar/avr-gcc/9.1.0/avr/include/avr/wdt.h **** #if defined(WDTCSR)
 110:/usr/local/Cellar/avr-gcc/9.1.0/avr/include/avr/wdt.h **** #  define _WD_CONTROL_REG     WDTCSR
 111:/usr/local/Cellar/avr-gcc/9.1.0/avr/include/avr/wdt.h **** #elif defined(WDTCR)
 112:/usr/local/Cellar/avr-gcc/9.1.0/avr/include/avr/wdt.h **** #  define _WD_CONTROL_REG     WDTCR
 113:/usr/local/Cellar/avr-gcc/9.1.0/avr/include/avr/wdt.h **** #else
 114:/usr/local/Cellar/avr-gcc/9.1.0/avr/include/avr/wdt.h **** #  define _WD_CONTROL_REG     WDT
 115:/usr/local/Cellar/avr-gcc/9.1.0/avr/include/avr/wdt.h **** #endif
 116:/usr/local/Cellar/avr-gcc/9.1.0/avr/include/avr/wdt.h **** 
 117:/usr/local/Cellar/avr-gcc/9.1.0/avr/include/avr/wdt.h **** #if defined(WDTOE)
 118:/usr/local/Cellar/avr-gcc/9.1.0/avr/include/avr/wdt.h **** #define _WD_CHANGE_BIT      WDTOE
 119:/usr/local/Cellar/avr-gcc/9.1.0/avr/include/avr/wdt.h **** #else
 120:/usr/local/Cellar/avr-gcc/9.1.0/avr/include/avr/wdt.h **** #define _WD_CHANGE_BIT      WDCE
 121:/usr/local/Cellar/avr-gcc/9.1.0/avr/include/avr/wdt.h **** #endif
 122:/usr/local/Cellar/avr-gcc/9.1.0/avr/include/avr/wdt.h **** 
 123:/usr/local/Cellar/avr-gcc/9.1.0/avr/include/avr/wdt.h **** #endif	/* !__DOXYGEN__ */
 124:/usr/local/Cellar/avr-gcc/9.1.0/avr/include/avr/wdt.h **** 
 125:/usr/local/Cellar/avr-gcc/9.1.0/avr/include/avr/wdt.h **** 
 126:/usr/local/Cellar/avr-gcc/9.1.0/avr/include/avr/wdt.h **** /**
 127:/usr/local/Cellar/avr-gcc/9.1.0/avr/include/avr/wdt.h ****    \ingroup avr_watchdog
 128:/usr/local/Cellar/avr-gcc/9.1.0/avr/include/avr/wdt.h ****    Enable the watchdog timer, configuring it for expiry after
 129:/usr/local/Cellar/avr-gcc/9.1.0/avr/include/avr/wdt.h ****    \c timeout (which is a combination of the \c WDP0 through
 130:/usr/local/Cellar/avr-gcc/9.1.0/avr/include/avr/wdt.h ****    \c WDP2 bits to write into the \c WDTCR register; For those devices 
 131:/usr/local/Cellar/avr-gcc/9.1.0/avr/include/avr/wdt.h ****    that have a \c WDTCSR register, it uses the combination of the \c WDP0 
 132:/usr/local/Cellar/avr-gcc/9.1.0/avr/include/avr/wdt.h ****    through \c WDP3 bits).
 133:/usr/local/Cellar/avr-gcc/9.1.0/avr/include/avr/wdt.h **** 
 134:/usr/local/Cellar/avr-gcc/9.1.0/avr/include/avr/wdt.h ****    See also the symbolic constants \c WDTO_15MS et al.
 135:/usr/local/Cellar/avr-gcc/9.1.0/avr/include/avr/wdt.h **** */
 136:/usr/local/Cellar/avr-gcc/9.1.0/avr/include/avr/wdt.h **** 
 137:/usr/local/Cellar/avr-gcc/9.1.0/avr/include/avr/wdt.h **** 
 138:/usr/local/Cellar/avr-gcc/9.1.0/avr/include/avr/wdt.h **** #if defined(__AVR_XMEGA__)
 139:/usr/local/Cellar/avr-gcc/9.1.0/avr/include/avr/wdt.h **** 
 140:/usr/local/Cellar/avr-gcc/9.1.0/avr/include/avr/wdt.h **** /*
 141:/usr/local/Cellar/avr-gcc/9.1.0/avr/include/avr/wdt.h ****    wdt_enable(timeout) for xmega devices
 142:/usr/local/Cellar/avr-gcc/9.1.0/avr/include/avr/wdt.h **** ** write signature (CCP_IOREG_gc) that enables change of protected I/O
 143:/usr/local/Cellar/avr-gcc/9.1.0/avr/include/avr/wdt.h ****    registers to the CCP register
 144:/usr/local/Cellar/avr-gcc/9.1.0/avr/include/avr/wdt.h **** ** At the same time,
 145:/usr/local/Cellar/avr-gcc/9.1.0/avr/include/avr/wdt.h ****    1) set WDT change enable (WDT_CEN_bm)
 146:/usr/local/Cellar/avr-gcc/9.1.0/avr/include/avr/wdt.h ****    2) enable WDT (WDT_ENABLE_bm)
 147:/usr/local/Cellar/avr-gcc/9.1.0/avr/include/avr/wdt.h ****    3) set timeout (timeout)
 148:/usr/local/Cellar/avr-gcc/9.1.0/avr/include/avr/wdt.h **** ** Synchronization starts when ENABLE bit of WDT is set. So, wait till it
 149:/usr/local/Cellar/avr-gcc/9.1.0/avr/include/avr/wdt.h ****    finishes (SYNCBUSY of STATUS register is automatically cleared after the
 150:/usr/local/Cellar/avr-gcc/9.1.0/avr/include/avr/wdt.h ****    sync is finished).
 151:/usr/local/Cellar/avr-gcc/9.1.0/avr/include/avr/wdt.h **** */
 152:/usr/local/Cellar/avr-gcc/9.1.0/avr/include/avr/wdt.h **** #define wdt_enable(timeout) \
 153:/usr/local/Cellar/avr-gcc/9.1.0/avr/include/avr/wdt.h **** do { \
 154:/usr/local/Cellar/avr-gcc/9.1.0/avr/include/avr/wdt.h **** uint8_t temp; \
 155:/usr/local/Cellar/avr-gcc/9.1.0/avr/include/avr/wdt.h **** __asm__ __volatile__ (         \
 156:/usr/local/Cellar/avr-gcc/9.1.0/avr/include/avr/wdt.h ****     "in __tmp_reg__, %[rampd]"              "\n\t" \
 157:/usr/local/Cellar/avr-gcc/9.1.0/avr/include/avr/wdt.h ****     "out %[rampd], __zero_reg__"            "\n\t" \
 158:/usr/local/Cellar/avr-gcc/9.1.0/avr/include/avr/wdt.h ****     "out %[ccp_reg], %[ioreg_cen_mask]"     "\n\t" \
 159:/usr/local/Cellar/avr-gcc/9.1.0/avr/include/avr/wdt.h ****     "sts %[wdt_reg], %[wdt_enable_timeout]" "\n\t" \
 160:/usr/local/Cellar/avr-gcc/9.1.0/avr/include/avr/wdt.h ****     "1:lds %[tmp], %[wdt_status_reg]"       "\n\t" \
 161:/usr/local/Cellar/avr-gcc/9.1.0/avr/include/avr/wdt.h ****     "sbrc %[tmp], %[wdt_syncbusy_bit]"      "\n\t" \
 162:/usr/local/Cellar/avr-gcc/9.1.0/avr/include/avr/wdt.h ****     "rjmp 1b"                               "\n\t" \
 163:/usr/local/Cellar/avr-gcc/9.1.0/avr/include/avr/wdt.h ****     "out %[rampd], __tmp_reg__"             "\n\t" \
 164:/usr/local/Cellar/avr-gcc/9.1.0/avr/include/avr/wdt.h ****     : [tmp]                "=r" (temp) \
 165:/usr/local/Cellar/avr-gcc/9.1.0/avr/include/avr/wdt.h ****     : [rampd]              "I" (_SFR_IO_ADDR(RAMPD)),      \
 166:/usr/local/Cellar/avr-gcc/9.1.0/avr/include/avr/wdt.h ****       [ccp_reg]            "I" (_SFR_IO_ADDR(CCP)),        \
 167:/usr/local/Cellar/avr-gcc/9.1.0/avr/include/avr/wdt.h ****       [ioreg_cen_mask]     "r" ((uint8_t)CCP_IOREG_gc),     \
 168:/usr/local/Cellar/avr-gcc/9.1.0/avr/include/avr/wdt.h ****       [wdt_reg]            "n" (_SFR_MEM_ADDR(WDT_CTRL)),   \
 169:/usr/local/Cellar/avr-gcc/9.1.0/avr/include/avr/wdt.h ****       [wdt_enable_timeout] "r" ((uint8_t)(WDT_CEN_bm | WDT_ENABLE_bm | timeout)), \
 170:/usr/local/Cellar/avr-gcc/9.1.0/avr/include/avr/wdt.h ****       [wdt_status_reg]     "n" (_SFR_MEM_ADDR(WDT_STATUS)), \
 171:/usr/local/Cellar/avr-gcc/9.1.0/avr/include/avr/wdt.h ****       [wdt_syncbusy_bit]   "I" (WDT_SYNCBUSY_bm)            \
 172:/usr/local/Cellar/avr-gcc/9.1.0/avr/include/avr/wdt.h ****     : "r0" \
 173:/usr/local/Cellar/avr-gcc/9.1.0/avr/include/avr/wdt.h **** ); \
 174:/usr/local/Cellar/avr-gcc/9.1.0/avr/include/avr/wdt.h **** } while(0)
 175:/usr/local/Cellar/avr-gcc/9.1.0/avr/include/avr/wdt.h **** 
 176:/usr/local/Cellar/avr-gcc/9.1.0/avr/include/avr/wdt.h **** #define wdt_disable() \
 177:/usr/local/Cellar/avr-gcc/9.1.0/avr/include/avr/wdt.h **** __asm__ __volatile__ (  \
 178:/usr/local/Cellar/avr-gcc/9.1.0/avr/include/avr/wdt.h ****     "in __tmp_reg__, %[rampd]"          "\n\t" \
 179:/usr/local/Cellar/avr-gcc/9.1.0/avr/include/avr/wdt.h ****     "out %[rampd], __zero_reg__"        "\n\t" \
 180:/usr/local/Cellar/avr-gcc/9.1.0/avr/include/avr/wdt.h ****     "out %[ccp_reg], %[ioreg_cen_mask]" "\n\t" \
 181:/usr/local/Cellar/avr-gcc/9.1.0/avr/include/avr/wdt.h ****     "sts %[wdt_reg], %[disable_mask]"   "\n\t" \
 182:/usr/local/Cellar/avr-gcc/9.1.0/avr/include/avr/wdt.h ****     "out %[rampd], __tmp_reg__"         "\n\t" \
 183:/usr/local/Cellar/avr-gcc/9.1.0/avr/include/avr/wdt.h ****     : \
 184:/usr/local/Cellar/avr-gcc/9.1.0/avr/include/avr/wdt.h ****     : [rampd]             "I" (_SFR_IO_ADDR(RAMPD)),    \
 185:/usr/local/Cellar/avr-gcc/9.1.0/avr/include/avr/wdt.h ****       [ccp_reg]           "I" (_SFR_IO_ADDR(CCP)),      \
 186:/usr/local/Cellar/avr-gcc/9.1.0/avr/include/avr/wdt.h ****       [ioreg_cen_mask]    "r" ((uint8_t)CCP_IOREG_gc),   \
 187:/usr/local/Cellar/avr-gcc/9.1.0/avr/include/avr/wdt.h ****       [wdt_reg]           "n" (_SFR_MEM_ADDR(WDT_CTRL)), \
 188:/usr/local/Cellar/avr-gcc/9.1.0/avr/include/avr/wdt.h ****       [disable_mask]      "r" ((uint8_t)((~WDT_ENABLE_bm) | WDT_CEN_bm)) \
 189:/usr/local/Cellar/avr-gcc/9.1.0/avr/include/avr/wdt.h ****     : "r0" \
 190:/usr/local/Cellar/avr-gcc/9.1.0/avr/include/avr/wdt.h **** );
 191:/usr/local/Cellar/avr-gcc/9.1.0/avr/include/avr/wdt.h **** 
 192:/usr/local/Cellar/avr-gcc/9.1.0/avr/include/avr/wdt.h **** #elif defined(__AVR_TINY__)
 193:/usr/local/Cellar/avr-gcc/9.1.0/avr/include/avr/wdt.h **** 
 194:/usr/local/Cellar/avr-gcc/9.1.0/avr/include/avr/wdt.h **** #define wdt_enable(value) \
 195:/usr/local/Cellar/avr-gcc/9.1.0/avr/include/avr/wdt.h **** __asm__ __volatile__ ( \
 196:/usr/local/Cellar/avr-gcc/9.1.0/avr/include/avr/wdt.h ****     "in __tmp_reg__,__SREG__" "\n\t"  \
 197:/usr/local/Cellar/avr-gcc/9.1.0/avr/include/avr/wdt.h ****     "cli" "\n\t"  \
 198:/usr/local/Cellar/avr-gcc/9.1.0/avr/include/avr/wdt.h ****     "wdr" "\n\t"  \
 199:/usr/local/Cellar/avr-gcc/9.1.0/avr/include/avr/wdt.h ****     "out %[CCPADDRESS],%[SIGNATURE]" "\n\t"  \
 200:/usr/local/Cellar/avr-gcc/9.1.0/avr/include/avr/wdt.h ****     "out %[WDTREG],%[WDVALUE]" "\n\t"  \
 201:/usr/local/Cellar/avr-gcc/9.1.0/avr/include/avr/wdt.h ****     "out __SREG__,__tmp_reg__" "\n\t"  \
 202:/usr/local/Cellar/avr-gcc/9.1.0/avr/include/avr/wdt.h ****     : /* no outputs */  \
 203:/usr/local/Cellar/avr-gcc/9.1.0/avr/include/avr/wdt.h ****     : [CCPADDRESS] "I" (_SFR_IO_ADDR(CCP)),  \
 204:/usr/local/Cellar/avr-gcc/9.1.0/avr/include/avr/wdt.h ****       [SIGNATURE] "r" ((uint8_t)0xD8), \
 205:/usr/local/Cellar/avr-gcc/9.1.0/avr/include/avr/wdt.h ****       [WDTREG] "I" (_SFR_IO_ADDR(_WD_CONTROL_REG)), \
 206:/usr/local/Cellar/avr-gcc/9.1.0/avr/include/avr/wdt.h ****       [WDVALUE] "r" ((uint8_t)((value & 0x08 ? _WD_PS3_MASK : 0x00) \
 207:/usr/local/Cellar/avr-gcc/9.1.0/avr/include/avr/wdt.h ****       | _BV(WDE) | (value & 0x07) )) \
 208:/usr/local/Cellar/avr-gcc/9.1.0/avr/include/avr/wdt.h ****     : "r16" \
 209:/usr/local/Cellar/avr-gcc/9.1.0/avr/include/avr/wdt.h **** )
 210:/usr/local/Cellar/avr-gcc/9.1.0/avr/include/avr/wdt.h **** 
 211:/usr/local/Cellar/avr-gcc/9.1.0/avr/include/avr/wdt.h **** #define wdt_disable() \
 212:/usr/local/Cellar/avr-gcc/9.1.0/avr/include/avr/wdt.h **** do { \
 213:/usr/local/Cellar/avr-gcc/9.1.0/avr/include/avr/wdt.h **** uint8_t temp_wd; \
 214:/usr/local/Cellar/avr-gcc/9.1.0/avr/include/avr/wdt.h **** __asm__ __volatile__ ( \
 215:/usr/local/Cellar/avr-gcc/9.1.0/avr/include/avr/wdt.h ****     "in __tmp_reg__,__SREG__" "\n\t"  \
 216:/usr/local/Cellar/avr-gcc/9.1.0/avr/include/avr/wdt.h ****     "cli" "\n\t"  \
 217:/usr/local/Cellar/avr-gcc/9.1.0/avr/include/avr/wdt.h ****     "wdr" "\n\t"  \
 218:/usr/local/Cellar/avr-gcc/9.1.0/avr/include/avr/wdt.h ****     "out %[CCPADDRESS],%[SIGNATURE]" "\n\t"  \
 219:/usr/local/Cellar/avr-gcc/9.1.0/avr/include/avr/wdt.h ****     "in  %[TEMP_WD],%[WDTREG]" "\n\t" \
 220:/usr/local/Cellar/avr-gcc/9.1.0/avr/include/avr/wdt.h ****     "cbr %[TEMP_WD],%[WDVALUE]" "\n\t" \
 221:/usr/local/Cellar/avr-gcc/9.1.0/avr/include/avr/wdt.h ****     "out %[WDTREG],%[TEMP_WD]" "\n\t" \
 222:/usr/local/Cellar/avr-gcc/9.1.0/avr/include/avr/wdt.h ****     "out __SREG__,__tmp_reg__" "\n\t" \
 223:/usr/local/Cellar/avr-gcc/9.1.0/avr/include/avr/wdt.h ****     : /*no output */ \
 224:/usr/local/Cellar/avr-gcc/9.1.0/avr/include/avr/wdt.h ****     : [CCPADDRESS] "I" (_SFR_IO_ADDR(CCP)), \
 225:/usr/local/Cellar/avr-gcc/9.1.0/avr/include/avr/wdt.h ****       [SIGNATURE] "r" ((uint8_t)0xD8), \
 226:/usr/local/Cellar/avr-gcc/9.1.0/avr/include/avr/wdt.h ****       [WDTREG] "I" (_SFR_IO_ADDR(_WD_CONTROL_REG)), \
 227:/usr/local/Cellar/avr-gcc/9.1.0/avr/include/avr/wdt.h ****       [TEMP_WD] "d" (temp_wd), \
 228:/usr/local/Cellar/avr-gcc/9.1.0/avr/include/avr/wdt.h ****       [WDVALUE] "n" (1 << WDE) \
 229:/usr/local/Cellar/avr-gcc/9.1.0/avr/include/avr/wdt.h ****     : "r16" \
 230:/usr/local/Cellar/avr-gcc/9.1.0/avr/include/avr/wdt.h **** ); \
 231:/usr/local/Cellar/avr-gcc/9.1.0/avr/include/avr/wdt.h **** }while(0)
 232:/usr/local/Cellar/avr-gcc/9.1.0/avr/include/avr/wdt.h **** 
 233:/usr/local/Cellar/avr-gcc/9.1.0/avr/include/avr/wdt.h **** #elif defined(CCP)
 234:/usr/local/Cellar/avr-gcc/9.1.0/avr/include/avr/wdt.h **** 
 235:/usr/local/Cellar/avr-gcc/9.1.0/avr/include/avr/wdt.h **** static __inline__
 236:/usr/local/Cellar/avr-gcc/9.1.0/avr/include/avr/wdt.h **** __attribute__ ((__always_inline__))
 237:/usr/local/Cellar/avr-gcc/9.1.0/avr/include/avr/wdt.h **** void wdt_enable (const uint8_t value)
 238:/usr/local/Cellar/avr-gcc/9.1.0/avr/include/avr/wdt.h **** {
 239:/usr/local/Cellar/avr-gcc/9.1.0/avr/include/avr/wdt.h **** 	if (!_SFR_IO_REG_P (CCP) && !_SFR_IO_REG_P (_WD_CONTROL_REG))
 240:/usr/local/Cellar/avr-gcc/9.1.0/avr/include/avr/wdt.h **** 	{
 241:/usr/local/Cellar/avr-gcc/9.1.0/avr/include/avr/wdt.h **** 		__asm__ __volatile__ (
 242:/usr/local/Cellar/avr-gcc/9.1.0/avr/include/avr/wdt.h **** 			"in __tmp_reg__,__SREG__" "\n\t"
 243:/usr/local/Cellar/avr-gcc/9.1.0/avr/include/avr/wdt.h **** 			"cli" "\n\t"
 244:/usr/local/Cellar/avr-gcc/9.1.0/avr/include/avr/wdt.h **** 			"wdr" "\n\t"
 245:/usr/local/Cellar/avr-gcc/9.1.0/avr/include/avr/wdt.h **** 			"sts %[CCPADDRESS],%[SIGNATURE]" "\n\t"
 246:/usr/local/Cellar/avr-gcc/9.1.0/avr/include/avr/wdt.h **** 			"sts %[WDTREG],%[WDVALUE]" "\n\t"
 247:/usr/local/Cellar/avr-gcc/9.1.0/avr/include/avr/wdt.h **** 			"out __SREG__,__tmp_reg__" "\n\t"
 248:/usr/local/Cellar/avr-gcc/9.1.0/avr/include/avr/wdt.h **** 			: /* no outputs */
 249:/usr/local/Cellar/avr-gcc/9.1.0/avr/include/avr/wdt.h **** 			: [CCPADDRESS] "n" (_SFR_MEM_ADDR(CCP)),
 250:/usr/local/Cellar/avr-gcc/9.1.0/avr/include/avr/wdt.h **** 			[SIGNATURE] "r" ((uint8_t)0xD8),
 251:/usr/local/Cellar/avr-gcc/9.1.0/avr/include/avr/wdt.h **** 			[WDTREG] "n" (_SFR_MEM_ADDR(_WD_CONTROL_REG)),
 252:/usr/local/Cellar/avr-gcc/9.1.0/avr/include/avr/wdt.h **** 			[WDVALUE] "r" ((uint8_t)((value & 0x08 ? _WD_PS3_MASK : 0x00)
 253:/usr/local/Cellar/avr-gcc/9.1.0/avr/include/avr/wdt.h **** 				| _BV(WDE) | (value & 0x07) ))
 254:/usr/local/Cellar/avr-gcc/9.1.0/avr/include/avr/wdt.h **** 			: "r0"
 255:/usr/local/Cellar/avr-gcc/9.1.0/avr/include/avr/wdt.h **** 			);
 256:/usr/local/Cellar/avr-gcc/9.1.0/avr/include/avr/wdt.h **** 	}
 257:/usr/local/Cellar/avr-gcc/9.1.0/avr/include/avr/wdt.h **** 	else if (!_SFR_IO_REG_P (CCP) && _SFR_IO_REG_P (_WD_CONTROL_REG))
 258:/usr/local/Cellar/avr-gcc/9.1.0/avr/include/avr/wdt.h **** 	{
 259:/usr/local/Cellar/avr-gcc/9.1.0/avr/include/avr/wdt.h **** 		__asm__ __volatile__ (
 260:/usr/local/Cellar/avr-gcc/9.1.0/avr/include/avr/wdt.h **** 			"in __tmp_reg__,__SREG__" "\n\t"
 261:/usr/local/Cellar/avr-gcc/9.1.0/avr/include/avr/wdt.h **** 			"cli" "\n\t"
 262:/usr/local/Cellar/avr-gcc/9.1.0/avr/include/avr/wdt.h **** 			"wdr" "\n\t"
 263:/usr/local/Cellar/avr-gcc/9.1.0/avr/include/avr/wdt.h **** 			"sts %[CCPADDRESS],%[SIGNATURE]" "\n\t"
 264:/usr/local/Cellar/avr-gcc/9.1.0/avr/include/avr/wdt.h **** 			"out %[WDTREG],%[WDVALUE]" "\n\t"
 265:/usr/local/Cellar/avr-gcc/9.1.0/avr/include/avr/wdt.h **** 			"out __SREG__,__tmp_reg__" "\n\t"
 266:/usr/local/Cellar/avr-gcc/9.1.0/avr/include/avr/wdt.h **** 			: /* no outputs */
 267:/usr/local/Cellar/avr-gcc/9.1.0/avr/include/avr/wdt.h **** 			: [CCPADDRESS] "n" (_SFR_MEM_ADDR(CCP)),
 268:/usr/local/Cellar/avr-gcc/9.1.0/avr/include/avr/wdt.h **** 			[SIGNATURE] "r" ((uint8_t)0xD8),
 269:/usr/local/Cellar/avr-gcc/9.1.0/avr/include/avr/wdt.h **** 			[WDTREG] "I" (_SFR_IO_ADDR(_WD_CONTROL_REG)),
 270:/usr/local/Cellar/avr-gcc/9.1.0/avr/include/avr/wdt.h **** 			[WDVALUE] "r" ((uint8_t)((value & 0x08 ? _WD_PS3_MASK : 0x00)
 271:/usr/local/Cellar/avr-gcc/9.1.0/avr/include/avr/wdt.h **** 				| _BV(WDE) | (value & 0x07) ))
 272:/usr/local/Cellar/avr-gcc/9.1.0/avr/include/avr/wdt.h **** 			: "r0"
 273:/usr/local/Cellar/avr-gcc/9.1.0/avr/include/avr/wdt.h **** 			);
 274:/usr/local/Cellar/avr-gcc/9.1.0/avr/include/avr/wdt.h **** 	}
 275:/usr/local/Cellar/avr-gcc/9.1.0/avr/include/avr/wdt.h **** 	else if (_SFR_IO_REG_P (CCP) && !_SFR_IO_REG_P (_WD_CONTROL_REG))
 276:/usr/local/Cellar/avr-gcc/9.1.0/avr/include/avr/wdt.h **** 	{
 277:/usr/local/Cellar/avr-gcc/9.1.0/avr/include/avr/wdt.h **** 		__asm__ __volatile__ (
 278:/usr/local/Cellar/avr-gcc/9.1.0/avr/include/avr/wdt.h **** 			"in __tmp_reg__,__SREG__" "\n\t"
 279:/usr/local/Cellar/avr-gcc/9.1.0/avr/include/avr/wdt.h **** 			"cli" "\n\t"
 280:/usr/local/Cellar/avr-gcc/9.1.0/avr/include/avr/wdt.h **** 			"wdr" "\n\t"
 281:/usr/local/Cellar/avr-gcc/9.1.0/avr/include/avr/wdt.h **** 			"out %[CCPADDRESS],%[SIGNATURE]" "\n\t"
 282:/usr/local/Cellar/avr-gcc/9.1.0/avr/include/avr/wdt.h **** 			"sts %[WDTREG],%[WDVALUE]" "\n\t"
 283:/usr/local/Cellar/avr-gcc/9.1.0/avr/include/avr/wdt.h **** 			"out __SREG__,__tmp_reg__" "\n\t"
 284:/usr/local/Cellar/avr-gcc/9.1.0/avr/include/avr/wdt.h **** 			: /* no outputs */
 285:/usr/local/Cellar/avr-gcc/9.1.0/avr/include/avr/wdt.h **** 			: [CCPADDRESS] "I" (_SFR_IO_ADDR(CCP)),
 286:/usr/local/Cellar/avr-gcc/9.1.0/avr/include/avr/wdt.h **** 			[SIGNATURE] "r" ((uint8_t)0xD8),
 287:/usr/local/Cellar/avr-gcc/9.1.0/avr/include/avr/wdt.h **** 			[WDTREG] "n" (_SFR_MEM_ADDR(_WD_CONTROL_REG)),
 288:/usr/local/Cellar/avr-gcc/9.1.0/avr/include/avr/wdt.h **** 			[WDVALUE] "r" ((uint8_t)((value & 0x08 ? _WD_PS3_MASK : 0x00)
 289:/usr/local/Cellar/avr-gcc/9.1.0/avr/include/avr/wdt.h **** 				| _BV(WDE) | (value & 0x07) ))
 290:/usr/local/Cellar/avr-gcc/9.1.0/avr/include/avr/wdt.h **** 			: "r0"
 291:/usr/local/Cellar/avr-gcc/9.1.0/avr/include/avr/wdt.h **** 			);
 292:/usr/local/Cellar/avr-gcc/9.1.0/avr/include/avr/wdt.h **** 	}
 293:/usr/local/Cellar/avr-gcc/9.1.0/avr/include/avr/wdt.h **** 	else
 294:/usr/local/Cellar/avr-gcc/9.1.0/avr/include/avr/wdt.h ****  	{
 295:/usr/local/Cellar/avr-gcc/9.1.0/avr/include/avr/wdt.h **** 		__asm__ __volatile__ (
 296:/usr/local/Cellar/avr-gcc/9.1.0/avr/include/avr/wdt.h **** 			"in __tmp_reg__,__SREG__" "\n\t"
 297:/usr/local/Cellar/avr-gcc/9.1.0/avr/include/avr/wdt.h **** 			"cli" "\n\t"
 298:/usr/local/Cellar/avr-gcc/9.1.0/avr/include/avr/wdt.h **** 			"wdr" "\n\t"
 299:/usr/local/Cellar/avr-gcc/9.1.0/avr/include/avr/wdt.h **** 			"out %[CCPADDRESS],%[SIGNATURE]" "\n\t"
 300:/usr/local/Cellar/avr-gcc/9.1.0/avr/include/avr/wdt.h **** 			"out %[WDTREG],%[WDVALUE]" "\n\t"
 301:/usr/local/Cellar/avr-gcc/9.1.0/avr/include/avr/wdt.h **** 			"out __SREG__,__tmp_reg__" "\n\t"
 302:/usr/local/Cellar/avr-gcc/9.1.0/avr/include/avr/wdt.h **** 			: /* no outputs */
 303:/usr/local/Cellar/avr-gcc/9.1.0/avr/include/avr/wdt.h **** 			: [CCPADDRESS] "I" (_SFR_IO_ADDR(CCP)),
 304:/usr/local/Cellar/avr-gcc/9.1.0/avr/include/avr/wdt.h **** 			[SIGNATURE] "r" ((uint8_t)0xD8),
 305:/usr/local/Cellar/avr-gcc/9.1.0/avr/include/avr/wdt.h **** 			[WDTREG] "I" (_SFR_IO_ADDR(_WD_CONTROL_REG)),
 306:/usr/local/Cellar/avr-gcc/9.1.0/avr/include/avr/wdt.h **** 			[WDVALUE] "r" ((uint8_t)((value & 0x08 ? _WD_PS3_MASK : 0x00)
 307:/usr/local/Cellar/avr-gcc/9.1.0/avr/include/avr/wdt.h **** 				| _BV(WDE) | (value & 0x07) ))
 308:/usr/local/Cellar/avr-gcc/9.1.0/avr/include/avr/wdt.h **** 			: "r0"
 309:/usr/local/Cellar/avr-gcc/9.1.0/avr/include/avr/wdt.h **** 			);
 310:/usr/local/Cellar/avr-gcc/9.1.0/avr/include/avr/wdt.h **** 	}
 311:/usr/local/Cellar/avr-gcc/9.1.0/avr/include/avr/wdt.h **** }
 312:/usr/local/Cellar/avr-gcc/9.1.0/avr/include/avr/wdt.h **** 
 313:/usr/local/Cellar/avr-gcc/9.1.0/avr/include/avr/wdt.h **** static __inline__
 314:/usr/local/Cellar/avr-gcc/9.1.0/avr/include/avr/wdt.h **** __attribute__ ((__always_inline__))
 315:/usr/local/Cellar/avr-gcc/9.1.0/avr/include/avr/wdt.h **** void wdt_disable (void)
 316:/usr/local/Cellar/avr-gcc/9.1.0/avr/include/avr/wdt.h **** {
 317:/usr/local/Cellar/avr-gcc/9.1.0/avr/include/avr/wdt.h **** 	if (!_SFR_IO_REG_P (CCP) && !_SFR_IO_REG_P(_WD_CONTROL_REG))
 318:/usr/local/Cellar/avr-gcc/9.1.0/avr/include/avr/wdt.h **** 	{
 319:/usr/local/Cellar/avr-gcc/9.1.0/avr/include/avr/wdt.h ****         uint8_t temp_wd;
 320:/usr/local/Cellar/avr-gcc/9.1.0/avr/include/avr/wdt.h ****         __asm__ __volatile__ (
 321:/usr/local/Cellar/avr-gcc/9.1.0/avr/include/avr/wdt.h **** 				"in __tmp_reg__,__SREG__" "\n\t"
 322:/usr/local/Cellar/avr-gcc/9.1.0/avr/include/avr/wdt.h **** 				"cli" "\n\t"
 323:/usr/local/Cellar/avr-gcc/9.1.0/avr/include/avr/wdt.h **** 				"wdr" "\n\t"
 324:/usr/local/Cellar/avr-gcc/9.1.0/avr/include/avr/wdt.h **** 				"sts %[CCPADDRESS],%[SIGNATURE]" "\n\t"
 325:/usr/local/Cellar/avr-gcc/9.1.0/avr/include/avr/wdt.h **** 				"lds %[TEMP_WD],%[WDTREG]" "\n\t"
 326:/usr/local/Cellar/avr-gcc/9.1.0/avr/include/avr/wdt.h **** 				"cbr %[TEMP_WD],%[WDVALUE]" "\n\t"
 327:/usr/local/Cellar/avr-gcc/9.1.0/avr/include/avr/wdt.h **** 				"sts %[WDTREG],%[TEMP_WD]" "\n\t"
 328:/usr/local/Cellar/avr-gcc/9.1.0/avr/include/avr/wdt.h **** 				"out __SREG__,__tmp_reg__" "\n\t"
 329:/usr/local/Cellar/avr-gcc/9.1.0/avr/include/avr/wdt.h **** 				: /*no output */
 330:/usr/local/Cellar/avr-gcc/9.1.0/avr/include/avr/wdt.h **** 				: [CCPADDRESS] "n" (_SFR_MEM_ADDR(CCP)),
 331:/usr/local/Cellar/avr-gcc/9.1.0/avr/include/avr/wdt.h **** 				[SIGNATURE] "r" ((uint8_t)0xD8),
 332:/usr/local/Cellar/avr-gcc/9.1.0/avr/include/avr/wdt.h **** 				[WDTREG] "n" (_SFR_MEM_ADDR(_WD_CONTROL_REG)),
 333:/usr/local/Cellar/avr-gcc/9.1.0/avr/include/avr/wdt.h **** 				[TEMP_WD] "d" (temp_wd),
 334:/usr/local/Cellar/avr-gcc/9.1.0/avr/include/avr/wdt.h **** 				[WDVALUE] "n" (1 << WDE)
 335:/usr/local/Cellar/avr-gcc/9.1.0/avr/include/avr/wdt.h **** 				: "r0"
 336:/usr/local/Cellar/avr-gcc/9.1.0/avr/include/avr/wdt.h **** 				);
 337:/usr/local/Cellar/avr-gcc/9.1.0/avr/include/avr/wdt.h **** 	}
 338:/usr/local/Cellar/avr-gcc/9.1.0/avr/include/avr/wdt.h **** 	else if (!_SFR_IO_REG_P (CCP) && _SFR_IO_REG_P(_WD_CONTROL_REG))
 339:/usr/local/Cellar/avr-gcc/9.1.0/avr/include/avr/wdt.h **** 	{
 340:/usr/local/Cellar/avr-gcc/9.1.0/avr/include/avr/wdt.h ****         uint8_t temp_wd;
 341:/usr/local/Cellar/avr-gcc/9.1.0/avr/include/avr/wdt.h ****         __asm__ __volatile__ (
 342:/usr/local/Cellar/avr-gcc/9.1.0/avr/include/avr/wdt.h **** 				"in __tmp_reg__,__SREG__" "\n\t"
 343:/usr/local/Cellar/avr-gcc/9.1.0/avr/include/avr/wdt.h **** 				"cli" "\n\t"
 344:/usr/local/Cellar/avr-gcc/9.1.0/avr/include/avr/wdt.h **** 				"wdr" "\n\t"
 345:/usr/local/Cellar/avr-gcc/9.1.0/avr/include/avr/wdt.h **** 				"sts %[CCPADDRESS],%[SIGNATURE]" "\n\t"
 346:/usr/local/Cellar/avr-gcc/9.1.0/avr/include/avr/wdt.h **** 				"in %[TEMP_WD],%[WDTREG]" "\n\t"
 347:/usr/local/Cellar/avr-gcc/9.1.0/avr/include/avr/wdt.h **** 				"cbr %[TEMP_WD],%[WDVALUE]" "\n\t"
 348:/usr/local/Cellar/avr-gcc/9.1.0/avr/include/avr/wdt.h **** 				"out %[WDTREG],%[TEMP_WD]" "\n\t"
 349:/usr/local/Cellar/avr-gcc/9.1.0/avr/include/avr/wdt.h **** 				"out __SREG__,__tmp_reg__" "\n\t"
 350:/usr/local/Cellar/avr-gcc/9.1.0/avr/include/avr/wdt.h **** 				: /*no output */
 351:/usr/local/Cellar/avr-gcc/9.1.0/avr/include/avr/wdt.h **** 				: [CCPADDRESS] "n" (_SFR_MEM_ADDR(CCP)),
 352:/usr/local/Cellar/avr-gcc/9.1.0/avr/include/avr/wdt.h **** 				[SIGNATURE] "r" ((uint8_t)0xD8),
 353:/usr/local/Cellar/avr-gcc/9.1.0/avr/include/avr/wdt.h **** 				[WDTREG] "I" (_SFR_IO_ADDR(_WD_CONTROL_REG)),
 354:/usr/local/Cellar/avr-gcc/9.1.0/avr/include/avr/wdt.h **** 				[TEMP_WD] "d" (temp_wd),
 355:/usr/local/Cellar/avr-gcc/9.1.0/avr/include/avr/wdt.h **** 				[WDVALUE] "n" (1 << WDE)
 356:/usr/local/Cellar/avr-gcc/9.1.0/avr/include/avr/wdt.h **** 				: "r0"
 357:/usr/local/Cellar/avr-gcc/9.1.0/avr/include/avr/wdt.h **** 				);
 358:/usr/local/Cellar/avr-gcc/9.1.0/avr/include/avr/wdt.h **** 	}
 359:/usr/local/Cellar/avr-gcc/9.1.0/avr/include/avr/wdt.h **** 	else if (_SFR_IO_REG_P (CCP) && !_SFR_IO_REG_P(_WD_CONTROL_REG))
 360:/usr/local/Cellar/avr-gcc/9.1.0/avr/include/avr/wdt.h **** 	{
 361:/usr/local/Cellar/avr-gcc/9.1.0/avr/include/avr/wdt.h ****         uint8_t temp_wd;
 362:/usr/local/Cellar/avr-gcc/9.1.0/avr/include/avr/wdt.h ****         __asm__ __volatile__ (
 363:/usr/local/Cellar/avr-gcc/9.1.0/avr/include/avr/wdt.h **** 				"in __tmp_reg__,__SREG__" "\n\t"
 364:/usr/local/Cellar/avr-gcc/9.1.0/avr/include/avr/wdt.h **** 				"cli" "\n\t"
 365:/usr/local/Cellar/avr-gcc/9.1.0/avr/include/avr/wdt.h **** 				"wdr" "\n\t"
 366:/usr/local/Cellar/avr-gcc/9.1.0/avr/include/avr/wdt.h **** 				"out %[CCPADDRESS],%[SIGNATURE]" "\n\t"
 367:/usr/local/Cellar/avr-gcc/9.1.0/avr/include/avr/wdt.h **** 				"lds %[TEMP_WD],%[WDTREG]" "\n\t"
 368:/usr/local/Cellar/avr-gcc/9.1.0/avr/include/avr/wdt.h **** 				"cbr %[TEMP_WD],%[WDVALUE]" "\n\t"
 369:/usr/local/Cellar/avr-gcc/9.1.0/avr/include/avr/wdt.h **** 				"sts %[WDTREG],%[TEMP_WD]" "\n\t"
 370:/usr/local/Cellar/avr-gcc/9.1.0/avr/include/avr/wdt.h **** 				"out __SREG__,__tmp_reg__" "\n\t"
 371:/usr/local/Cellar/avr-gcc/9.1.0/avr/include/avr/wdt.h **** 				: /*no output */
 372:/usr/local/Cellar/avr-gcc/9.1.0/avr/include/avr/wdt.h **** 				: [CCPADDRESS] "I" (_SFR_IO_ADDR(CCP)),
 373:/usr/local/Cellar/avr-gcc/9.1.0/avr/include/avr/wdt.h **** 				[SIGNATURE] "r" ((uint8_t)0xD8),
 374:/usr/local/Cellar/avr-gcc/9.1.0/avr/include/avr/wdt.h **** 				[WDTREG] "n" (_SFR_MEM_ADDR(_WD_CONTROL_REG)),
 375:/usr/local/Cellar/avr-gcc/9.1.0/avr/include/avr/wdt.h **** 				[TEMP_WD] "d" (temp_wd),
 376:/usr/local/Cellar/avr-gcc/9.1.0/avr/include/avr/wdt.h **** 				[WDVALUE] "n" (1 << WDE)
 377:/usr/local/Cellar/avr-gcc/9.1.0/avr/include/avr/wdt.h **** 				: "r0"
 378:/usr/local/Cellar/avr-gcc/9.1.0/avr/include/avr/wdt.h **** 				);
 379:/usr/local/Cellar/avr-gcc/9.1.0/avr/include/avr/wdt.h **** 	}
 380:/usr/local/Cellar/avr-gcc/9.1.0/avr/include/avr/wdt.h **** 	else
 381:/usr/local/Cellar/avr-gcc/9.1.0/avr/include/avr/wdt.h **** 	{
 382:/usr/local/Cellar/avr-gcc/9.1.0/avr/include/avr/wdt.h ****         uint8_t temp_wd;
 383:/usr/local/Cellar/avr-gcc/9.1.0/avr/include/avr/wdt.h ****         __asm__ __volatile__ (
 384:/usr/local/Cellar/avr-gcc/9.1.0/avr/include/avr/wdt.h **** 				"in __tmp_reg__,__SREG__" "\n\t"
 385:/usr/local/Cellar/avr-gcc/9.1.0/avr/include/avr/wdt.h **** 				"cli" "\n\t"
 386:/usr/local/Cellar/avr-gcc/9.1.0/avr/include/avr/wdt.h **** 				"wdr" "\n\t"
 387:/usr/local/Cellar/avr-gcc/9.1.0/avr/include/avr/wdt.h **** 				"out %[CCPADDRESS],%[SIGNATURE]" "\n\t"
 388:/usr/local/Cellar/avr-gcc/9.1.0/avr/include/avr/wdt.h **** 				"in %[TEMP_WD],%[WDTREG]" "\n\t"
 389:/usr/local/Cellar/avr-gcc/9.1.0/avr/include/avr/wdt.h **** 				"cbr %[TEMP_WD],%[WDVALUE]" "\n\t"
 390:/usr/local/Cellar/avr-gcc/9.1.0/avr/include/avr/wdt.h **** 				"out %[WDTREG],%[TEMP_WD]" "\n\t"
 391:/usr/local/Cellar/avr-gcc/9.1.0/avr/include/avr/wdt.h **** 				"out __SREG__,__tmp_reg__" "\n\t"
 392:/usr/local/Cellar/avr-gcc/9.1.0/avr/include/avr/wdt.h **** 				: /*no output */
 393:/usr/local/Cellar/avr-gcc/9.1.0/avr/include/avr/wdt.h **** 				: [CCPADDRESS] "I" (_SFR_IO_ADDR(CCP)),
 394:/usr/local/Cellar/avr-gcc/9.1.0/avr/include/avr/wdt.h **** 				[SIGNATURE] "r" ((uint8_t)0xD8),
 395:/usr/local/Cellar/avr-gcc/9.1.0/avr/include/avr/wdt.h **** 				[WDTREG] "I" (_SFR_IO_ADDR(_WD_CONTROL_REG)),
 396:/usr/local/Cellar/avr-gcc/9.1.0/avr/include/avr/wdt.h **** 				[TEMP_WD] "d" (temp_wd),
 397:/usr/local/Cellar/avr-gcc/9.1.0/avr/include/avr/wdt.h **** 				[WDVALUE] "n" (1 << WDE)
 398:/usr/local/Cellar/avr-gcc/9.1.0/avr/include/avr/wdt.h **** 				: "r0"
 399:/usr/local/Cellar/avr-gcc/9.1.0/avr/include/avr/wdt.h **** 				);
 400:/usr/local/Cellar/avr-gcc/9.1.0/avr/include/avr/wdt.h **** 	}
 401:/usr/local/Cellar/avr-gcc/9.1.0/avr/include/avr/wdt.h **** }
 402:/usr/local/Cellar/avr-gcc/9.1.0/avr/include/avr/wdt.h **** 
 403:/usr/local/Cellar/avr-gcc/9.1.0/avr/include/avr/wdt.h **** #else
 404:/usr/local/Cellar/avr-gcc/9.1.0/avr/include/avr/wdt.h **** 
 405:/usr/local/Cellar/avr-gcc/9.1.0/avr/include/avr/wdt.h **** static __inline__
 406:/usr/local/Cellar/avr-gcc/9.1.0/avr/include/avr/wdt.h **** __attribute__ ((__always_inline__))
 407:/usr/local/Cellar/avr-gcc/9.1.0/avr/include/avr/wdt.h **** void wdt_enable (const uint8_t value)
 408:/usr/local/Cellar/avr-gcc/9.1.0/avr/include/avr/wdt.h **** {
 409:/usr/local/Cellar/avr-gcc/9.1.0/avr/include/avr/wdt.h **** 	if (_SFR_IO_REG_P (_WD_CONTROL_REG))
 410:/usr/local/Cellar/avr-gcc/9.1.0/avr/include/avr/wdt.h **** 	{
 411:/usr/local/Cellar/avr-gcc/9.1.0/avr/include/avr/wdt.h **** 		__asm__ __volatile__ (
 412:/usr/local/Cellar/avr-gcc/9.1.0/avr/include/avr/wdt.h **** 				"in __tmp_reg__,__SREG__" "\n\t"
 413:/usr/local/Cellar/avr-gcc/9.1.0/avr/include/avr/wdt.h **** 				"cli" "\n\t"
 414:/usr/local/Cellar/avr-gcc/9.1.0/avr/include/avr/wdt.h **** 				"wdr" "\n\t"
 415:/usr/local/Cellar/avr-gcc/9.1.0/avr/include/avr/wdt.h **** 				"out %0, %1" "\n\t"
 416:/usr/local/Cellar/avr-gcc/9.1.0/avr/include/avr/wdt.h **** 				"out __SREG__,__tmp_reg__" "\n\t"
 417:/usr/local/Cellar/avr-gcc/9.1.0/avr/include/avr/wdt.h **** 				"out %0, %2" "\n \t"
 418:/usr/local/Cellar/avr-gcc/9.1.0/avr/include/avr/wdt.h **** 				: /* no outputs */
 419:/usr/local/Cellar/avr-gcc/9.1.0/avr/include/avr/wdt.h **** 				: "I" (_SFR_IO_ADDR(_WD_CONTROL_REG)),
 420:/usr/local/Cellar/avr-gcc/9.1.0/avr/include/avr/wdt.h **** 				"r" ((uint8_t)(_BV(_WD_CHANGE_BIT) | _BV(WDE))),
 421:/usr/local/Cellar/avr-gcc/9.1.0/avr/include/avr/wdt.h **** 				"r" ((uint8_t) ((value & 0x08 ? _WD_PS3_MASK : 0x00) |
 422:/usr/local/Cellar/avr-gcc/9.1.0/avr/include/avr/wdt.h **** 						_BV(WDE) | (value & 0x07)) )
 423:/usr/local/Cellar/avr-gcc/9.1.0/avr/include/avr/wdt.h **** 				: "r0"
 424:/usr/local/Cellar/avr-gcc/9.1.0/avr/include/avr/wdt.h **** 		);
 425:/usr/local/Cellar/avr-gcc/9.1.0/avr/include/avr/wdt.h **** 	}
 426:/usr/local/Cellar/avr-gcc/9.1.0/avr/include/avr/wdt.h **** 	else
 427:/usr/local/Cellar/avr-gcc/9.1.0/avr/include/avr/wdt.h **** 	{
 428:/usr/local/Cellar/avr-gcc/9.1.0/avr/include/avr/wdt.h **** 		__asm__ __volatile__ (
 429:/usr/local/Cellar/avr-gcc/9.1.0/avr/include/avr/wdt.h **** 				"in __tmp_reg__,__SREG__" "\n\t"
 430:/usr/local/Cellar/avr-gcc/9.1.0/avr/include/avr/wdt.h **** 				"cli" "\n\t"
 431:/usr/local/Cellar/avr-gcc/9.1.0/avr/include/avr/wdt.h **** 				"wdr" "\n\t"
 432:/usr/local/Cellar/avr-gcc/9.1.0/avr/include/avr/wdt.h **** 				"sts %0, %1" "\n\t"
 433:/usr/local/Cellar/avr-gcc/9.1.0/avr/include/avr/wdt.h **** 				"out __SREG__,__tmp_reg__" "\n\t"
 434:/usr/local/Cellar/avr-gcc/9.1.0/avr/include/avr/wdt.h **** 				"sts %0, %2" "\n \t"
 435:/usr/local/Cellar/avr-gcc/9.1.0/avr/include/avr/wdt.h **** 				: /* no outputs */
 436:/usr/local/Cellar/avr-gcc/9.1.0/avr/include/avr/wdt.h **** 				: "n" (_SFR_MEM_ADDR(_WD_CONTROL_REG)),
 437:/usr/local/Cellar/avr-gcc/9.1.0/avr/include/avr/wdt.h **** 				"r" ((uint8_t)(_BV(_WD_CHANGE_BIT) | _BV(WDE))),
 438:/usr/local/Cellar/avr-gcc/9.1.0/avr/include/avr/wdt.h **** 				"r" ((uint8_t) ((value & 0x08 ? _WD_PS3_MASK : 0x00) |
 439:/usr/local/Cellar/avr-gcc/9.1.0/avr/include/avr/wdt.h **** 						_BV(WDE) | (value & 0x07)) )
 440:/usr/local/Cellar/avr-gcc/9.1.0/avr/include/avr/wdt.h **** 				: "r0"
 441:/usr/local/Cellar/avr-gcc/9.1.0/avr/include/avr/wdt.h **** 		);
 442:/usr/local/Cellar/avr-gcc/9.1.0/avr/include/avr/wdt.h **** 	}
 443:/usr/local/Cellar/avr-gcc/9.1.0/avr/include/avr/wdt.h **** }
 444:/usr/local/Cellar/avr-gcc/9.1.0/avr/include/avr/wdt.h **** 
 445:/usr/local/Cellar/avr-gcc/9.1.0/avr/include/avr/wdt.h **** static __inline__
 446:/usr/local/Cellar/avr-gcc/9.1.0/avr/include/avr/wdt.h **** __attribute__ ((__always_inline__))
 447:/usr/local/Cellar/avr-gcc/9.1.0/avr/include/avr/wdt.h **** void wdt_disable (void)
 1802               		.loc 7 447 6 view .LVU515
 1803               	.LBE491:
 1804               	.LBE490:
 1805               	.LBE489:
 448:/usr/local/Cellar/avr-gcc/9.1.0/avr/include/avr/wdt.h **** {
 449:/usr/local/Cellar/avr-gcc/9.1.0/avr/include/avr/wdt.h **** 	if (_SFR_IO_REG_P (_WD_CONTROL_REG))
 1806               		.loc 7 449 2 view .LVU516
 1807               	.LBB497:
 1808               	.LBB496:
 1809               	.LBB493:
 1810               	.LBB492:
 450:/usr/local/Cellar/avr-gcc/9.1.0/avr/include/avr/wdt.h **** 	{
 451:/usr/local/Cellar/avr-gcc/9.1.0/avr/include/avr/wdt.h ****         uint8_t register temp_reg;
 452:/usr/local/Cellar/avr-gcc/9.1.0/avr/include/avr/wdt.h **** 		__asm__ __volatile__ (
 453:/usr/local/Cellar/avr-gcc/9.1.0/avr/include/avr/wdt.h **** 				"in __tmp_reg__,__SREG__"    "\n\t"
 454:/usr/local/Cellar/avr-gcc/9.1.0/avr/include/avr/wdt.h **** 				"cli"                        "\n\t"
 455:/usr/local/Cellar/avr-gcc/9.1.0/avr/include/avr/wdt.h **** 				"wdr"                        "\n\t"
 456:/usr/local/Cellar/avr-gcc/9.1.0/avr/include/avr/wdt.h **** 				"in  %[TEMPREG],%[WDTREG]"   "\n\t"
 457:/usr/local/Cellar/avr-gcc/9.1.0/avr/include/avr/wdt.h **** 				"ori %[TEMPREG],%[WDCE_WDE]" "\n\t"
 458:/usr/local/Cellar/avr-gcc/9.1.0/avr/include/avr/wdt.h **** 				"out %[WDTREG],%[TEMPREG]"   "\n\t"
 459:/usr/local/Cellar/avr-gcc/9.1.0/avr/include/avr/wdt.h **** 				"out %[WDTREG],__zero_reg__" "\n\t"
 460:/usr/local/Cellar/avr-gcc/9.1.0/avr/include/avr/wdt.h **** 				"out __SREG__,__tmp_reg__"   "\n\t"
 461:/usr/local/Cellar/avr-gcc/9.1.0/avr/include/avr/wdt.h **** 				: [TEMPREG] "=d" (temp_reg)
 462:/usr/local/Cellar/avr-gcc/9.1.0/avr/include/avr/wdt.h **** 				: [WDTREG]  "I"  (_SFR_IO_ADDR(_WD_CONTROL_REG)),
 463:/usr/local/Cellar/avr-gcc/9.1.0/avr/include/avr/wdt.h **** 				[WDCE_WDE]  "n"  ((uint8_t)(_BV(_WD_CHANGE_BIT) | _BV(WDE)))
 464:/usr/local/Cellar/avr-gcc/9.1.0/avr/include/avr/wdt.h **** 				: "r0"
 465:/usr/local/Cellar/avr-gcc/9.1.0/avr/include/avr/wdt.h **** 		);
 466:/usr/local/Cellar/avr-gcc/9.1.0/avr/include/avr/wdt.h **** 	}
 467:/usr/local/Cellar/avr-gcc/9.1.0/avr/include/avr/wdt.h **** 	else
 468:/usr/local/Cellar/avr-gcc/9.1.0/avr/include/avr/wdt.h **** 	{
 469:/usr/local/Cellar/avr-gcc/9.1.0/avr/include/avr/wdt.h ****         uint8_t register temp_reg;
 1811               		.loc 7 469 9 view .LVU517
 470:/usr/local/Cellar/avr-gcc/9.1.0/avr/include/avr/wdt.h **** 		__asm__ __volatile__ (
 1812               		.loc 7 470 3 view .LVU518
 1813               	/* #APP */
 1814               	 ;  470 "/usr/local/Cellar/avr-gcc/9.1.0/avr/include/avr/wdt.h" 1
 1815 0006 0FB6      		in __tmp_reg__,__SREG__
 1816 0008 F894      		cli
 1817 000a A895      		wdr
 1818 000c 8091 6000 		lds r24,96
 1819 0010 8861      		ori r24,24
 1820 0012 8093 6000 		sts 96,r24
 1821 0016 1092 6000 		sts 96,__zero_reg__
 1822 001a 0FBE      		out __SREG__,__tmp_reg__
 1823               		
 1824               	 ;  0 "" 2
 1825               	/* #NOAPP */
 1826               	.LBE492:
 1827               	.LBE493:
 614:../../tmk_core/protocol/lufa/lufa.c **** }
 1828               		.loc 1 614 5 view .LVU519
 1829               	.LVL89:
 1830               	.LBB494:
 1831               	.LBI494:
 1832               		.file 8 "/usr/local/Cellar/avr-gcc/9.1.0/avr/include/avr/power.h"
   1:/usr/local/Cellar/avr-gcc/9.1.0/avr/include/avr/power.h **** /* Copyright (c) 2006, 2007, 2008  Eric B. Weddington
   2:/usr/local/Cellar/avr-gcc/9.1.0/avr/include/avr/power.h ****    Copyright (c) 2011 Frdric Nadeau
   3:/usr/local/Cellar/avr-gcc/9.1.0/avr/include/avr/power.h ****    All rights reserved.
   4:/usr/local/Cellar/avr-gcc/9.1.0/avr/include/avr/power.h **** 
   5:/usr/local/Cellar/avr-gcc/9.1.0/avr/include/avr/power.h ****    Redistribution and use in source and binary forms, with or without
   6:/usr/local/Cellar/avr-gcc/9.1.0/avr/include/avr/power.h ****    modification, are permitted provided that the following conditions are met:
   7:/usr/local/Cellar/avr-gcc/9.1.0/avr/include/avr/power.h **** 
   8:/usr/local/Cellar/avr-gcc/9.1.0/avr/include/avr/power.h ****    * Redistributions of source code must retain the above copyright
   9:/usr/local/Cellar/avr-gcc/9.1.0/avr/include/avr/power.h ****      notice, this list of conditions and the following disclaimer.
  10:/usr/local/Cellar/avr-gcc/9.1.0/avr/include/avr/power.h ****    * Redistributions in binary form must reproduce the above copyright
  11:/usr/local/Cellar/avr-gcc/9.1.0/avr/include/avr/power.h ****      notice, this list of conditions and the following disclaimer in
  12:/usr/local/Cellar/avr-gcc/9.1.0/avr/include/avr/power.h ****      the documentation and/or other materials provided with the
  13:/usr/local/Cellar/avr-gcc/9.1.0/avr/include/avr/power.h ****      distribution.
  14:/usr/local/Cellar/avr-gcc/9.1.0/avr/include/avr/power.h ****    * Neither the name of the copyright holders nor the names of
  15:/usr/local/Cellar/avr-gcc/9.1.0/avr/include/avr/power.h ****      contributors may be used to endorse or promote products derived
  16:/usr/local/Cellar/avr-gcc/9.1.0/avr/include/avr/power.h ****      from this software without specific prior written permission.
  17:/usr/local/Cellar/avr-gcc/9.1.0/avr/include/avr/power.h **** 
  18:/usr/local/Cellar/avr-gcc/9.1.0/avr/include/avr/power.h ****   THIS SOFTWARE IS PROVIDED BY THE COPYRIGHT HOLDERS AND CONTRIBUTORS "AS IS"
  19:/usr/local/Cellar/avr-gcc/9.1.0/avr/include/avr/power.h ****   AND ANY EXPRESS OR IMPLIED WARRANTIES, INCLUDING, BUT NOT LIMITED TO, THE
  20:/usr/local/Cellar/avr-gcc/9.1.0/avr/include/avr/power.h ****   IMPLIED WARRANTIES OF MERCHANTABILITY AND FITNESS FOR A PARTICULAR PURPOSE
  21:/usr/local/Cellar/avr-gcc/9.1.0/avr/include/avr/power.h ****   ARE DISCLAIMED. IN NO EVENT SHALL THE COPYRIGHT OWNER OR CONTRIBUTORS BE
  22:/usr/local/Cellar/avr-gcc/9.1.0/avr/include/avr/power.h ****   LIABLE FOR ANY DIRECT, INDIRECT, INCIDENTAL, SPECIAL, EXEMPLARY, OR
  23:/usr/local/Cellar/avr-gcc/9.1.0/avr/include/avr/power.h ****   CONSEQUENTIAL DAMAGES (INCLUDING, BUT NOT LIMITED TO, PROCUREMENT OF
  24:/usr/local/Cellar/avr-gcc/9.1.0/avr/include/avr/power.h ****   SUBSTITUTE GOODS OR SERVICES; LOSS OF USE, DATA, OR PROFITS; OR BUSINESS
  25:/usr/local/Cellar/avr-gcc/9.1.0/avr/include/avr/power.h ****   INTERRUPTION) HOWEVER CAUSED AND ON ANY THEORY OF LIABILITY, WHETHER IN
  26:/usr/local/Cellar/avr-gcc/9.1.0/avr/include/avr/power.h ****   CONTRACT, STRICT LIABILITY, OR TORT (INCLUDING NEGLIGENCE OR OTHERWISE)
  27:/usr/local/Cellar/avr-gcc/9.1.0/avr/include/avr/power.h ****   ARISING IN ANY WAY OUT OF THE USE OF THIS SOFTWARE, EVEN IF ADVISED OF THE
  28:/usr/local/Cellar/avr-gcc/9.1.0/avr/include/avr/power.h ****   POSSIBILITY OF SUCH DAMAGE. */
  29:/usr/local/Cellar/avr-gcc/9.1.0/avr/include/avr/power.h **** 
  30:/usr/local/Cellar/avr-gcc/9.1.0/avr/include/avr/power.h **** /* $Id: power.h 2503 2016-02-07 22:59:47Z joerg_wunsch $ */
  31:/usr/local/Cellar/avr-gcc/9.1.0/avr/include/avr/power.h **** 
  32:/usr/local/Cellar/avr-gcc/9.1.0/avr/include/avr/power.h **** #ifndef _AVR_POWER_H_
  33:/usr/local/Cellar/avr-gcc/9.1.0/avr/include/avr/power.h **** #define _AVR_POWER_H_   1
  34:/usr/local/Cellar/avr-gcc/9.1.0/avr/include/avr/power.h **** 
  35:/usr/local/Cellar/avr-gcc/9.1.0/avr/include/avr/power.h **** #include <avr/io.h>
  36:/usr/local/Cellar/avr-gcc/9.1.0/avr/include/avr/power.h **** #include <stdint.h>
  37:/usr/local/Cellar/avr-gcc/9.1.0/avr/include/avr/power.h **** 
  38:/usr/local/Cellar/avr-gcc/9.1.0/avr/include/avr/power.h **** 
  39:/usr/local/Cellar/avr-gcc/9.1.0/avr/include/avr/power.h **** /** \file */
  40:/usr/local/Cellar/avr-gcc/9.1.0/avr/include/avr/power.h **** /** \defgroup avr_power <avr/power.h>: Power Reduction Management
  41:/usr/local/Cellar/avr-gcc/9.1.0/avr/include/avr/power.h **** 
  42:/usr/local/Cellar/avr-gcc/9.1.0/avr/include/avr/power.h **** \code #include <avr/power.h>\endcode
  43:/usr/local/Cellar/avr-gcc/9.1.0/avr/include/avr/power.h **** 
  44:/usr/local/Cellar/avr-gcc/9.1.0/avr/include/avr/power.h **** Many AVRs contain a Power Reduction Register (PRR) or Registers (PRRx) that 
  45:/usr/local/Cellar/avr-gcc/9.1.0/avr/include/avr/power.h **** allow you to reduce power consumption by disabling or enabling various on-board 
  46:/usr/local/Cellar/avr-gcc/9.1.0/avr/include/avr/power.h **** peripherals as needed. Some devices have the XTAL Divide Control Register
  47:/usr/local/Cellar/avr-gcc/9.1.0/avr/include/avr/power.h **** (XDIV) which offer similar functionality as System Clock Prescale
  48:/usr/local/Cellar/avr-gcc/9.1.0/avr/include/avr/power.h **** Register (CLKPR).
  49:/usr/local/Cellar/avr-gcc/9.1.0/avr/include/avr/power.h **** 
  50:/usr/local/Cellar/avr-gcc/9.1.0/avr/include/avr/power.h **** There are many macros in this header file that provide an easy interface
  51:/usr/local/Cellar/avr-gcc/9.1.0/avr/include/avr/power.h **** to enable or disable on-board peripherals to reduce power. See the table below.
  52:/usr/local/Cellar/avr-gcc/9.1.0/avr/include/avr/power.h **** 
  53:/usr/local/Cellar/avr-gcc/9.1.0/avr/include/avr/power.h **** \note Not all AVR devices have a Power Reduction Register (for example
  54:/usr/local/Cellar/avr-gcc/9.1.0/avr/include/avr/power.h **** the ATmega8). On those devices without a Power Reduction Register, the
  55:/usr/local/Cellar/avr-gcc/9.1.0/avr/include/avr/power.h **** power reduction macros are not available..
  56:/usr/local/Cellar/avr-gcc/9.1.0/avr/include/avr/power.h **** 
  57:/usr/local/Cellar/avr-gcc/9.1.0/avr/include/avr/power.h **** \note Not all AVR devices contain the same peripherals (for example, the LCD
  58:/usr/local/Cellar/avr-gcc/9.1.0/avr/include/avr/power.h **** interface), or they will be named differently (for example, USART and 
  59:/usr/local/Cellar/avr-gcc/9.1.0/avr/include/avr/power.h **** USART0). Please consult your device's datasheet, or the header file, to 
  60:/usr/local/Cellar/avr-gcc/9.1.0/avr/include/avr/power.h **** find out which macros are applicable to your device.
  61:/usr/local/Cellar/avr-gcc/9.1.0/avr/include/avr/power.h **** 
  62:/usr/local/Cellar/avr-gcc/9.1.0/avr/include/avr/power.h **** \note For device using the XTAL Divide Control Register (XDIV), when prescaler
  63:/usr/local/Cellar/avr-gcc/9.1.0/avr/include/avr/power.h **** is used, Timer/Counter0 can only be used in asynchronous mode. Keep in mind
  64:/usr/local/Cellar/avr-gcc/9.1.0/avr/include/avr/power.h **** that Timer/Counter0 source shall be less than th of peripheral clock.
  65:/usr/local/Cellar/avr-gcc/9.1.0/avr/include/avr/power.h **** Therefore, when using a typical 32.768 kHz crystal, one shall not scale
  66:/usr/local/Cellar/avr-gcc/9.1.0/avr/include/avr/power.h **** the clock below 131.072 kHz.
  67:/usr/local/Cellar/avr-gcc/9.1.0/avr/include/avr/power.h **** 
  68:/usr/local/Cellar/avr-gcc/9.1.0/avr/include/avr/power.h **** */
  69:/usr/local/Cellar/avr-gcc/9.1.0/avr/include/avr/power.h **** 
  70:/usr/local/Cellar/avr-gcc/9.1.0/avr/include/avr/power.h **** 
  71:/usr/local/Cellar/avr-gcc/9.1.0/avr/include/avr/power.h **** /** \addtogroup avr_power
  72:/usr/local/Cellar/avr-gcc/9.1.0/avr/include/avr/power.h **** 
  73:/usr/local/Cellar/avr-gcc/9.1.0/avr/include/avr/power.h **** \anchor avr_powermacros
  74:/usr/local/Cellar/avr-gcc/9.1.0/avr/include/avr/power.h **** <small>
  75:/usr/local/Cellar/avr-gcc/9.1.0/avr/include/avr/power.h **** <center>
  76:/usr/local/Cellar/avr-gcc/9.1.0/avr/include/avr/power.h **** <table border="3">
  77:/usr/local/Cellar/avr-gcc/9.1.0/avr/include/avr/power.h ****   <tr>
  78:/usr/local/Cellar/avr-gcc/9.1.0/avr/include/avr/power.h ****     <td width="10%"><strong>Power Macro</strong></td>
  79:/usr/local/Cellar/avr-gcc/9.1.0/avr/include/avr/power.h ****     <td width="15%"><strong>Description</strong></td>
  80:/usr/local/Cellar/avr-gcc/9.1.0/avr/include/avr/power.h ****   </tr>
  81:/usr/local/Cellar/avr-gcc/9.1.0/avr/include/avr/power.h **** 
  82:/usr/local/Cellar/avr-gcc/9.1.0/avr/include/avr/power.h ****   <tr>
  83:/usr/local/Cellar/avr-gcc/9.1.0/avr/include/avr/power.h ****     <td>power_aca_disable()</td>
  84:/usr/local/Cellar/avr-gcc/9.1.0/avr/include/avr/power.h ****     <td>Disable the Analog Comparator on PortA.</td>
  85:/usr/local/Cellar/avr-gcc/9.1.0/avr/include/avr/power.h ****   </tr>
  86:/usr/local/Cellar/avr-gcc/9.1.0/avr/include/avr/power.h **** 
  87:/usr/local/Cellar/avr-gcc/9.1.0/avr/include/avr/power.h ****   <tr>
  88:/usr/local/Cellar/avr-gcc/9.1.0/avr/include/avr/power.h ****     <td>power_aca_enable()</td>
  89:/usr/local/Cellar/avr-gcc/9.1.0/avr/include/avr/power.h ****     <td>Enable the Analog Comparator on PortA.</td>
  90:/usr/local/Cellar/avr-gcc/9.1.0/avr/include/avr/power.h ****   </tr>
  91:/usr/local/Cellar/avr-gcc/9.1.0/avr/include/avr/power.h **** 
  92:/usr/local/Cellar/avr-gcc/9.1.0/avr/include/avr/power.h ****   <tr>
  93:/usr/local/Cellar/avr-gcc/9.1.0/avr/include/avr/power.h ****     <td>power_adc_enable()</td>
  94:/usr/local/Cellar/avr-gcc/9.1.0/avr/include/avr/power.h ****     <td>Enable the Analog to Digital Converter module.</td>
  95:/usr/local/Cellar/avr-gcc/9.1.0/avr/include/avr/power.h ****   </tr>
  96:/usr/local/Cellar/avr-gcc/9.1.0/avr/include/avr/power.h **** 
  97:/usr/local/Cellar/avr-gcc/9.1.0/avr/include/avr/power.h ****   <tr>
  98:/usr/local/Cellar/avr-gcc/9.1.0/avr/include/avr/power.h ****     <td>power_adc_disable()</td>
  99:/usr/local/Cellar/avr-gcc/9.1.0/avr/include/avr/power.h ****     <td>Disable the Analog to Digital Converter module.</td>
 100:/usr/local/Cellar/avr-gcc/9.1.0/avr/include/avr/power.h ****   </tr>
 101:/usr/local/Cellar/avr-gcc/9.1.0/avr/include/avr/power.h **** 
 102:/usr/local/Cellar/avr-gcc/9.1.0/avr/include/avr/power.h ****   <tr>
 103:/usr/local/Cellar/avr-gcc/9.1.0/avr/include/avr/power.h ****     <td>power_adca_disable()</td>
 104:/usr/local/Cellar/avr-gcc/9.1.0/avr/include/avr/power.h ****     <td>Disable the Analog to Digital Converter module on PortA</td>
 105:/usr/local/Cellar/avr-gcc/9.1.0/avr/include/avr/power.h ****   </tr>
 106:/usr/local/Cellar/avr-gcc/9.1.0/avr/include/avr/power.h **** 
 107:/usr/local/Cellar/avr-gcc/9.1.0/avr/include/avr/power.h ****   <tr>
 108:/usr/local/Cellar/avr-gcc/9.1.0/avr/include/avr/power.h ****     <td>power_adca_enable()</td>
 109:/usr/local/Cellar/avr-gcc/9.1.0/avr/include/avr/power.h ****     <td>Enable the Analog to Digital Converter module on PortA</td>
 110:/usr/local/Cellar/avr-gcc/9.1.0/avr/include/avr/power.h ****   </tr>
 111:/usr/local/Cellar/avr-gcc/9.1.0/avr/include/avr/power.h **** 
 112:/usr/local/Cellar/avr-gcc/9.1.0/avr/include/avr/power.h ****   <tr>
 113:/usr/local/Cellar/avr-gcc/9.1.0/avr/include/avr/power.h ****     <td>power_evsys_disable()</td>
 114:/usr/local/Cellar/avr-gcc/9.1.0/avr/include/avr/power.h ****     <td>Disable the EVSYS module</td>
 115:/usr/local/Cellar/avr-gcc/9.1.0/avr/include/avr/power.h ****   </tr>
 116:/usr/local/Cellar/avr-gcc/9.1.0/avr/include/avr/power.h **** 
 117:/usr/local/Cellar/avr-gcc/9.1.0/avr/include/avr/power.h ****   <tr>
 118:/usr/local/Cellar/avr-gcc/9.1.0/avr/include/avr/power.h ****     <td>power_evsys_enable()</td>
 119:/usr/local/Cellar/avr-gcc/9.1.0/avr/include/avr/power.h ****     <td>Enable the EVSYS module</td>
 120:/usr/local/Cellar/avr-gcc/9.1.0/avr/include/avr/power.h ****   </tr>
 121:/usr/local/Cellar/avr-gcc/9.1.0/avr/include/avr/power.h **** 
 122:/usr/local/Cellar/avr-gcc/9.1.0/avr/include/avr/power.h ****   <tr>
 123:/usr/local/Cellar/avr-gcc/9.1.0/avr/include/avr/power.h ****     <td>power_hiresc_disable()</td>
 124:/usr/local/Cellar/avr-gcc/9.1.0/avr/include/avr/power.h ****     <td>Disable the HIRES module on PortC</td>
 125:/usr/local/Cellar/avr-gcc/9.1.0/avr/include/avr/power.h ****   </tr>
 126:/usr/local/Cellar/avr-gcc/9.1.0/avr/include/avr/power.h **** 
 127:/usr/local/Cellar/avr-gcc/9.1.0/avr/include/avr/power.h ****   <tr>
 128:/usr/local/Cellar/avr-gcc/9.1.0/avr/include/avr/power.h ****     <td>power_hiresc_enable()</td>
 129:/usr/local/Cellar/avr-gcc/9.1.0/avr/include/avr/power.h ****     <td>Enable the HIRES module on PortC</td>
 130:/usr/local/Cellar/avr-gcc/9.1.0/avr/include/avr/power.h ****   </tr>
 131:/usr/local/Cellar/avr-gcc/9.1.0/avr/include/avr/power.h **** 
 132:/usr/local/Cellar/avr-gcc/9.1.0/avr/include/avr/power.h ****    <tr>
 133:/usr/local/Cellar/avr-gcc/9.1.0/avr/include/avr/power.h ****     <td>power_lcd_enable()</td>
 134:/usr/local/Cellar/avr-gcc/9.1.0/avr/include/avr/power.h ****     <td>Enable the LCD module.</td>
 135:/usr/local/Cellar/avr-gcc/9.1.0/avr/include/avr/power.h ****   </tr>
 136:/usr/local/Cellar/avr-gcc/9.1.0/avr/include/avr/power.h **** 
 137:/usr/local/Cellar/avr-gcc/9.1.0/avr/include/avr/power.h ****   <tr>
 138:/usr/local/Cellar/avr-gcc/9.1.0/avr/include/avr/power.h ****     <td>power_lcd_disable().</td>
 139:/usr/local/Cellar/avr-gcc/9.1.0/avr/include/avr/power.h ****     <td>Disable the LCD module.</td>
 140:/usr/local/Cellar/avr-gcc/9.1.0/avr/include/avr/power.h ****   </tr>
 141:/usr/local/Cellar/avr-gcc/9.1.0/avr/include/avr/power.h **** 
 142:/usr/local/Cellar/avr-gcc/9.1.0/avr/include/avr/power.h ****   <tr>
 143:/usr/local/Cellar/avr-gcc/9.1.0/avr/include/avr/power.h ****     <td>power_pga_enable()</td>
 144:/usr/local/Cellar/avr-gcc/9.1.0/avr/include/avr/power.h ****     <td>Enable the Programmable Gain Amplifier module.</td>
 145:/usr/local/Cellar/avr-gcc/9.1.0/avr/include/avr/power.h ****   </tr>
 146:/usr/local/Cellar/avr-gcc/9.1.0/avr/include/avr/power.h **** 
 147:/usr/local/Cellar/avr-gcc/9.1.0/avr/include/avr/power.h ****   <tr>
 148:/usr/local/Cellar/avr-gcc/9.1.0/avr/include/avr/power.h ****     <td>power_pga_disable()</td>
 149:/usr/local/Cellar/avr-gcc/9.1.0/avr/include/avr/power.h ****     <td>Disable the Programmable Gain Amplifier module.</td>
 150:/usr/local/Cellar/avr-gcc/9.1.0/avr/include/avr/power.h ****   </tr>
 151:/usr/local/Cellar/avr-gcc/9.1.0/avr/include/avr/power.h ****   
 152:/usr/local/Cellar/avr-gcc/9.1.0/avr/include/avr/power.h ****   <tr>
 153:/usr/local/Cellar/avr-gcc/9.1.0/avr/include/avr/power.h ****     <td>power_pscr_enable()</td>
 154:/usr/local/Cellar/avr-gcc/9.1.0/avr/include/avr/power.h ****     <td>Enable the Reduced Power Stage Controller module.</td>
 155:/usr/local/Cellar/avr-gcc/9.1.0/avr/include/avr/power.h ****   </tr>
 156:/usr/local/Cellar/avr-gcc/9.1.0/avr/include/avr/power.h **** 
 157:/usr/local/Cellar/avr-gcc/9.1.0/avr/include/avr/power.h ****   <tr>
 158:/usr/local/Cellar/avr-gcc/9.1.0/avr/include/avr/power.h ****     <td>power_pscr_disable()</td>
 159:/usr/local/Cellar/avr-gcc/9.1.0/avr/include/avr/power.h ****     <td>Disable the Reduced Power Stage Controller module.</td>
 160:/usr/local/Cellar/avr-gcc/9.1.0/avr/include/avr/power.h ****   </tr>
 161:/usr/local/Cellar/avr-gcc/9.1.0/avr/include/avr/power.h **** 
 162:/usr/local/Cellar/avr-gcc/9.1.0/avr/include/avr/power.h ****   <tr>
 163:/usr/local/Cellar/avr-gcc/9.1.0/avr/include/avr/power.h ****     <td>power_psc0_enable()</td>
 164:/usr/local/Cellar/avr-gcc/9.1.0/avr/include/avr/power.h ****     <td>Enable the Power Stage Controller 0 module.</td>
 165:/usr/local/Cellar/avr-gcc/9.1.0/avr/include/avr/power.h ****   </tr>
 166:/usr/local/Cellar/avr-gcc/9.1.0/avr/include/avr/power.h **** 
 167:/usr/local/Cellar/avr-gcc/9.1.0/avr/include/avr/power.h ****   <tr>
 168:/usr/local/Cellar/avr-gcc/9.1.0/avr/include/avr/power.h ****     <td>power_psc0_disable()</td>
 169:/usr/local/Cellar/avr-gcc/9.1.0/avr/include/avr/power.h ****     <td>Disable the Power Stage Controller 0 module.</td>
 170:/usr/local/Cellar/avr-gcc/9.1.0/avr/include/avr/power.h ****   </tr>
 171:/usr/local/Cellar/avr-gcc/9.1.0/avr/include/avr/power.h **** 
 172:/usr/local/Cellar/avr-gcc/9.1.0/avr/include/avr/power.h ****   <tr>
 173:/usr/local/Cellar/avr-gcc/9.1.0/avr/include/avr/power.h ****     <td>power_psc1_enable()</td>
 174:/usr/local/Cellar/avr-gcc/9.1.0/avr/include/avr/power.h ****     <td>Enable the Power Stage Controller 1 module.</td>
 175:/usr/local/Cellar/avr-gcc/9.1.0/avr/include/avr/power.h ****   </tr>
 176:/usr/local/Cellar/avr-gcc/9.1.0/avr/include/avr/power.h **** 
 177:/usr/local/Cellar/avr-gcc/9.1.0/avr/include/avr/power.h ****   <tr>
 178:/usr/local/Cellar/avr-gcc/9.1.0/avr/include/avr/power.h ****     <td>power_psc1_disable()</td>
 179:/usr/local/Cellar/avr-gcc/9.1.0/avr/include/avr/power.h ****     <td>Disable the Power Stage Controller 1 module.</td>
 180:/usr/local/Cellar/avr-gcc/9.1.0/avr/include/avr/power.h ****   </tr>
 181:/usr/local/Cellar/avr-gcc/9.1.0/avr/include/avr/power.h **** 
 182:/usr/local/Cellar/avr-gcc/9.1.0/avr/include/avr/power.h ****   <tr>
 183:/usr/local/Cellar/avr-gcc/9.1.0/avr/include/avr/power.h ****     <td>power_psc2_enable()</td>
 184:/usr/local/Cellar/avr-gcc/9.1.0/avr/include/avr/power.h ****     <td>Enable the Power Stage Controller 2 module.</td>
 185:/usr/local/Cellar/avr-gcc/9.1.0/avr/include/avr/power.h ****   </tr>
 186:/usr/local/Cellar/avr-gcc/9.1.0/avr/include/avr/power.h **** 
 187:/usr/local/Cellar/avr-gcc/9.1.0/avr/include/avr/power.h ****   <tr>
 188:/usr/local/Cellar/avr-gcc/9.1.0/avr/include/avr/power.h ****     <td>power_psc2_disable()</td>
 189:/usr/local/Cellar/avr-gcc/9.1.0/avr/include/avr/power.h ****     <td>Disable the Power Stage Controller 2 module.</td>
 190:/usr/local/Cellar/avr-gcc/9.1.0/avr/include/avr/power.h ****   </tr>
 191:/usr/local/Cellar/avr-gcc/9.1.0/avr/include/avr/power.h **** 
 192:/usr/local/Cellar/avr-gcc/9.1.0/avr/include/avr/power.h ****   <tr>
 193:/usr/local/Cellar/avr-gcc/9.1.0/avr/include/avr/power.h ****     <td>power_ram0_enable()</td>
 194:/usr/local/Cellar/avr-gcc/9.1.0/avr/include/avr/power.h ****     <td>Enable the SRAM block 0 .</td>
 195:/usr/local/Cellar/avr-gcc/9.1.0/avr/include/avr/power.h ****   </tr>
 196:/usr/local/Cellar/avr-gcc/9.1.0/avr/include/avr/power.h **** 
 197:/usr/local/Cellar/avr-gcc/9.1.0/avr/include/avr/power.h ****   <tr>
 198:/usr/local/Cellar/avr-gcc/9.1.0/avr/include/avr/power.h ****     <td>power_ram0_disable()</td>
 199:/usr/local/Cellar/avr-gcc/9.1.0/avr/include/avr/power.h ****     <td>Disable the SRAM block 0. </td>
 200:/usr/local/Cellar/avr-gcc/9.1.0/avr/include/avr/power.h ****   </tr>
 201:/usr/local/Cellar/avr-gcc/9.1.0/avr/include/avr/power.h **** 
 202:/usr/local/Cellar/avr-gcc/9.1.0/avr/include/avr/power.h ****   <tr>
 203:/usr/local/Cellar/avr-gcc/9.1.0/avr/include/avr/power.h ****     <td>power_ram1_enable()</td>
 204:/usr/local/Cellar/avr-gcc/9.1.0/avr/include/avr/power.h ****     <td>Enable the SRAM block 1 .</td>
 205:/usr/local/Cellar/avr-gcc/9.1.0/avr/include/avr/power.h ****   </tr>
 206:/usr/local/Cellar/avr-gcc/9.1.0/avr/include/avr/power.h **** 
 207:/usr/local/Cellar/avr-gcc/9.1.0/avr/include/avr/power.h ****   <tr>
 208:/usr/local/Cellar/avr-gcc/9.1.0/avr/include/avr/power.h ****     <td>power_ram1_disable()</td>
 209:/usr/local/Cellar/avr-gcc/9.1.0/avr/include/avr/power.h ****     <td>Disable the SRAM block 1. </td>
 210:/usr/local/Cellar/avr-gcc/9.1.0/avr/include/avr/power.h ****   </tr>
 211:/usr/local/Cellar/avr-gcc/9.1.0/avr/include/avr/power.h **** 
 212:/usr/local/Cellar/avr-gcc/9.1.0/avr/include/avr/power.h ****   <tr>
 213:/usr/local/Cellar/avr-gcc/9.1.0/avr/include/avr/power.h ****     <td>power_ram2_enable()</td>
 214:/usr/local/Cellar/avr-gcc/9.1.0/avr/include/avr/power.h ****     <td>Enable the SRAM block 2 .</td>
 215:/usr/local/Cellar/avr-gcc/9.1.0/avr/include/avr/power.h ****   </tr>
 216:/usr/local/Cellar/avr-gcc/9.1.0/avr/include/avr/power.h **** 
 217:/usr/local/Cellar/avr-gcc/9.1.0/avr/include/avr/power.h ****   <tr>
 218:/usr/local/Cellar/avr-gcc/9.1.0/avr/include/avr/power.h ****     <td>power_ram2_disable()</td>
 219:/usr/local/Cellar/avr-gcc/9.1.0/avr/include/avr/power.h ****     <td>Disable the SRAM block 2. </td>
 220:/usr/local/Cellar/avr-gcc/9.1.0/avr/include/avr/power.h ****   </tr>
 221:/usr/local/Cellar/avr-gcc/9.1.0/avr/include/avr/power.h **** 
 222:/usr/local/Cellar/avr-gcc/9.1.0/avr/include/avr/power.h ****   <tr>
 223:/usr/local/Cellar/avr-gcc/9.1.0/avr/include/avr/power.h ****     <td>power_ram3_enable()</td>
 224:/usr/local/Cellar/avr-gcc/9.1.0/avr/include/avr/power.h ****     <td>Enable the SRAM block 3 .</td>
 225:/usr/local/Cellar/avr-gcc/9.1.0/avr/include/avr/power.h ****   </tr>
 226:/usr/local/Cellar/avr-gcc/9.1.0/avr/include/avr/power.h **** 
 227:/usr/local/Cellar/avr-gcc/9.1.0/avr/include/avr/power.h ****   <tr>
 228:/usr/local/Cellar/avr-gcc/9.1.0/avr/include/avr/power.h ****     <td>power_ram3_disable()</td>
 229:/usr/local/Cellar/avr-gcc/9.1.0/avr/include/avr/power.h ****     <td>Disable the SRAM block 3. </td>
 230:/usr/local/Cellar/avr-gcc/9.1.0/avr/include/avr/power.h ****   </tr>
 231:/usr/local/Cellar/avr-gcc/9.1.0/avr/include/avr/power.h **** 
 232:/usr/local/Cellar/avr-gcc/9.1.0/avr/include/avr/power.h ****   <tr>
 233:/usr/local/Cellar/avr-gcc/9.1.0/avr/include/avr/power.h ****     <td>power_rtc_disable()</td>
 234:/usr/local/Cellar/avr-gcc/9.1.0/avr/include/avr/power.h ****     <td>Disable the RTC module</td>
 235:/usr/local/Cellar/avr-gcc/9.1.0/avr/include/avr/power.h ****   </tr>
 236:/usr/local/Cellar/avr-gcc/9.1.0/avr/include/avr/power.h **** 
 237:/usr/local/Cellar/avr-gcc/9.1.0/avr/include/avr/power.h ****   <tr>
 238:/usr/local/Cellar/avr-gcc/9.1.0/avr/include/avr/power.h ****     <td>power_rtc_enable()</td>
 239:/usr/local/Cellar/avr-gcc/9.1.0/avr/include/avr/power.h ****     <td>Enable the RTC module</td>
 240:/usr/local/Cellar/avr-gcc/9.1.0/avr/include/avr/power.h ****   </tr>
 241:/usr/local/Cellar/avr-gcc/9.1.0/avr/include/avr/power.h **** 
 242:/usr/local/Cellar/avr-gcc/9.1.0/avr/include/avr/power.h ****   <tr>
 243:/usr/local/Cellar/avr-gcc/9.1.0/avr/include/avr/power.h ****     <td>power_spi_enable()</td>
 244:/usr/local/Cellar/avr-gcc/9.1.0/avr/include/avr/power.h ****     <td>Enable the Serial Peripheral Interface module.</td>
 245:/usr/local/Cellar/avr-gcc/9.1.0/avr/include/avr/power.h ****   </tr>
 246:/usr/local/Cellar/avr-gcc/9.1.0/avr/include/avr/power.h **** 
 247:/usr/local/Cellar/avr-gcc/9.1.0/avr/include/avr/power.h ****   <tr>
 248:/usr/local/Cellar/avr-gcc/9.1.0/avr/include/avr/power.h ****     <td>power_spi_disable()</td>
 249:/usr/local/Cellar/avr-gcc/9.1.0/avr/include/avr/power.h ****     <td>Disable the Serial Peripheral Interface module.</td>
 250:/usr/local/Cellar/avr-gcc/9.1.0/avr/include/avr/power.h ****   </tr>
 251:/usr/local/Cellar/avr-gcc/9.1.0/avr/include/avr/power.h **** 
 252:/usr/local/Cellar/avr-gcc/9.1.0/avr/include/avr/power.h ****   <tr>
 253:/usr/local/Cellar/avr-gcc/9.1.0/avr/include/avr/power.h ****     <td>power_spic_disable()</td>
 254:/usr/local/Cellar/avr-gcc/9.1.0/avr/include/avr/power.h ****     <td>Disable the SPI module on PortC</td>
 255:/usr/local/Cellar/avr-gcc/9.1.0/avr/include/avr/power.h ****   </tr>
 256:/usr/local/Cellar/avr-gcc/9.1.0/avr/include/avr/power.h **** 
 257:/usr/local/Cellar/avr-gcc/9.1.0/avr/include/avr/power.h ****   <tr>
 258:/usr/local/Cellar/avr-gcc/9.1.0/avr/include/avr/power.h ****     <td>power_spic_enable()</td>
 259:/usr/local/Cellar/avr-gcc/9.1.0/avr/include/avr/power.h ****     <td>Enable the SPI module on PortC</td>
 260:/usr/local/Cellar/avr-gcc/9.1.0/avr/include/avr/power.h ****   </tr>
 261:/usr/local/Cellar/avr-gcc/9.1.0/avr/include/avr/power.h **** 
 262:/usr/local/Cellar/avr-gcc/9.1.0/avr/include/avr/power.h ****   <tr>
 263:/usr/local/Cellar/avr-gcc/9.1.0/avr/include/avr/power.h ****     <td>power_spid_disable()</td>
 264:/usr/local/Cellar/avr-gcc/9.1.0/avr/include/avr/power.h ****     <td>Disable the SPI module on PortD</td>
 265:/usr/local/Cellar/avr-gcc/9.1.0/avr/include/avr/power.h ****   </tr>
 266:/usr/local/Cellar/avr-gcc/9.1.0/avr/include/avr/power.h **** 
 267:/usr/local/Cellar/avr-gcc/9.1.0/avr/include/avr/power.h ****   <tr>
 268:/usr/local/Cellar/avr-gcc/9.1.0/avr/include/avr/power.h ****     <td>power_spid_enable()</td>
 269:/usr/local/Cellar/avr-gcc/9.1.0/avr/include/avr/power.h ****     <td>Enable the SPI module on PortD</td>
 270:/usr/local/Cellar/avr-gcc/9.1.0/avr/include/avr/power.h ****   </tr>
 271:/usr/local/Cellar/avr-gcc/9.1.0/avr/include/avr/power.h **** 
 272:/usr/local/Cellar/avr-gcc/9.1.0/avr/include/avr/power.h ****   <tr>
 273:/usr/local/Cellar/avr-gcc/9.1.0/avr/include/avr/power.h ****     <td>power_tc0c_disable()</td>
 274:/usr/local/Cellar/avr-gcc/9.1.0/avr/include/avr/power.h ****     <td>Disable the TC0 module on PortC</td>
 275:/usr/local/Cellar/avr-gcc/9.1.0/avr/include/avr/power.h ****   </tr>
 276:/usr/local/Cellar/avr-gcc/9.1.0/avr/include/avr/power.h **** 
 277:/usr/local/Cellar/avr-gcc/9.1.0/avr/include/avr/power.h ****   <tr>
 278:/usr/local/Cellar/avr-gcc/9.1.0/avr/include/avr/power.h ****     <td>power_tc0c_enable()</td>
 279:/usr/local/Cellar/avr-gcc/9.1.0/avr/include/avr/power.h ****     <td>Enable the TC0 module on PortC</td>
 280:/usr/local/Cellar/avr-gcc/9.1.0/avr/include/avr/power.h ****   </tr>
 281:/usr/local/Cellar/avr-gcc/9.1.0/avr/include/avr/power.h **** 
 282:/usr/local/Cellar/avr-gcc/9.1.0/avr/include/avr/power.h ****   <tr>
 283:/usr/local/Cellar/avr-gcc/9.1.0/avr/include/avr/power.h ****     <td>power_tc0d_disable()</td>
 284:/usr/local/Cellar/avr-gcc/9.1.0/avr/include/avr/power.h ****     <td>Disable the TC0 module on PortD</td>
 285:/usr/local/Cellar/avr-gcc/9.1.0/avr/include/avr/power.h ****   </tr>
 286:/usr/local/Cellar/avr-gcc/9.1.0/avr/include/avr/power.h **** 
 287:/usr/local/Cellar/avr-gcc/9.1.0/avr/include/avr/power.h ****   <tr>
 288:/usr/local/Cellar/avr-gcc/9.1.0/avr/include/avr/power.h ****     <td>power_tc0d_enable()</td>
 289:/usr/local/Cellar/avr-gcc/9.1.0/avr/include/avr/power.h ****     <td>Enable the TC0 module on PortD</td>
 290:/usr/local/Cellar/avr-gcc/9.1.0/avr/include/avr/power.h ****   </tr>
 291:/usr/local/Cellar/avr-gcc/9.1.0/avr/include/avr/power.h **** 
 292:/usr/local/Cellar/avr-gcc/9.1.0/avr/include/avr/power.h ****   <tr>
 293:/usr/local/Cellar/avr-gcc/9.1.0/avr/include/avr/power.h ****     <td>power_tc0e_disable()</td>
 294:/usr/local/Cellar/avr-gcc/9.1.0/avr/include/avr/power.h ****     <td>Disable the TC0 module on PortE</td>
 295:/usr/local/Cellar/avr-gcc/9.1.0/avr/include/avr/power.h ****   </tr>
 296:/usr/local/Cellar/avr-gcc/9.1.0/avr/include/avr/power.h **** 
 297:/usr/local/Cellar/avr-gcc/9.1.0/avr/include/avr/power.h ****   <tr>
 298:/usr/local/Cellar/avr-gcc/9.1.0/avr/include/avr/power.h ****     <td>power_tc0e_enable()</td>
 299:/usr/local/Cellar/avr-gcc/9.1.0/avr/include/avr/power.h ****     <td>Enable the TC0 module on PortE</td>
 300:/usr/local/Cellar/avr-gcc/9.1.0/avr/include/avr/power.h ****   </tr>
 301:/usr/local/Cellar/avr-gcc/9.1.0/avr/include/avr/power.h **** 
 302:/usr/local/Cellar/avr-gcc/9.1.0/avr/include/avr/power.h ****   <tr>
 303:/usr/local/Cellar/avr-gcc/9.1.0/avr/include/avr/power.h ****     <td>power_tc0f_disable()</td>
 304:/usr/local/Cellar/avr-gcc/9.1.0/avr/include/avr/power.h ****     <td>Disable the TC0 module on PortF</td>
 305:/usr/local/Cellar/avr-gcc/9.1.0/avr/include/avr/power.h ****   </tr>
 306:/usr/local/Cellar/avr-gcc/9.1.0/avr/include/avr/power.h **** 
 307:/usr/local/Cellar/avr-gcc/9.1.0/avr/include/avr/power.h ****   <tr>
 308:/usr/local/Cellar/avr-gcc/9.1.0/avr/include/avr/power.h ****     <td>power_tc0f_enable()</td>
 309:/usr/local/Cellar/avr-gcc/9.1.0/avr/include/avr/power.h ****     <td>Enable the TC0 module on PortF</td>
 310:/usr/local/Cellar/avr-gcc/9.1.0/avr/include/avr/power.h ****   </tr>
 311:/usr/local/Cellar/avr-gcc/9.1.0/avr/include/avr/power.h **** 
 312:/usr/local/Cellar/avr-gcc/9.1.0/avr/include/avr/power.h ****   <tr>
 313:/usr/local/Cellar/avr-gcc/9.1.0/avr/include/avr/power.h ****     <td>power_tc1c_disable()</td>
 314:/usr/local/Cellar/avr-gcc/9.1.0/avr/include/avr/power.h ****     <td>Disable the TC1 module on PortC</td>
 315:/usr/local/Cellar/avr-gcc/9.1.0/avr/include/avr/power.h ****   </tr>
 316:/usr/local/Cellar/avr-gcc/9.1.0/avr/include/avr/power.h **** 
 317:/usr/local/Cellar/avr-gcc/9.1.0/avr/include/avr/power.h ****   <tr>
 318:/usr/local/Cellar/avr-gcc/9.1.0/avr/include/avr/power.h ****     <td>power_tc1c_enable()</td>
 319:/usr/local/Cellar/avr-gcc/9.1.0/avr/include/avr/power.h ****     <td>Enable the TC1 module on PortC</td>
 320:/usr/local/Cellar/avr-gcc/9.1.0/avr/include/avr/power.h ****   </tr>
 321:/usr/local/Cellar/avr-gcc/9.1.0/avr/include/avr/power.h **** 
 322:/usr/local/Cellar/avr-gcc/9.1.0/avr/include/avr/power.h ****   <tr>
 323:/usr/local/Cellar/avr-gcc/9.1.0/avr/include/avr/power.h ****     <td>power_twic_disable()</td>
 324:/usr/local/Cellar/avr-gcc/9.1.0/avr/include/avr/power.h ****     <td>Disable the Two Wire Interface module on PortC</td>
 325:/usr/local/Cellar/avr-gcc/9.1.0/avr/include/avr/power.h ****   </tr>
 326:/usr/local/Cellar/avr-gcc/9.1.0/avr/include/avr/power.h **** 
 327:/usr/local/Cellar/avr-gcc/9.1.0/avr/include/avr/power.h ****   <tr>
 328:/usr/local/Cellar/avr-gcc/9.1.0/avr/include/avr/power.h ****     <td>power_twic_enable()</td>
 329:/usr/local/Cellar/avr-gcc/9.1.0/avr/include/avr/power.h ****     <td>Enable the Two Wire Interface module on PortC</td>
 330:/usr/local/Cellar/avr-gcc/9.1.0/avr/include/avr/power.h ****   </tr>
 331:/usr/local/Cellar/avr-gcc/9.1.0/avr/include/avr/power.h **** 
 332:/usr/local/Cellar/avr-gcc/9.1.0/avr/include/avr/power.h ****   <tr>
 333:/usr/local/Cellar/avr-gcc/9.1.0/avr/include/avr/power.h ****     <td>power_twie_disable()</td>
 334:/usr/local/Cellar/avr-gcc/9.1.0/avr/include/avr/power.h ****     <td>Disable the Two Wire Interface module on PortE</td>
 335:/usr/local/Cellar/avr-gcc/9.1.0/avr/include/avr/power.h ****   </tr>
 336:/usr/local/Cellar/avr-gcc/9.1.0/avr/include/avr/power.h **** 
 337:/usr/local/Cellar/avr-gcc/9.1.0/avr/include/avr/power.h ****   <tr>
 338:/usr/local/Cellar/avr-gcc/9.1.0/avr/include/avr/power.h ****     <td>power_twie_enable()</td>
 339:/usr/local/Cellar/avr-gcc/9.1.0/avr/include/avr/power.h ****     <td>Enable the Two Wire Interface module on PortE</td>
 340:/usr/local/Cellar/avr-gcc/9.1.0/avr/include/avr/power.h ****   </tr>
 341:/usr/local/Cellar/avr-gcc/9.1.0/avr/include/avr/power.h **** 
 342:/usr/local/Cellar/avr-gcc/9.1.0/avr/include/avr/power.h ****   <tr>
 343:/usr/local/Cellar/avr-gcc/9.1.0/avr/include/avr/power.h ****     <td>power_timer0_enable()</td>
 344:/usr/local/Cellar/avr-gcc/9.1.0/avr/include/avr/power.h ****     <td>Enable the Timer 0 module.</td>
 345:/usr/local/Cellar/avr-gcc/9.1.0/avr/include/avr/power.h ****   </tr>
 346:/usr/local/Cellar/avr-gcc/9.1.0/avr/include/avr/power.h **** 
 347:/usr/local/Cellar/avr-gcc/9.1.0/avr/include/avr/power.h ****   <tr>
 348:/usr/local/Cellar/avr-gcc/9.1.0/avr/include/avr/power.h ****     <td>power_timer0_disable()</td>
 349:/usr/local/Cellar/avr-gcc/9.1.0/avr/include/avr/power.h ****     <td>Disable the Timer 0 module.</td>
 350:/usr/local/Cellar/avr-gcc/9.1.0/avr/include/avr/power.h ****   </tr>
 351:/usr/local/Cellar/avr-gcc/9.1.0/avr/include/avr/power.h **** 
 352:/usr/local/Cellar/avr-gcc/9.1.0/avr/include/avr/power.h ****   <tr>
 353:/usr/local/Cellar/avr-gcc/9.1.0/avr/include/avr/power.h ****     <td>power_timer1_enable()</td>
 354:/usr/local/Cellar/avr-gcc/9.1.0/avr/include/avr/power.h ****     <td>Enable the Timer 1 module.</td>
 355:/usr/local/Cellar/avr-gcc/9.1.0/avr/include/avr/power.h ****   </tr>
 356:/usr/local/Cellar/avr-gcc/9.1.0/avr/include/avr/power.h **** 
 357:/usr/local/Cellar/avr-gcc/9.1.0/avr/include/avr/power.h ****   <tr>
 358:/usr/local/Cellar/avr-gcc/9.1.0/avr/include/avr/power.h ****     <td>power_timer1_disable()</td>
 359:/usr/local/Cellar/avr-gcc/9.1.0/avr/include/avr/power.h ****     <td>Disable the Timer 1 module.</td>
 360:/usr/local/Cellar/avr-gcc/9.1.0/avr/include/avr/power.h ****   </tr>
 361:/usr/local/Cellar/avr-gcc/9.1.0/avr/include/avr/power.h **** 
 362:/usr/local/Cellar/avr-gcc/9.1.0/avr/include/avr/power.h ****   <tr>
 363:/usr/local/Cellar/avr-gcc/9.1.0/avr/include/avr/power.h ****     <td>power_timer2_enable()</td>
 364:/usr/local/Cellar/avr-gcc/9.1.0/avr/include/avr/power.h ****     <td>Enable the Timer 2 module.</td>
 365:/usr/local/Cellar/avr-gcc/9.1.0/avr/include/avr/power.h ****   </tr>
 366:/usr/local/Cellar/avr-gcc/9.1.0/avr/include/avr/power.h **** 
 367:/usr/local/Cellar/avr-gcc/9.1.0/avr/include/avr/power.h ****   <tr>
 368:/usr/local/Cellar/avr-gcc/9.1.0/avr/include/avr/power.h ****     <td>power_timer2_disable()</td>
 369:/usr/local/Cellar/avr-gcc/9.1.0/avr/include/avr/power.h ****     <td>Disable the Timer 2 module.</td>
 370:/usr/local/Cellar/avr-gcc/9.1.0/avr/include/avr/power.h ****   </tr>
 371:/usr/local/Cellar/avr-gcc/9.1.0/avr/include/avr/power.h **** 
 372:/usr/local/Cellar/avr-gcc/9.1.0/avr/include/avr/power.h ****   <tr>
 373:/usr/local/Cellar/avr-gcc/9.1.0/avr/include/avr/power.h ****     <td>power_timer3_enable()</td>
 374:/usr/local/Cellar/avr-gcc/9.1.0/avr/include/avr/power.h ****     <td>Enable the Timer 3 module.</td>
 375:/usr/local/Cellar/avr-gcc/9.1.0/avr/include/avr/power.h ****   </tr>
 376:/usr/local/Cellar/avr-gcc/9.1.0/avr/include/avr/power.h **** 
 377:/usr/local/Cellar/avr-gcc/9.1.0/avr/include/avr/power.h ****   <tr>
 378:/usr/local/Cellar/avr-gcc/9.1.0/avr/include/avr/power.h ****     <td>power_timer3_disable()</td>
 379:/usr/local/Cellar/avr-gcc/9.1.0/avr/include/avr/power.h ****     <td>Disable the Timer 3 module.</td>
 380:/usr/local/Cellar/avr-gcc/9.1.0/avr/include/avr/power.h ****   </tr>
 381:/usr/local/Cellar/avr-gcc/9.1.0/avr/include/avr/power.h **** 
 382:/usr/local/Cellar/avr-gcc/9.1.0/avr/include/avr/power.h ****   <tr>
 383:/usr/local/Cellar/avr-gcc/9.1.0/avr/include/avr/power.h ****     <td>power_timer4_enable()</td>
 384:/usr/local/Cellar/avr-gcc/9.1.0/avr/include/avr/power.h ****     <td>Enable the Timer 4 module.</td>
 385:/usr/local/Cellar/avr-gcc/9.1.0/avr/include/avr/power.h ****   </tr>
 386:/usr/local/Cellar/avr-gcc/9.1.0/avr/include/avr/power.h **** 
 387:/usr/local/Cellar/avr-gcc/9.1.0/avr/include/avr/power.h ****   <tr>
 388:/usr/local/Cellar/avr-gcc/9.1.0/avr/include/avr/power.h ****     <td>power_timer4_disable()</td>
 389:/usr/local/Cellar/avr-gcc/9.1.0/avr/include/avr/power.h ****     <td>Disable the Timer 4 module.</td>
 390:/usr/local/Cellar/avr-gcc/9.1.0/avr/include/avr/power.h ****   </tr>
 391:/usr/local/Cellar/avr-gcc/9.1.0/avr/include/avr/power.h **** 
 392:/usr/local/Cellar/avr-gcc/9.1.0/avr/include/avr/power.h ****   <tr>
 393:/usr/local/Cellar/avr-gcc/9.1.0/avr/include/avr/power.h ****     <td>power_timer5_enable()</td>
 394:/usr/local/Cellar/avr-gcc/9.1.0/avr/include/avr/power.h ****     <td>Enable the Timer 5 module.</td>
 395:/usr/local/Cellar/avr-gcc/9.1.0/avr/include/avr/power.h ****   </tr>
 396:/usr/local/Cellar/avr-gcc/9.1.0/avr/include/avr/power.h **** 
 397:/usr/local/Cellar/avr-gcc/9.1.0/avr/include/avr/power.h ****   <tr>
 398:/usr/local/Cellar/avr-gcc/9.1.0/avr/include/avr/power.h ****     <td>power_timer5_disable()</td>
 399:/usr/local/Cellar/avr-gcc/9.1.0/avr/include/avr/power.h ****     <td>Disable the Timer 5 module.</td>
 400:/usr/local/Cellar/avr-gcc/9.1.0/avr/include/avr/power.h ****   </tr>
 401:/usr/local/Cellar/avr-gcc/9.1.0/avr/include/avr/power.h **** 
 402:/usr/local/Cellar/avr-gcc/9.1.0/avr/include/avr/power.h ****   <tr>
 403:/usr/local/Cellar/avr-gcc/9.1.0/avr/include/avr/power.h ****     <td>power_twi_enable()</td>
 404:/usr/local/Cellar/avr-gcc/9.1.0/avr/include/avr/power.h ****     <td>Enable the Two Wire Interface module.</td>
 405:/usr/local/Cellar/avr-gcc/9.1.0/avr/include/avr/power.h ****   </tr>
 406:/usr/local/Cellar/avr-gcc/9.1.0/avr/include/avr/power.h **** 
 407:/usr/local/Cellar/avr-gcc/9.1.0/avr/include/avr/power.h ****   <tr>
 408:/usr/local/Cellar/avr-gcc/9.1.0/avr/include/avr/power.h ****     <td>power_twi_disable()</td>
 409:/usr/local/Cellar/avr-gcc/9.1.0/avr/include/avr/power.h ****     <td>Disable the Two Wire Interface module.</td>
 410:/usr/local/Cellar/avr-gcc/9.1.0/avr/include/avr/power.h ****   </tr>
 411:/usr/local/Cellar/avr-gcc/9.1.0/avr/include/avr/power.h **** 
 412:/usr/local/Cellar/avr-gcc/9.1.0/avr/include/avr/power.h ****   <tr>
 413:/usr/local/Cellar/avr-gcc/9.1.0/avr/include/avr/power.h ****     <td>power_usart_enable()</td>
 414:/usr/local/Cellar/avr-gcc/9.1.0/avr/include/avr/power.h ****     <td>Enable the USART module.</td>
 415:/usr/local/Cellar/avr-gcc/9.1.0/avr/include/avr/power.h ****   </tr>
 416:/usr/local/Cellar/avr-gcc/9.1.0/avr/include/avr/power.h **** 
 417:/usr/local/Cellar/avr-gcc/9.1.0/avr/include/avr/power.h ****   <tr>
 418:/usr/local/Cellar/avr-gcc/9.1.0/avr/include/avr/power.h ****     <td>power_usart_disable()</td>
 419:/usr/local/Cellar/avr-gcc/9.1.0/avr/include/avr/power.h ****     <td>Disable the USART module.</td>
 420:/usr/local/Cellar/avr-gcc/9.1.0/avr/include/avr/power.h ****   </tr>
 421:/usr/local/Cellar/avr-gcc/9.1.0/avr/include/avr/power.h **** 
 422:/usr/local/Cellar/avr-gcc/9.1.0/avr/include/avr/power.h ****   <tr>
 423:/usr/local/Cellar/avr-gcc/9.1.0/avr/include/avr/power.h ****     <td>power_usart0_enable()</td>
 424:/usr/local/Cellar/avr-gcc/9.1.0/avr/include/avr/power.h ****     <td>Enable the USART 0 module.</td>
 425:/usr/local/Cellar/avr-gcc/9.1.0/avr/include/avr/power.h ****   </tr>
 426:/usr/local/Cellar/avr-gcc/9.1.0/avr/include/avr/power.h **** 
 427:/usr/local/Cellar/avr-gcc/9.1.0/avr/include/avr/power.h ****   <tr>
 428:/usr/local/Cellar/avr-gcc/9.1.0/avr/include/avr/power.h ****     <td>power_usart0_disable()</td>
 429:/usr/local/Cellar/avr-gcc/9.1.0/avr/include/avr/power.h ****     <td>Disable the USART 0 module.</td>
 430:/usr/local/Cellar/avr-gcc/9.1.0/avr/include/avr/power.h ****   </tr>
 431:/usr/local/Cellar/avr-gcc/9.1.0/avr/include/avr/power.h **** 
 432:/usr/local/Cellar/avr-gcc/9.1.0/avr/include/avr/power.h ****   <tr>
 433:/usr/local/Cellar/avr-gcc/9.1.0/avr/include/avr/power.h ****     <td>power_usart1_enable()</td>
 434:/usr/local/Cellar/avr-gcc/9.1.0/avr/include/avr/power.h ****     <td>Enable the USART 1 module.</td>
 435:/usr/local/Cellar/avr-gcc/9.1.0/avr/include/avr/power.h ****   </tr>
 436:/usr/local/Cellar/avr-gcc/9.1.0/avr/include/avr/power.h **** 
 437:/usr/local/Cellar/avr-gcc/9.1.0/avr/include/avr/power.h ****   <tr>
 438:/usr/local/Cellar/avr-gcc/9.1.0/avr/include/avr/power.h ****     <td>power_usart1_disable()</td>
 439:/usr/local/Cellar/avr-gcc/9.1.0/avr/include/avr/power.h ****     <td>Disable the USART 1 module.</td>
 440:/usr/local/Cellar/avr-gcc/9.1.0/avr/include/avr/power.h ****   </tr>
 441:/usr/local/Cellar/avr-gcc/9.1.0/avr/include/avr/power.h **** 
 442:/usr/local/Cellar/avr-gcc/9.1.0/avr/include/avr/power.h ****   <tr>
 443:/usr/local/Cellar/avr-gcc/9.1.0/avr/include/avr/power.h ****     <td>power_usart2_enable()</td>
 444:/usr/local/Cellar/avr-gcc/9.1.0/avr/include/avr/power.h ****     <td>Enable the USART 2 module.</td>
 445:/usr/local/Cellar/avr-gcc/9.1.0/avr/include/avr/power.h ****   </tr>
 446:/usr/local/Cellar/avr-gcc/9.1.0/avr/include/avr/power.h **** 
 447:/usr/local/Cellar/avr-gcc/9.1.0/avr/include/avr/power.h ****   <tr>
 448:/usr/local/Cellar/avr-gcc/9.1.0/avr/include/avr/power.h ****     <td>power_usart2_disable()</td>
 449:/usr/local/Cellar/avr-gcc/9.1.0/avr/include/avr/power.h ****     <td>Disable the USART 2 module.</td>
 450:/usr/local/Cellar/avr-gcc/9.1.0/avr/include/avr/power.h ****   </tr>
 451:/usr/local/Cellar/avr-gcc/9.1.0/avr/include/avr/power.h **** 
 452:/usr/local/Cellar/avr-gcc/9.1.0/avr/include/avr/power.h ****   <tr>
 453:/usr/local/Cellar/avr-gcc/9.1.0/avr/include/avr/power.h ****     <td>power_usart3_enable()</td>
 454:/usr/local/Cellar/avr-gcc/9.1.0/avr/include/avr/power.h ****     <td>Enable the USART 3 module.</td>
 455:/usr/local/Cellar/avr-gcc/9.1.0/avr/include/avr/power.h ****   </tr>
 456:/usr/local/Cellar/avr-gcc/9.1.0/avr/include/avr/power.h **** 
 457:/usr/local/Cellar/avr-gcc/9.1.0/avr/include/avr/power.h ****   <tr>
 458:/usr/local/Cellar/avr-gcc/9.1.0/avr/include/avr/power.h ****     <td>power_usart3_disable()</td>
 459:/usr/local/Cellar/avr-gcc/9.1.0/avr/include/avr/power.h ****     <td>Disable the USART 3 module.</td>
 460:/usr/local/Cellar/avr-gcc/9.1.0/avr/include/avr/power.h ****   </tr>
 461:/usr/local/Cellar/avr-gcc/9.1.0/avr/include/avr/power.h **** 
 462:/usr/local/Cellar/avr-gcc/9.1.0/avr/include/avr/power.h ****   <tr>
 463:/usr/local/Cellar/avr-gcc/9.1.0/avr/include/avr/power.h ****     <td>power_usartc0_disable()</td>
 464:/usr/local/Cellar/avr-gcc/9.1.0/avr/include/avr/power.h ****     <td> Disable the USART0 module on PortC</td>
 465:/usr/local/Cellar/avr-gcc/9.1.0/avr/include/avr/power.h ****   </tr>
 466:/usr/local/Cellar/avr-gcc/9.1.0/avr/include/avr/power.h **** 
 467:/usr/local/Cellar/avr-gcc/9.1.0/avr/include/avr/power.h ****   <tr>
 468:/usr/local/Cellar/avr-gcc/9.1.0/avr/include/avr/power.h ****     <td>power_usartc0_enable()</td>
 469:/usr/local/Cellar/avr-gcc/9.1.0/avr/include/avr/power.h ****     <td> Enable the USART0 module on PortC</td>
 470:/usr/local/Cellar/avr-gcc/9.1.0/avr/include/avr/power.h ****   </tr>
 471:/usr/local/Cellar/avr-gcc/9.1.0/avr/include/avr/power.h **** 
 472:/usr/local/Cellar/avr-gcc/9.1.0/avr/include/avr/power.h ****   <tr>
 473:/usr/local/Cellar/avr-gcc/9.1.0/avr/include/avr/power.h ****     <td>power_usartd0_disable()</td>
 474:/usr/local/Cellar/avr-gcc/9.1.0/avr/include/avr/power.h ****     <td> Disable the USART0 module on PortD</td>
 475:/usr/local/Cellar/avr-gcc/9.1.0/avr/include/avr/power.h ****   </tr>
 476:/usr/local/Cellar/avr-gcc/9.1.0/avr/include/avr/power.h **** 
 477:/usr/local/Cellar/avr-gcc/9.1.0/avr/include/avr/power.h ****   <tr>
 478:/usr/local/Cellar/avr-gcc/9.1.0/avr/include/avr/power.h ****     <td>power_usartd0_enable()</td>
 479:/usr/local/Cellar/avr-gcc/9.1.0/avr/include/avr/power.h ****     <td> Enable the USART0 module on PortD</td>
 480:/usr/local/Cellar/avr-gcc/9.1.0/avr/include/avr/power.h ****   </tr>
 481:/usr/local/Cellar/avr-gcc/9.1.0/avr/include/avr/power.h **** 
 482:/usr/local/Cellar/avr-gcc/9.1.0/avr/include/avr/power.h ****   <tr>
 483:/usr/local/Cellar/avr-gcc/9.1.0/avr/include/avr/power.h ****     <td>power_usarte0_disable()</td>
 484:/usr/local/Cellar/avr-gcc/9.1.0/avr/include/avr/power.h ****     <td> Disable the USART0 module on PortE</td>
 485:/usr/local/Cellar/avr-gcc/9.1.0/avr/include/avr/power.h ****   </tr>
 486:/usr/local/Cellar/avr-gcc/9.1.0/avr/include/avr/power.h **** 
 487:/usr/local/Cellar/avr-gcc/9.1.0/avr/include/avr/power.h ****   <tr>
 488:/usr/local/Cellar/avr-gcc/9.1.0/avr/include/avr/power.h ****     <td>power_usarte0_enable()</td>
 489:/usr/local/Cellar/avr-gcc/9.1.0/avr/include/avr/power.h ****     <td> Enable the USART0 module on PortE</td>
 490:/usr/local/Cellar/avr-gcc/9.1.0/avr/include/avr/power.h ****   </tr>
 491:/usr/local/Cellar/avr-gcc/9.1.0/avr/include/avr/power.h **** 
 492:/usr/local/Cellar/avr-gcc/9.1.0/avr/include/avr/power.h ****   <tr>
 493:/usr/local/Cellar/avr-gcc/9.1.0/avr/include/avr/power.h ****     <td>power_usartf0_disable()</td>
 494:/usr/local/Cellar/avr-gcc/9.1.0/avr/include/avr/power.h ****     <td> Disable the USART0 module on PortF</td>
 495:/usr/local/Cellar/avr-gcc/9.1.0/avr/include/avr/power.h ****   </tr>
 496:/usr/local/Cellar/avr-gcc/9.1.0/avr/include/avr/power.h **** 
 497:/usr/local/Cellar/avr-gcc/9.1.0/avr/include/avr/power.h ****   <tr>
 498:/usr/local/Cellar/avr-gcc/9.1.0/avr/include/avr/power.h ****     <td>power_usartf0_enable()</td>
 499:/usr/local/Cellar/avr-gcc/9.1.0/avr/include/avr/power.h ****     <td> Enable the USART0 module on PortF</td>
 500:/usr/local/Cellar/avr-gcc/9.1.0/avr/include/avr/power.h ****   </tr>
 501:/usr/local/Cellar/avr-gcc/9.1.0/avr/include/avr/power.h **** 
 502:/usr/local/Cellar/avr-gcc/9.1.0/avr/include/avr/power.h ****   <tr>
 503:/usr/local/Cellar/avr-gcc/9.1.0/avr/include/avr/power.h ****     <td>power_usb_enable()</td>
 504:/usr/local/Cellar/avr-gcc/9.1.0/avr/include/avr/power.h ****     <td>Enable the USB module.</td>
 505:/usr/local/Cellar/avr-gcc/9.1.0/avr/include/avr/power.h ****   </tr>
 506:/usr/local/Cellar/avr-gcc/9.1.0/avr/include/avr/power.h **** 
 507:/usr/local/Cellar/avr-gcc/9.1.0/avr/include/avr/power.h ****   <tr>
 508:/usr/local/Cellar/avr-gcc/9.1.0/avr/include/avr/power.h ****     <td>power_usb_disable()</td>
 509:/usr/local/Cellar/avr-gcc/9.1.0/avr/include/avr/power.h ****     <td>Disable the USB module.</td>
 510:/usr/local/Cellar/avr-gcc/9.1.0/avr/include/avr/power.h ****   </tr>
 511:/usr/local/Cellar/avr-gcc/9.1.0/avr/include/avr/power.h **** 
 512:/usr/local/Cellar/avr-gcc/9.1.0/avr/include/avr/power.h ****   <tr>
 513:/usr/local/Cellar/avr-gcc/9.1.0/avr/include/avr/power.h ****     <td>power_usi_enable()</td>
 514:/usr/local/Cellar/avr-gcc/9.1.0/avr/include/avr/power.h ****     <td>Enable the Universal Serial Interface module.</td>
 515:/usr/local/Cellar/avr-gcc/9.1.0/avr/include/avr/power.h ****   </tr>
 516:/usr/local/Cellar/avr-gcc/9.1.0/avr/include/avr/power.h **** 
 517:/usr/local/Cellar/avr-gcc/9.1.0/avr/include/avr/power.h ****   <tr>
 518:/usr/local/Cellar/avr-gcc/9.1.0/avr/include/avr/power.h ****     <td>power_usi_disable()</td>
 519:/usr/local/Cellar/avr-gcc/9.1.0/avr/include/avr/power.h ****     <td>Disable the Universal Serial Interface module.</td>
 520:/usr/local/Cellar/avr-gcc/9.1.0/avr/include/avr/power.h ****   </tr>
 521:/usr/local/Cellar/avr-gcc/9.1.0/avr/include/avr/power.h **** 
 522:/usr/local/Cellar/avr-gcc/9.1.0/avr/include/avr/power.h ****   <tr>
 523:/usr/local/Cellar/avr-gcc/9.1.0/avr/include/avr/power.h ****     <td>power_vadc_enable()</td>
 524:/usr/local/Cellar/avr-gcc/9.1.0/avr/include/avr/power.h ****     <td>Enable the Voltage ADC module.</td>
 525:/usr/local/Cellar/avr-gcc/9.1.0/avr/include/avr/power.h ****   </tr>
 526:/usr/local/Cellar/avr-gcc/9.1.0/avr/include/avr/power.h **** 
 527:/usr/local/Cellar/avr-gcc/9.1.0/avr/include/avr/power.h ****   <tr>
 528:/usr/local/Cellar/avr-gcc/9.1.0/avr/include/avr/power.h ****     <td>power_vadc_disable()</td>
 529:/usr/local/Cellar/avr-gcc/9.1.0/avr/include/avr/power.h ****     <td>Disable the Voltage ADC module.</td>
 530:/usr/local/Cellar/avr-gcc/9.1.0/avr/include/avr/power.h ****   </tr>
 531:/usr/local/Cellar/avr-gcc/9.1.0/avr/include/avr/power.h **** 
 532:/usr/local/Cellar/avr-gcc/9.1.0/avr/include/avr/power.h ****   <tr>
 533:/usr/local/Cellar/avr-gcc/9.1.0/avr/include/avr/power.h ****     <td>power_all_enable()</td>
 534:/usr/local/Cellar/avr-gcc/9.1.0/avr/include/avr/power.h ****     <td>Enable all modules.</td>
 535:/usr/local/Cellar/avr-gcc/9.1.0/avr/include/avr/power.h ****   </tr>
 536:/usr/local/Cellar/avr-gcc/9.1.0/avr/include/avr/power.h **** 
 537:/usr/local/Cellar/avr-gcc/9.1.0/avr/include/avr/power.h ****   <tr>
 538:/usr/local/Cellar/avr-gcc/9.1.0/avr/include/avr/power.h ****     <td>power_all_disable()</td>
 539:/usr/local/Cellar/avr-gcc/9.1.0/avr/include/avr/power.h ****     <td>Disable all modules.</td>
 540:/usr/local/Cellar/avr-gcc/9.1.0/avr/include/avr/power.h ****   </tr>
 541:/usr/local/Cellar/avr-gcc/9.1.0/avr/include/avr/power.h **** </table>
 542:/usr/local/Cellar/avr-gcc/9.1.0/avr/include/avr/power.h **** </center>
 543:/usr/local/Cellar/avr-gcc/9.1.0/avr/include/avr/power.h **** </small>
 544:/usr/local/Cellar/avr-gcc/9.1.0/avr/include/avr/power.h **** 
 545:/usr/local/Cellar/avr-gcc/9.1.0/avr/include/avr/power.h **** @} */
 546:/usr/local/Cellar/avr-gcc/9.1.0/avr/include/avr/power.h **** 
 547:/usr/local/Cellar/avr-gcc/9.1.0/avr/include/avr/power.h **** #if defined(__AVR_HAVE_PRR_PRADC)
 548:/usr/local/Cellar/avr-gcc/9.1.0/avr/include/avr/power.h **** #define power_adc_enable()      (PRR &= (uint8_t)~(1 << PRADC))
 549:/usr/local/Cellar/avr-gcc/9.1.0/avr/include/avr/power.h **** #define power_adc_disable()     (PRR |= (uint8_t)(1 << PRADC))
 550:/usr/local/Cellar/avr-gcc/9.1.0/avr/include/avr/power.h **** #endif
 551:/usr/local/Cellar/avr-gcc/9.1.0/avr/include/avr/power.h **** 
 552:/usr/local/Cellar/avr-gcc/9.1.0/avr/include/avr/power.h **** #if defined(__AVR_HAVE_PRR_PRCAN)
 553:/usr/local/Cellar/avr-gcc/9.1.0/avr/include/avr/power.h **** #define power_can_enable()      (PRR &= (uint8_t)~(1 << PRCAN))
 554:/usr/local/Cellar/avr-gcc/9.1.0/avr/include/avr/power.h **** #define power_can_disable()     (PRR |= (uint8_t)(1 << PRCAN))
 555:/usr/local/Cellar/avr-gcc/9.1.0/avr/include/avr/power.h **** #endif
 556:/usr/local/Cellar/avr-gcc/9.1.0/avr/include/avr/power.h **** 
 557:/usr/local/Cellar/avr-gcc/9.1.0/avr/include/avr/power.h **** #if defined(__AVR_HAVE_PRR_PRLCD)
 558:/usr/local/Cellar/avr-gcc/9.1.0/avr/include/avr/power.h **** #define power_lcd_enable()      (PRR &= (uint8_t)~(1 << PRLCD))
 559:/usr/local/Cellar/avr-gcc/9.1.0/avr/include/avr/power.h **** #define power_lcd_disable()     (PRR |= (uint8_t)(1 << PRLCD))
 560:/usr/local/Cellar/avr-gcc/9.1.0/avr/include/avr/power.h **** #endif
 561:/usr/local/Cellar/avr-gcc/9.1.0/avr/include/avr/power.h **** 
 562:/usr/local/Cellar/avr-gcc/9.1.0/avr/include/avr/power.h **** #if defined(__AVR_HAVE_PRR_PRLIN)
 563:/usr/local/Cellar/avr-gcc/9.1.0/avr/include/avr/power.h **** #define power_lin_enable()      (PRR &= (uint8_t)~(1 << PRLIN))
 564:/usr/local/Cellar/avr-gcc/9.1.0/avr/include/avr/power.h **** #define power_lin_disable()     (PRR |= (uint8_t)(1 << PRLIN))
 565:/usr/local/Cellar/avr-gcc/9.1.0/avr/include/avr/power.h **** #endif
 566:/usr/local/Cellar/avr-gcc/9.1.0/avr/include/avr/power.h **** 
 567:/usr/local/Cellar/avr-gcc/9.1.0/avr/include/avr/power.h **** #if defined(__AVR_HAVE_PRR_PRPSC)
 568:/usr/local/Cellar/avr-gcc/9.1.0/avr/include/avr/power.h **** #define power_psc_enable()      (PRR &= (uint8_t)~(1 << PRPSC))
 569:/usr/local/Cellar/avr-gcc/9.1.0/avr/include/avr/power.h **** #define power_psc_disable()     (PRR |= (uint8_t)(1 << PRPSC))
 570:/usr/local/Cellar/avr-gcc/9.1.0/avr/include/avr/power.h **** #endif
 571:/usr/local/Cellar/avr-gcc/9.1.0/avr/include/avr/power.h **** 
 572:/usr/local/Cellar/avr-gcc/9.1.0/avr/include/avr/power.h **** #if defined(__AVR_HAVE_PRR_PRPSC0)
 573:/usr/local/Cellar/avr-gcc/9.1.0/avr/include/avr/power.h **** #define power_psc0_enable()     (PRR &= (uint8_t)~(1 << PRPSC0))
 574:/usr/local/Cellar/avr-gcc/9.1.0/avr/include/avr/power.h **** #define power_psc0_disable()    (PRR |= (uint8_t)(1 << PRPSC0))
 575:/usr/local/Cellar/avr-gcc/9.1.0/avr/include/avr/power.h **** #endif
 576:/usr/local/Cellar/avr-gcc/9.1.0/avr/include/avr/power.h **** 
 577:/usr/local/Cellar/avr-gcc/9.1.0/avr/include/avr/power.h **** #if defined(__AVR_HAVE_PRR_PRPSC1)
 578:/usr/local/Cellar/avr-gcc/9.1.0/avr/include/avr/power.h **** #define power_psc1_enable()     (PRR &= (uint8_t)~(1 << PRPSC1))
 579:/usr/local/Cellar/avr-gcc/9.1.0/avr/include/avr/power.h **** #define power_psc1_disable()    (PRR |= (uint8_t)(1 << PRPSC1))
 580:/usr/local/Cellar/avr-gcc/9.1.0/avr/include/avr/power.h **** #endif
 581:/usr/local/Cellar/avr-gcc/9.1.0/avr/include/avr/power.h **** 
 582:/usr/local/Cellar/avr-gcc/9.1.0/avr/include/avr/power.h **** #if defined(__AVR_HAVE_PRR_PRPSC2)
 583:/usr/local/Cellar/avr-gcc/9.1.0/avr/include/avr/power.h **** #define power_psc2_enable()     (PRR &= (uint8_t)~(1 << PRPSC2))
 584:/usr/local/Cellar/avr-gcc/9.1.0/avr/include/avr/power.h **** #define power_psc2_disable()    (PRR |= (uint8_t)(1 << PRPSC2))
 585:/usr/local/Cellar/avr-gcc/9.1.0/avr/include/avr/power.h **** #endif
 586:/usr/local/Cellar/avr-gcc/9.1.0/avr/include/avr/power.h **** 
 587:/usr/local/Cellar/avr-gcc/9.1.0/avr/include/avr/power.h **** #if defined(__AVR_HAVE_PRR_PRSCR)
 588:/usr/local/Cellar/avr-gcc/9.1.0/avr/include/avr/power.h **** #define power_pscr_enable()     (PRR &= (uint8_t)~(1 << PRPSCR))
 589:/usr/local/Cellar/avr-gcc/9.1.0/avr/include/avr/power.h **** #define power_pscr_disable()    (PRR |= (uint8_t)(1 << PRPSCR))
 590:/usr/local/Cellar/avr-gcc/9.1.0/avr/include/avr/power.h **** #endif
 591:/usr/local/Cellar/avr-gcc/9.1.0/avr/include/avr/power.h **** 
 592:/usr/local/Cellar/avr-gcc/9.1.0/avr/include/avr/power.h **** #if defined(__AVR_HAVE_PRR_PRSPI)
 593:/usr/local/Cellar/avr-gcc/9.1.0/avr/include/avr/power.h **** #define power_spi_enable()      (PRR &= (uint8_t)~(1 << PRSPI))
 594:/usr/local/Cellar/avr-gcc/9.1.0/avr/include/avr/power.h **** #define power_spi_disable()     (PRR |= (uint8_t)(1 << PRSPI))
 595:/usr/local/Cellar/avr-gcc/9.1.0/avr/include/avr/power.h **** #endif
 596:/usr/local/Cellar/avr-gcc/9.1.0/avr/include/avr/power.h **** 
 597:/usr/local/Cellar/avr-gcc/9.1.0/avr/include/avr/power.h **** #if defined(__AVR_HAVE_PRR_PRTIM0)
 598:/usr/local/Cellar/avr-gcc/9.1.0/avr/include/avr/power.h **** #define power_timer0_enable()   (PRR &= (uint8_t)~(1 << PRTIM0))
 599:/usr/local/Cellar/avr-gcc/9.1.0/avr/include/avr/power.h **** #define power_timer0_disable()  (PRR |= (uint8_t)(1 << PRTIM0))
 600:/usr/local/Cellar/avr-gcc/9.1.0/avr/include/avr/power.h **** #endif
 601:/usr/local/Cellar/avr-gcc/9.1.0/avr/include/avr/power.h **** 
 602:/usr/local/Cellar/avr-gcc/9.1.0/avr/include/avr/power.h **** #if defined(__AVR_HAVE_PRR_PRTIM1)
 603:/usr/local/Cellar/avr-gcc/9.1.0/avr/include/avr/power.h **** #define power_timer1_enable()   (PRR &= (uint8_t)~(1 << PRTIM1))
 604:/usr/local/Cellar/avr-gcc/9.1.0/avr/include/avr/power.h **** #define power_timer1_disable()  (PRR |= (uint8_t)(1 << PRTIM1))
 605:/usr/local/Cellar/avr-gcc/9.1.0/avr/include/avr/power.h **** #endif
 606:/usr/local/Cellar/avr-gcc/9.1.0/avr/include/avr/power.h **** 
 607:/usr/local/Cellar/avr-gcc/9.1.0/avr/include/avr/power.h **** #if defined(__AVR_HAVE_PRR_PRTIM2)
 608:/usr/local/Cellar/avr-gcc/9.1.0/avr/include/avr/power.h **** #define power_timer2_enable()   (PRR &= (uint8_t)~(1 << PRTIM2))
 609:/usr/local/Cellar/avr-gcc/9.1.0/avr/include/avr/power.h **** #define power_timer2_disable()  (PRR |= (uint8_t)(1 << PRTIM2))
 610:/usr/local/Cellar/avr-gcc/9.1.0/avr/include/avr/power.h **** #endif
 611:/usr/local/Cellar/avr-gcc/9.1.0/avr/include/avr/power.h **** 
 612:/usr/local/Cellar/avr-gcc/9.1.0/avr/include/avr/power.h **** #if defined(__AVR_HAVE_PRR_PRTWI)
 613:/usr/local/Cellar/avr-gcc/9.1.0/avr/include/avr/power.h **** #define power_twi_enable()      (PRR &= (uint8_t)~(1 << PRTWI))
 614:/usr/local/Cellar/avr-gcc/9.1.0/avr/include/avr/power.h **** #define power_twi_disable()     (PRR |= (uint8_t)(1 << PRTWI))
 615:/usr/local/Cellar/avr-gcc/9.1.0/avr/include/avr/power.h **** #endif
 616:/usr/local/Cellar/avr-gcc/9.1.0/avr/include/avr/power.h **** 
 617:/usr/local/Cellar/avr-gcc/9.1.0/avr/include/avr/power.h **** #if defined(__AVR_HAVE_PRR_PRUSART)
 618:/usr/local/Cellar/avr-gcc/9.1.0/avr/include/avr/power.h **** #define power_usart_enable()    (PRR &= (uint8_t)~(1 << PRUSART))
 619:/usr/local/Cellar/avr-gcc/9.1.0/avr/include/avr/power.h **** #define power_usart_disable()   (PRR |= (uint8_t)(1 << PRUSART))
 620:/usr/local/Cellar/avr-gcc/9.1.0/avr/include/avr/power.h **** #endif
 621:/usr/local/Cellar/avr-gcc/9.1.0/avr/include/avr/power.h **** 
 622:/usr/local/Cellar/avr-gcc/9.1.0/avr/include/avr/power.h **** #if defined(__AVR_HAVE_PRR_PRUSART0)
 623:/usr/local/Cellar/avr-gcc/9.1.0/avr/include/avr/power.h **** #define power_usart0_enable()   (PRR &= (uint8_t)~(1 << PRUSART0))
 624:/usr/local/Cellar/avr-gcc/9.1.0/avr/include/avr/power.h **** #define power_usart0_disable()  (PRR |= (uint8_t)(1 << PRUSART0))
 625:/usr/local/Cellar/avr-gcc/9.1.0/avr/include/avr/power.h **** #endif
 626:/usr/local/Cellar/avr-gcc/9.1.0/avr/include/avr/power.h **** 
 627:/usr/local/Cellar/avr-gcc/9.1.0/avr/include/avr/power.h **** #if defined(__AVR_HAVE_PRR_PRUSART1)
 628:/usr/local/Cellar/avr-gcc/9.1.0/avr/include/avr/power.h **** #define power_usart1_enable()   (PRR &= (uint8_t)~(1 << PRUSART1))
 629:/usr/local/Cellar/avr-gcc/9.1.0/avr/include/avr/power.h **** #define power_usart1_disable()  (PRR |= (uint8_t)(1 << PRUSART1))
 630:/usr/local/Cellar/avr-gcc/9.1.0/avr/include/avr/power.h **** #endif
 631:/usr/local/Cellar/avr-gcc/9.1.0/avr/include/avr/power.h **** 
 632:/usr/local/Cellar/avr-gcc/9.1.0/avr/include/avr/power.h **** #if defined(__AVR_HAVE_PRR_PRUSI)
 633:/usr/local/Cellar/avr-gcc/9.1.0/avr/include/avr/power.h **** #define power_usi_enable()      (PRR &= (uint8_t)~(1 << PRUSI))
 634:/usr/local/Cellar/avr-gcc/9.1.0/avr/include/avr/power.h **** #define power_usi_disable()     (PRR |= (uint8_t)(1 << PRUSI))
 635:/usr/local/Cellar/avr-gcc/9.1.0/avr/include/avr/power.h **** #endif
 636:/usr/local/Cellar/avr-gcc/9.1.0/avr/include/avr/power.h **** 
 637:/usr/local/Cellar/avr-gcc/9.1.0/avr/include/avr/power.h **** #if defined(__AVR_HAVE_PRR0_PRADC)
 638:/usr/local/Cellar/avr-gcc/9.1.0/avr/include/avr/power.h **** #define power_adc_enable()      (PRR0 &= (uint8_t)~(1 << PRADC))
 639:/usr/local/Cellar/avr-gcc/9.1.0/avr/include/avr/power.h **** #define power_adc_disable()     (PRR0 |= (uint8_t)(1 << PRADC))
 640:/usr/local/Cellar/avr-gcc/9.1.0/avr/include/avr/power.h **** #endif
 641:/usr/local/Cellar/avr-gcc/9.1.0/avr/include/avr/power.h **** 
 642:/usr/local/Cellar/avr-gcc/9.1.0/avr/include/avr/power.h **** #if defined(__AVR_HAVE_PRR0_PRC0)
 643:/usr/local/Cellar/avr-gcc/9.1.0/avr/include/avr/power.h **** #define power_clock_output_enable()     (PRR0 &= (uint8_t)~(1 << PRCO))
 644:/usr/local/Cellar/avr-gcc/9.1.0/avr/include/avr/power.h **** #define power_clock_output_disable()    (PRR0 |= (uint8_t)(1 << PRCO))
 645:/usr/local/Cellar/avr-gcc/9.1.0/avr/include/avr/power.h **** #endif
 646:/usr/local/Cellar/avr-gcc/9.1.0/avr/include/avr/power.h **** 
 647:/usr/local/Cellar/avr-gcc/9.1.0/avr/include/avr/power.h **** #if defined(__AVR_HAVE_PRR0_PRCRC)
 648:/usr/local/Cellar/avr-gcc/9.1.0/avr/include/avr/power.h **** #define power_crc_enable()              (PRR0 &= (uint8_t)~(1 << PRCRC))
 649:/usr/local/Cellar/avr-gcc/9.1.0/avr/include/avr/power.h **** #define power_crc_disable()             (PRR0 |= (uint8_t)(1 << PRCRC))
 650:/usr/local/Cellar/avr-gcc/9.1.0/avr/include/avr/power.h **** #endif
 651:/usr/local/Cellar/avr-gcc/9.1.0/avr/include/avr/power.h **** 
 652:/usr/local/Cellar/avr-gcc/9.1.0/avr/include/avr/power.h **** #if defined(__AVR_HAVE_PRR0_PRCU)
 653:/usr/local/Cellar/avr-gcc/9.1.0/avr/include/avr/power.h **** #define power_crypto_enable()           (PRR0 &= (uint8_t)~(1 << PRCU))
 654:/usr/local/Cellar/avr-gcc/9.1.0/avr/include/avr/power.h **** #define power_crypto_disable()          (PRR0 |= (uint8_t)(1 << PRCU))
 655:/usr/local/Cellar/avr-gcc/9.1.0/avr/include/avr/power.h **** #endif
 656:/usr/local/Cellar/avr-gcc/9.1.0/avr/include/avr/power.h **** 
 657:/usr/local/Cellar/avr-gcc/9.1.0/avr/include/avr/power.h **** #if defined(__AVR_HAVE_PRR0_PRDS)
 658:/usr/local/Cellar/avr-gcc/9.1.0/avr/include/avr/power.h **** #define power_irdriver_enable()         (PRR0 &= (uint8_t)~(1 << PRDS))
 659:/usr/local/Cellar/avr-gcc/9.1.0/avr/include/avr/power.h **** #define power_irdriver_disable()        (PRR0 |= (uint8_t)(1 << PRDS))
 660:/usr/local/Cellar/avr-gcc/9.1.0/avr/include/avr/power.h **** #endif
 661:/usr/local/Cellar/avr-gcc/9.1.0/avr/include/avr/power.h **** 
 662:/usr/local/Cellar/avr-gcc/9.1.0/avr/include/avr/power.h **** #if defined(__AVR_HAVE_PRR0_PRLFR)
 663:/usr/local/Cellar/avr-gcc/9.1.0/avr/include/avr/power.h **** #define power_lfreceiver_enable()       (PRR0 &= (uint8_t)~(1 << PRLFR))            
 664:/usr/local/Cellar/avr-gcc/9.1.0/avr/include/avr/power.h **** #define power_lfreceiver_disable()      (PRR0 |= (uint8_t)(1 << PRLFR))            
 665:/usr/local/Cellar/avr-gcc/9.1.0/avr/include/avr/power.h **** #endif
 666:/usr/local/Cellar/avr-gcc/9.1.0/avr/include/avr/power.h **** 
 667:/usr/local/Cellar/avr-gcc/9.1.0/avr/include/avr/power.h **** #if defined(__AVR_HAVE_PRR0_PRLIN)
 668:/usr/local/Cellar/avr-gcc/9.1.0/avr/include/avr/power.h **** #define power_lin_enable()              (PRR0 &= (uint8_t)~(1 << PRLIN))
 669:/usr/local/Cellar/avr-gcc/9.1.0/avr/include/avr/power.h **** #define power_lin_disable()             (PRR0 |= (uint8_t)(1 << PRLIN))
 670:/usr/local/Cellar/avr-gcc/9.1.0/avr/include/avr/power.h **** #endif
 671:/usr/local/Cellar/avr-gcc/9.1.0/avr/include/avr/power.h **** 
 672:/usr/local/Cellar/avr-gcc/9.1.0/avr/include/avr/power.h **** #if defined(__AVR_HAVE_PRR0_PRPGA)
 673:/usr/local/Cellar/avr-gcc/9.1.0/avr/include/avr/power.h **** #define power_pga_enable()              (PRR0 &= (uint8_t)~(1 << PRPGA))
 674:/usr/local/Cellar/avr-gcc/9.1.0/avr/include/avr/power.h **** #define power_pga_disable()             (PRR0 |= (uint8_t)(1 << PRPGA))
 675:/usr/local/Cellar/avr-gcc/9.1.0/avr/include/avr/power.h **** #endif
 676:/usr/local/Cellar/avr-gcc/9.1.0/avr/include/avr/power.h **** 
 677:/usr/local/Cellar/avr-gcc/9.1.0/avr/include/avr/power.h **** #if defined(__AVR_HAVE_PRR0_PRRXDC)
 678:/usr/local/Cellar/avr-gcc/9.1.0/avr/include/avr/power.h **** #define power_receive_dsp_control_enable()  (PRR0 &= (uint8_t)~(1 << PRRXDC))
 679:/usr/local/Cellar/avr-gcc/9.1.0/avr/include/avr/power.h **** #define power_receive_dsp_control_disable() (PRR0 |= (uint8_t)(1 << PRRXDC))
 680:/usr/local/Cellar/avr-gcc/9.1.0/avr/include/avr/power.h **** #endif
 681:/usr/local/Cellar/avr-gcc/9.1.0/avr/include/avr/power.h **** 
 682:/usr/local/Cellar/avr-gcc/9.1.0/avr/include/avr/power.h **** #if defined(__AVR_HAVE_PRR0_PRSPI)
 683:/usr/local/Cellar/avr-gcc/9.1.0/avr/include/avr/power.h **** #define power_spi_enable()              (PRR0 &= (uint8_t)~(1 << PRSPI))
 684:/usr/local/Cellar/avr-gcc/9.1.0/avr/include/avr/power.h **** #define power_spi_disable()             (PRR0 |= (uint8_t)(1 << PRSPI))
 685:/usr/local/Cellar/avr-gcc/9.1.0/avr/include/avr/power.h **** #endif
 686:/usr/local/Cellar/avr-gcc/9.1.0/avr/include/avr/power.h **** 
 687:/usr/local/Cellar/avr-gcc/9.1.0/avr/include/avr/power.h **** #if defined(__AVR_HAVE_PRR0_PRT0)
 688:/usr/local/Cellar/avr-gcc/9.1.0/avr/include/avr/power.h **** #define power_timer0_enable()           (PRR0 &= (uint8_t)~(1 << PRT0))
 689:/usr/local/Cellar/avr-gcc/9.1.0/avr/include/avr/power.h **** #define power_timer0_disable()          (PRR0 |= (uint8_t)(1 << PRT0))
 690:/usr/local/Cellar/avr-gcc/9.1.0/avr/include/avr/power.h **** #endif
 691:/usr/local/Cellar/avr-gcc/9.1.0/avr/include/avr/power.h **** 
 692:/usr/local/Cellar/avr-gcc/9.1.0/avr/include/avr/power.h **** #if defined(__AVR_HAVE_PRR0_PRTIM0)
 693:/usr/local/Cellar/avr-gcc/9.1.0/avr/include/avr/power.h **** #define power_timer0_enable()           (PRR0 &= (uint8_t)~(1 << PRTIM0))
 694:/usr/local/Cellar/avr-gcc/9.1.0/avr/include/avr/power.h **** #define power_timer0_disable()          (PRR0 |= (uint8_t)(1 << PRTIM0))
 695:/usr/local/Cellar/avr-gcc/9.1.0/avr/include/avr/power.h **** #endif
 696:/usr/local/Cellar/avr-gcc/9.1.0/avr/include/avr/power.h **** 
 697:/usr/local/Cellar/avr-gcc/9.1.0/avr/include/avr/power.h **** #if defined(__AVR_HAVE_PRR0_PRT1)
 698:/usr/local/Cellar/avr-gcc/9.1.0/avr/include/avr/power.h **** #define power_timer1_enable()           (PRR0 &= (uint8_t)~(1 << PRT1))
 699:/usr/local/Cellar/avr-gcc/9.1.0/avr/include/avr/power.h **** #define power_timer1_disable()          (PRR0 |= (uint8_t)(1 << PRT1))
 700:/usr/local/Cellar/avr-gcc/9.1.0/avr/include/avr/power.h **** #endif
 701:/usr/local/Cellar/avr-gcc/9.1.0/avr/include/avr/power.h **** 
 702:/usr/local/Cellar/avr-gcc/9.1.0/avr/include/avr/power.h **** #if defined(__AVR_HAVE_PRR0_PRTIM1)
 703:/usr/local/Cellar/avr-gcc/9.1.0/avr/include/avr/power.h **** #define power_timer1_enable()           (PRR0 &= (uint8_t)~(1 << PRTIM1))
 704:/usr/local/Cellar/avr-gcc/9.1.0/avr/include/avr/power.h **** #define power_timer1_disable()          (PRR0 |= (uint8_t)(1 << PRTIM1))
 705:/usr/local/Cellar/avr-gcc/9.1.0/avr/include/avr/power.h **** #endif
 706:/usr/local/Cellar/avr-gcc/9.1.0/avr/include/avr/power.h **** 
 707:/usr/local/Cellar/avr-gcc/9.1.0/avr/include/avr/power.h **** #if defined(__AVR_HAVE_PRR0_PRT2)
 708:/usr/local/Cellar/avr-gcc/9.1.0/avr/include/avr/power.h **** #define power_timer2_enable()           (PRR0 &= (uint8_t)~(1 << PRT2))
 709:/usr/local/Cellar/avr-gcc/9.1.0/avr/include/avr/power.h **** #define power_timer2_disable()          (PRR0 |= (uint8_t)(1 << PRT2))
 710:/usr/local/Cellar/avr-gcc/9.1.0/avr/include/avr/power.h **** #endif
 711:/usr/local/Cellar/avr-gcc/9.1.0/avr/include/avr/power.h **** 
 712:/usr/local/Cellar/avr-gcc/9.1.0/avr/include/avr/power.h **** #if defined(__AVR_HAVE_PRR0_PRTIM2)
 713:/usr/local/Cellar/avr-gcc/9.1.0/avr/include/avr/power.h **** #define power_timer2_enable()           (PRR0 &= (uint8_t)~(1 << PRTIM2))
 714:/usr/local/Cellar/avr-gcc/9.1.0/avr/include/avr/power.h **** #define power_timer2_disable()          (PRR0 |= (uint8_t)(1 << PRTIM2))
 715:/usr/local/Cellar/avr-gcc/9.1.0/avr/include/avr/power.h **** #endif
 716:/usr/local/Cellar/avr-gcc/9.1.0/avr/include/avr/power.h **** 
 717:/usr/local/Cellar/avr-gcc/9.1.0/avr/include/avr/power.h **** #if defined(__AVR_HAVE_PRR0_PRT3)
 718:/usr/local/Cellar/avr-gcc/9.1.0/avr/include/avr/power.h **** #define power_timer3_enable()           (PRR0 &= (uint8_t)~(1 << PRT3))
 719:/usr/local/Cellar/avr-gcc/9.1.0/avr/include/avr/power.h **** #define power_timer3_disable()          (PRR0 |= (uint8_t)(1 << PRT3))
 720:/usr/local/Cellar/avr-gcc/9.1.0/avr/include/avr/power.h **** #endif
 721:/usr/local/Cellar/avr-gcc/9.1.0/avr/include/avr/power.h **** 
 722:/usr/local/Cellar/avr-gcc/9.1.0/avr/include/avr/power.h **** #if defined(__AVR_HAVE_PRR0_PRTM)
 723:/usr/local/Cellar/avr-gcc/9.1.0/avr/include/avr/power.h **** #define power_timermodulator_enable()   (PRR0 &= (uint8_t)~(1 << PRTM))
 724:/usr/local/Cellar/avr-gcc/9.1.0/avr/include/avr/power.h **** #define power_timermodulator_disable()  (PRR0 |= (uint8_t)(1 << PRTM))
 725:/usr/local/Cellar/avr-gcc/9.1.0/avr/include/avr/power.h **** #endif
 726:/usr/local/Cellar/avr-gcc/9.1.0/avr/include/avr/power.h **** 
 727:/usr/local/Cellar/avr-gcc/9.1.0/avr/include/avr/power.h **** #if defined(__AVR_HAVE_PRR0_PRTWI)
 728:/usr/local/Cellar/avr-gcc/9.1.0/avr/include/avr/power.h **** #define power_twi_enable()              (PRR0 &= (uint8_t)~(1 << PRTWI))
 729:/usr/local/Cellar/avr-gcc/9.1.0/avr/include/avr/power.h **** #define power_twi_disable()             (PRR0 |= (uint8_t)(1 << PRTWI))
 730:/usr/local/Cellar/avr-gcc/9.1.0/avr/include/avr/power.h **** #endif
 731:/usr/local/Cellar/avr-gcc/9.1.0/avr/include/avr/power.h **** 
 732:/usr/local/Cellar/avr-gcc/9.1.0/avr/include/avr/power.h **** #if defined(__AVR_HAVE_PRR0_PRTXDC)
 733:/usr/local/Cellar/avr-gcc/9.1.0/avr/include/avr/power.h **** #define power_transmit_dsp_control_enable()   (PRR0 &= (uint8_t)~(1 << PRTXDC))
 734:/usr/local/Cellar/avr-gcc/9.1.0/avr/include/avr/power.h **** #define power_transmit_dsp_control_disable()  (PRR0 |= (uint8_t)(1 << PRTXDC))
 735:/usr/local/Cellar/avr-gcc/9.1.0/avr/include/avr/power.h **** #endif
 736:/usr/local/Cellar/avr-gcc/9.1.0/avr/include/avr/power.h **** 
 737:/usr/local/Cellar/avr-gcc/9.1.0/avr/include/avr/power.h **** #if defined(__AVR_HAVE_PRR0_PRUSART0)
 738:/usr/local/Cellar/avr-gcc/9.1.0/avr/include/avr/power.h **** #define power_usart0_enable()           (PRR0 &= (uint8_t)~(1 << PRUSART0))
 739:/usr/local/Cellar/avr-gcc/9.1.0/avr/include/avr/power.h **** #define power_usart0_disable()          (PRR0 |= (uint8_t)(1 << PRUSART0))
 740:/usr/local/Cellar/avr-gcc/9.1.0/avr/include/avr/power.h **** #endif
 741:/usr/local/Cellar/avr-gcc/9.1.0/avr/include/avr/power.h **** 
 742:/usr/local/Cellar/avr-gcc/9.1.0/avr/include/avr/power.h **** #if defined(__AVR_HAVE_PRR0_PRUSART1)
 743:/usr/local/Cellar/avr-gcc/9.1.0/avr/include/avr/power.h **** #define power_usart1_enable()           (PRR0 &= (uint8_t)~(1 << PRUSART1))
 744:/usr/local/Cellar/avr-gcc/9.1.0/avr/include/avr/power.h **** #define power_usart1_disable()          (PRR0 |= (uint8_t)(1 << PRUSART1))
 745:/usr/local/Cellar/avr-gcc/9.1.0/avr/include/avr/power.h **** #endif
 746:/usr/local/Cellar/avr-gcc/9.1.0/avr/include/avr/power.h **** 
 747:/usr/local/Cellar/avr-gcc/9.1.0/avr/include/avr/power.h **** #if defined(__AVR_HAVE_PRR0_PRVADC)
 748:/usr/local/Cellar/avr-gcc/9.1.0/avr/include/avr/power.h **** #define power_vadc_enable()             (PRR0 &= (uint8_t)~(1 << PRVADC))
 749:/usr/local/Cellar/avr-gcc/9.1.0/avr/include/avr/power.h **** #define power_vadc_disable()            (PRR0 |= (uint8_t)(1 << PRVADC))
 750:/usr/local/Cellar/avr-gcc/9.1.0/avr/include/avr/power.h **** #endif
 751:/usr/local/Cellar/avr-gcc/9.1.0/avr/include/avr/power.h **** 
 752:/usr/local/Cellar/avr-gcc/9.1.0/avr/include/avr/power.h **** #if defined(__AVR_HAVE_PRR0_PRVM)
 753:/usr/local/Cellar/avr-gcc/9.1.0/avr/include/avr/power.h **** #define power_voltage_monitor_enable()  (PRR0 &= (uint8_t)~(1 << PRVM))
 754:/usr/local/Cellar/avr-gcc/9.1.0/avr/include/avr/power.h **** #define power_voltage_monitor_disable() (PRR0 |= (uint8_t)(1 << PRVM))
 755:/usr/local/Cellar/avr-gcc/9.1.0/avr/include/avr/power.h **** #endif
 756:/usr/local/Cellar/avr-gcc/9.1.0/avr/include/avr/power.h **** 
 757:/usr/local/Cellar/avr-gcc/9.1.0/avr/include/avr/power.h **** #if defined(__AVR_HAVE_PRR0_PRVRM)
 758:/usr/local/Cellar/avr-gcc/9.1.0/avr/include/avr/power.h **** #define power_vrm_enable()              (PRR0 &= (uint8_t)~(1 << PRVRM))
 759:/usr/local/Cellar/avr-gcc/9.1.0/avr/include/avr/power.h **** #define power_vrm_disable()             (PRR0 |= (uint8_t)(1 << PRVRM))
 760:/usr/local/Cellar/avr-gcc/9.1.0/avr/include/avr/power.h **** #endif
 761:/usr/local/Cellar/avr-gcc/9.1.0/avr/include/avr/power.h **** 
 762:/usr/local/Cellar/avr-gcc/9.1.0/avr/include/avr/power.h **** #if defined(__AVR_HAVE_PRR1_PRAES)
 763:/usr/local/Cellar/avr-gcc/9.1.0/avr/include/avr/power.h **** #define power_aes_enable()              (PRR1 &= (uint8_t)~(1 << PRAES))
 764:/usr/local/Cellar/avr-gcc/9.1.0/avr/include/avr/power.h **** #define power_aes_disable()             (PRR1 |= (uint8_t)(1 << PRAES))
 765:/usr/local/Cellar/avr-gcc/9.1.0/avr/include/avr/power.h **** #endif
 766:/usr/local/Cellar/avr-gcc/9.1.0/avr/include/avr/power.h **** 
 767:/usr/local/Cellar/avr-gcc/9.1.0/avr/include/avr/power.h **** #if defined(__AVR_HAVE_PRR1_PRCI)
 768:/usr/local/Cellar/avr-gcc/9.1.0/avr/include/avr/power.h **** #define power_cinterface_enable()       (PRR1 &= (uint8_t)~(1 << PRCI))
 769:/usr/local/Cellar/avr-gcc/9.1.0/avr/include/avr/power.h **** #define power_cinterface_disable()      (PRR1 |= (uint8_t)(1 << PRCI))
 770:/usr/local/Cellar/avr-gcc/9.1.0/avr/include/avr/power.h **** #endif
 771:/usr/local/Cellar/avr-gcc/9.1.0/avr/include/avr/power.h **** 
 772:/usr/local/Cellar/avr-gcc/9.1.0/avr/include/avr/power.h **** #if defined(__AVR_HAVE_PRR1_PRHSSPI)
 773:/usr/local/Cellar/avr-gcc/9.1.0/avr/include/avr/power.h **** #define power_hsspi_enable()            (PRR1 &= (uint8_t)~(1 << PRHSSPI))
 774:/usr/local/Cellar/avr-gcc/9.1.0/avr/include/avr/power.h **** #define power_hsspi_disable()           (PRR1 |= (uint8_t)(1 << PRHSSPI))
 775:/usr/local/Cellar/avr-gcc/9.1.0/avr/include/avr/power.h **** #endif
 776:/usr/local/Cellar/avr-gcc/9.1.0/avr/include/avr/power.h **** 
 777:/usr/local/Cellar/avr-gcc/9.1.0/avr/include/avr/power.h **** #if defined(__AVR_HAVE_PRR1_PRKB)
 778:/usr/local/Cellar/avr-gcc/9.1.0/avr/include/avr/power.h **** #define power_kb_enable()               (PRR1 &= (uint8_t)~(1 << PRKB))
 779:/usr/local/Cellar/avr-gcc/9.1.0/avr/include/avr/power.h **** #define power_kb_disable()              (PRR1 |= (uint8_t)(1 << PRKB))
 780:/usr/local/Cellar/avr-gcc/9.1.0/avr/include/avr/power.h **** #endif
 781:/usr/local/Cellar/avr-gcc/9.1.0/avr/include/avr/power.h **** 
 782:/usr/local/Cellar/avr-gcc/9.1.0/avr/include/avr/power.h **** #if defined(__AVR_HAVE_PRR1_PRLFR)
 783:/usr/local/Cellar/avr-gcc/9.1.0/avr/include/avr/power.h **** #define power_lfreceiver_enable()       (PRR1 &= (uint8_t)~(1 << PRLFR))            
 784:/usr/local/Cellar/avr-gcc/9.1.0/avr/include/avr/power.h **** #define power_lfreceiver_disable()      (PRR1 |= (uint8_t)(1 << PRLFR))            
 785:/usr/local/Cellar/avr-gcc/9.1.0/avr/include/avr/power.h **** #endif
 786:/usr/local/Cellar/avr-gcc/9.1.0/avr/include/avr/power.h **** 
 787:/usr/local/Cellar/avr-gcc/9.1.0/avr/include/avr/power.h **** #if defined(__AVR_HAVE_PRR1_PRSCI)
 788:/usr/local/Cellar/avr-gcc/9.1.0/avr/include/avr/power.h **** #define power_sci_enable()              (PRR1 &= (uint8_t)~(1 << PRSCI))
 789:/usr/local/Cellar/avr-gcc/9.1.0/avr/include/avr/power.h **** #define power_sci_disable()             (PRR1 |= (uint8_t)(1 << PRSCI))
 790:/usr/local/Cellar/avr-gcc/9.1.0/avr/include/avr/power.h **** #endif
 791:/usr/local/Cellar/avr-gcc/9.1.0/avr/include/avr/power.h **** 
 792:/usr/local/Cellar/avr-gcc/9.1.0/avr/include/avr/power.h **** #if defined(__AVR_HAVE_PRR1_PRT1)
 793:/usr/local/Cellar/avr-gcc/9.1.0/avr/include/avr/power.h **** #define power_timer1_enable()           (PRR1 &= (uint8_t)~(1 << PRT1))
 794:/usr/local/Cellar/avr-gcc/9.1.0/avr/include/avr/power.h **** #define power_timer1_disable()          (PRR1 |= (uint8_t)(1 << PRT1))
 795:/usr/local/Cellar/avr-gcc/9.1.0/avr/include/avr/power.h **** #endif
 796:/usr/local/Cellar/avr-gcc/9.1.0/avr/include/avr/power.h **** 
 797:/usr/local/Cellar/avr-gcc/9.1.0/avr/include/avr/power.h **** #if defined(__AVR_HAVE_PRR1_PRT2)
 798:/usr/local/Cellar/avr-gcc/9.1.0/avr/include/avr/power.h **** #define power_timer2_enable()           (PRR1 &= (uint8_t)~(1 << PRT2))
 799:/usr/local/Cellar/avr-gcc/9.1.0/avr/include/avr/power.h **** #define power_timer2_disable()          (PRR1 |= (uint8_t)(1 << PRT2))
 800:/usr/local/Cellar/avr-gcc/9.1.0/avr/include/avr/power.h **** #endif
 801:/usr/local/Cellar/avr-gcc/9.1.0/avr/include/avr/power.h **** 
 802:/usr/local/Cellar/avr-gcc/9.1.0/avr/include/avr/power.h **** #if defined(__AVR_HAVE_PRR1_PRT3)
 803:/usr/local/Cellar/avr-gcc/9.1.0/avr/include/avr/power.h **** #define power_timer3_enable()           (PRR1 &= (uint8_t)~(1 << PRT3))
 804:/usr/local/Cellar/avr-gcc/9.1.0/avr/include/avr/power.h **** #define power_timer3_disable()          (PRR1 |= (uint8_t)(1 << PRT3))
 805:/usr/local/Cellar/avr-gcc/9.1.0/avr/include/avr/power.h **** #endif
 806:/usr/local/Cellar/avr-gcc/9.1.0/avr/include/avr/power.h **** 
 807:/usr/local/Cellar/avr-gcc/9.1.0/avr/include/avr/power.h **** #if defined(__AVR_HAVE_PRR1_PRT4)
 808:/usr/local/Cellar/avr-gcc/9.1.0/avr/include/avr/power.h **** #define power_timer4_enable()           (PRR1 &= (uint8_t)~(1 << PRT4))
 809:/usr/local/Cellar/avr-gcc/9.1.0/avr/include/avr/power.h **** #define power_timer4_disable()          (PRR1 |= (uint8_t)(1 << PRT4))
 810:/usr/local/Cellar/avr-gcc/9.1.0/avr/include/avr/power.h **** #endif
 811:/usr/local/Cellar/avr-gcc/9.1.0/avr/include/avr/power.h **** 
 812:/usr/local/Cellar/avr-gcc/9.1.0/avr/include/avr/power.h **** #if defined(__AVR_HAVE_PRR1_PRT5)
 813:/usr/local/Cellar/avr-gcc/9.1.0/avr/include/avr/power.h **** #define power_timer5_enable()           (PRR1 &= (uint8_t)~(1 << PRT5))
 814:/usr/local/Cellar/avr-gcc/9.1.0/avr/include/avr/power.h **** #define power_timer5_disable()          (PRR1 |= (uint8_t)(1 << PRT5))
 815:/usr/local/Cellar/avr-gcc/9.1.0/avr/include/avr/power.h **** #endif
 816:/usr/local/Cellar/avr-gcc/9.1.0/avr/include/avr/power.h **** 
 817:/usr/local/Cellar/avr-gcc/9.1.0/avr/include/avr/power.h **** #if defined(__AVR_HAVE_PRR1_PRTIM3)
 818:/usr/local/Cellar/avr-gcc/9.1.0/avr/include/avr/power.h **** #define power_timer3_enable()           (PRR1 &= (uint8_t)~(1 << PRTIM3))
 819:/usr/local/Cellar/avr-gcc/9.1.0/avr/include/avr/power.h **** #define power_timer3_disable()          (PRR1 |= (uint8_t)(1 << PRTIM3))
 820:/usr/local/Cellar/avr-gcc/9.1.0/avr/include/avr/power.h **** #endif
 821:/usr/local/Cellar/avr-gcc/9.1.0/avr/include/avr/power.h **** 
 822:/usr/local/Cellar/avr-gcc/9.1.0/avr/include/avr/power.h **** #if defined(__AVR_HAVE_PRR1_PRTIM4)
 823:/usr/local/Cellar/avr-gcc/9.1.0/avr/include/avr/power.h **** #define power_timer4_enable()           (PRR1 &= (uint8_t)~(1 << PRTIM4))
 824:/usr/local/Cellar/avr-gcc/9.1.0/avr/include/avr/power.h **** #define power_timer4_disable()          (PRR1 |= (uint8_t)(1 << PRTIM4))
 825:/usr/local/Cellar/avr-gcc/9.1.0/avr/include/avr/power.h **** #endif
 826:/usr/local/Cellar/avr-gcc/9.1.0/avr/include/avr/power.h **** 
 827:/usr/local/Cellar/avr-gcc/9.1.0/avr/include/avr/power.h **** #if defined(__AVR_HAVE_PRR1_PRTIM5)
 828:/usr/local/Cellar/avr-gcc/9.1.0/avr/include/avr/power.h **** #define power_timer5_enable()           (PRR1 &= (uint8_t)~(1 << PRTIM5))
 829:/usr/local/Cellar/avr-gcc/9.1.0/avr/include/avr/power.h **** #define power_timer5_disable()          (PRR1 |= (uint8_t)(1 << PRTIM5))
 830:/usr/local/Cellar/avr-gcc/9.1.0/avr/include/avr/power.h **** #endif
 831:/usr/local/Cellar/avr-gcc/9.1.0/avr/include/avr/power.h **** 
 832:/usr/local/Cellar/avr-gcc/9.1.0/avr/include/avr/power.h **** #if defined(__AVR_HAVE_PRR1_PRTRX24)
 833:/usr/local/Cellar/avr-gcc/9.1.0/avr/include/avr/power.h **** #define power_transceiver_enable()      (PRR1 &= (uint8_t)~(1 << PRTRX24))
 834:/usr/local/Cellar/avr-gcc/9.1.0/avr/include/avr/power.h **** #define power_transceiver_disable()     (PRR1 |= (uint8_t)(1 << PRTRX24))
 835:/usr/local/Cellar/avr-gcc/9.1.0/avr/include/avr/power.h **** #endif
 836:/usr/local/Cellar/avr-gcc/9.1.0/avr/include/avr/power.h **** 
 837:/usr/local/Cellar/avr-gcc/9.1.0/avr/include/avr/power.h **** #if defined(__AVR_HAVE_PRR1_PRUSART1)
 838:/usr/local/Cellar/avr-gcc/9.1.0/avr/include/avr/power.h **** #define power_usart1_enable()           (PRR1 &= (uint8_t)~(1 << PRUSART1))
 839:/usr/local/Cellar/avr-gcc/9.1.0/avr/include/avr/power.h **** #define power_usart1_disable()          (PRR1 |= (uint8_t)(1 << PRUSART1))
 840:/usr/local/Cellar/avr-gcc/9.1.0/avr/include/avr/power.h **** #endif
 841:/usr/local/Cellar/avr-gcc/9.1.0/avr/include/avr/power.h **** 
 842:/usr/local/Cellar/avr-gcc/9.1.0/avr/include/avr/power.h **** #if defined(__AVR_HAVE_PRR1_PRUSART2)
 843:/usr/local/Cellar/avr-gcc/9.1.0/avr/include/avr/power.h **** #define power_usart2_enable()           (PRR1 &= (uint8_t)~(1 << PRUSART2))
 844:/usr/local/Cellar/avr-gcc/9.1.0/avr/include/avr/power.h **** #define power_usart2_disable()          (PRR1 |= (uint8_t)(1 << PRUSART2))
 845:/usr/local/Cellar/avr-gcc/9.1.0/avr/include/avr/power.h **** #endif
 846:/usr/local/Cellar/avr-gcc/9.1.0/avr/include/avr/power.h **** 
 847:/usr/local/Cellar/avr-gcc/9.1.0/avr/include/avr/power.h **** #if defined(__AVR_HAVE_PRR1_PRUSB)
 848:/usr/local/Cellar/avr-gcc/9.1.0/avr/include/avr/power.h **** #define power_usb_enable()              (PRR1 &= (uint8_t)~(1 << PRUSB))
 849:/usr/local/Cellar/avr-gcc/9.1.0/avr/include/avr/power.h **** #define power_usb_disable()             (PRR1 |= (uint8_t)(1 << PRUSB))
 850:/usr/local/Cellar/avr-gcc/9.1.0/avr/include/avr/power.h **** #endif
 851:/usr/local/Cellar/avr-gcc/9.1.0/avr/include/avr/power.h **** 
 852:/usr/local/Cellar/avr-gcc/9.1.0/avr/include/avr/power.h **** #if defined(__AVR_HAVE_PRR1_PRUSBH)
 853:/usr/local/Cellar/avr-gcc/9.1.0/avr/include/avr/power.h **** #define power_usbh_enable()             (PRR1 &= (uint8_t)~(1 << PRUSBH))
 854:/usr/local/Cellar/avr-gcc/9.1.0/avr/include/avr/power.h **** #define power_usbh_disable()            (PRR1 |= (uint8_t)(1 << PRUSBH))
 855:/usr/local/Cellar/avr-gcc/9.1.0/avr/include/avr/power.h **** #endif
 856:/usr/local/Cellar/avr-gcc/9.1.0/avr/include/avr/power.h **** 
 857:/usr/local/Cellar/avr-gcc/9.1.0/avr/include/avr/power.h **** #if defined(__AVR_HAVE_PRR2_PRDF)
 858:/usr/local/Cellar/avr-gcc/9.1.0/avr/include/avr/power.h **** #define power_data_fifo_enable()        (PRR2 &= (uint8_t)~(1 << PRDF))
 859:/usr/local/Cellar/avr-gcc/9.1.0/avr/include/avr/power.h **** #define power_data_fifo_disable()       (PRR2 |= (uint8_t)(1 << PRDF))
 860:/usr/local/Cellar/avr-gcc/9.1.0/avr/include/avr/power.h **** #endif
 861:/usr/local/Cellar/avr-gcc/9.1.0/avr/include/avr/power.h **** 
 862:/usr/local/Cellar/avr-gcc/9.1.0/avr/include/avr/power.h **** #if defined(__AVR_HAVE_PRR2_PRIDS)
 863:/usr/local/Cellar/avr-gcc/9.1.0/avr/include/avr/power.h **** #define power_id_scan_enable()          (PRR2 &= (uint8_t)~(1 << PRIDS))
 864:/usr/local/Cellar/avr-gcc/9.1.0/avr/include/avr/power.h **** #define power_id_scan_disable()         (PRR2 |= (uint8_t)(1 << PRIDS))
 865:/usr/local/Cellar/avr-gcc/9.1.0/avr/include/avr/power.h **** #endif
 866:/usr/local/Cellar/avr-gcc/9.1.0/avr/include/avr/power.h **** 
 867:/usr/local/Cellar/avr-gcc/9.1.0/avr/include/avr/power.h **** #if defined(__AVR_HAVE_PRR2_PRRAM0)
 868:/usr/local/Cellar/avr-gcc/9.1.0/avr/include/avr/power.h **** #define power_ram0_enable()             (PRR2 &= (uint8_t)~(1 << PRRAM0))
 869:/usr/local/Cellar/avr-gcc/9.1.0/avr/include/avr/power.h **** #define power_ram0_disable()            (PRR2 |= (uint8_t)(1 << PRRAM0))
 870:/usr/local/Cellar/avr-gcc/9.1.0/avr/include/avr/power.h **** #endif
 871:/usr/local/Cellar/avr-gcc/9.1.0/avr/include/avr/power.h **** 
 872:/usr/local/Cellar/avr-gcc/9.1.0/avr/include/avr/power.h **** #if defined(__AVR_HAVE_PRR2_PRRAM1)
 873:/usr/local/Cellar/avr-gcc/9.1.0/avr/include/avr/power.h **** #define power_ram1_enable()             (PRR2 &= (uint8_t)~(1 << PRRAM1))
 874:/usr/local/Cellar/avr-gcc/9.1.0/avr/include/avr/power.h **** #define power_ram1_disable()            (PRR2 |= (uint8_t)(1 << PRRAM1))
 875:/usr/local/Cellar/avr-gcc/9.1.0/avr/include/avr/power.h **** #endif
 876:/usr/local/Cellar/avr-gcc/9.1.0/avr/include/avr/power.h **** 
 877:/usr/local/Cellar/avr-gcc/9.1.0/avr/include/avr/power.h **** #if defined(__AVR_HAVE_PRR2_PRRAM2)
 878:/usr/local/Cellar/avr-gcc/9.1.0/avr/include/avr/power.h **** #define power_ram2_enable()             (PRR2 &= (uint8_t)~(1 << PRRAM2))
 879:/usr/local/Cellar/avr-gcc/9.1.0/avr/include/avr/power.h **** #define power_ram2_disable()            (PRR2 |= (uint8_t)(1 << PRRAM2))
 880:/usr/local/Cellar/avr-gcc/9.1.0/avr/include/avr/power.h **** #endif
 881:/usr/local/Cellar/avr-gcc/9.1.0/avr/include/avr/power.h **** 
 882:/usr/local/Cellar/avr-gcc/9.1.0/avr/include/avr/power.h **** #if defined(__AVR_HAVE_PRR2_PRRAM3)
 883:/usr/local/Cellar/avr-gcc/9.1.0/avr/include/avr/power.h **** #define power_ram3_enable()             (PRR2 &= (uint8_t)~(1 << PRRAM3))
 884:/usr/local/Cellar/avr-gcc/9.1.0/avr/include/avr/power.h **** #define power_ram3_disable()            (PRR2 |= (uint8_t)(1 << PRRAM3))
 885:/usr/local/Cellar/avr-gcc/9.1.0/avr/include/avr/power.h **** #endif
 886:/usr/local/Cellar/avr-gcc/9.1.0/avr/include/avr/power.h **** 
 887:/usr/local/Cellar/avr-gcc/9.1.0/avr/include/avr/power.h **** #if defined(__AVR_HAVE_PRR2_PRRS)
 888:/usr/local/Cellar/avr-gcc/9.1.0/avr/include/avr/power.h **** #define power_rssi_buffer_enable()      (PRR2 &= (uint8_t)~(1 << PRRS))
 889:/usr/local/Cellar/avr-gcc/9.1.0/avr/include/avr/power.h **** #define power_rssi_buffer_disable()     (PRR2 |= (uint8_t)(1 << PRRS))
 890:/usr/local/Cellar/avr-gcc/9.1.0/avr/include/avr/power.h **** #endif
 891:/usr/local/Cellar/avr-gcc/9.1.0/avr/include/avr/power.h **** 
 892:/usr/local/Cellar/avr-gcc/9.1.0/avr/include/avr/power.h **** #if defined(__AVR_HAVE_PRR2_PRSF)
 893:/usr/local/Cellar/avr-gcc/9.1.0/avr/include/avr/power.h **** #define power_preamble_rssi_fifo_enable()       (PRR2 &= (uint8_t)~(1 << PRSF))
 894:/usr/local/Cellar/avr-gcc/9.1.0/avr/include/avr/power.h **** #define power_preamble_rssi_fifo_disable()      (PRR2 |= (uint8_t)(1 << PRSF))
 895:/usr/local/Cellar/avr-gcc/9.1.0/avr/include/avr/power.h **** #endif
 896:/usr/local/Cellar/avr-gcc/9.1.0/avr/include/avr/power.h **** 
 897:/usr/local/Cellar/avr-gcc/9.1.0/avr/include/avr/power.h **** #if defined(__AVR_HAVE_PRR2_PRSSM)
 898:/usr/local/Cellar/avr-gcc/9.1.0/avr/include/avr/power.h **** #define power_sequencer_state_machine_enable()  (PRR2 &= (uint8_t)~(1 << PRSSM))
 899:/usr/local/Cellar/avr-gcc/9.1.0/avr/include/avr/power.h **** #define power_sequencer_state_machine_disable() (PRR2 |= (uint8_t)(1 << PRSSM))
 900:/usr/local/Cellar/avr-gcc/9.1.0/avr/include/avr/power.h **** #endif
 901:/usr/local/Cellar/avr-gcc/9.1.0/avr/include/avr/power.h **** 
 902:/usr/local/Cellar/avr-gcc/9.1.0/avr/include/avr/power.h **** #if defined(__AVR_HAVE_PRR2_PRTM)
 903:/usr/local/Cellar/avr-gcc/9.1.0/avr/include/avr/power.h **** #define power_tx_modulator_enable()     (PRR2 &= (uint8_t)~(1 << PRTM))
 904:/usr/local/Cellar/avr-gcc/9.1.0/avr/include/avr/power.h **** #define power_tx_modulator_disable()    (PRR2 |= (uint8_t)(1 << PRTM))
 905:/usr/local/Cellar/avr-gcc/9.1.0/avr/include/avr/power.h **** #endif
 906:/usr/local/Cellar/avr-gcc/9.1.0/avr/include/avr/power.h **** 
 907:/usr/local/Cellar/avr-gcc/9.1.0/avr/include/avr/power.h **** #if defined(__AVR_HAVE_PRR2_PRXA)
 908:/usr/local/Cellar/avr-gcc/9.1.0/avr/include/avr/power.h **** #define power_rx_buffer_A_enable()      (PRR2 &= (uint8_t)~(1 << PRXA))
 909:/usr/local/Cellar/avr-gcc/9.1.0/avr/include/avr/power.h **** #define power_rx_buffer_A_disable()     (PRR2 |= (uint8_t)(1 << PRXA))
 910:/usr/local/Cellar/avr-gcc/9.1.0/avr/include/avr/power.h **** #endif
 911:/usr/local/Cellar/avr-gcc/9.1.0/avr/include/avr/power.h **** 
 912:/usr/local/Cellar/avr-gcc/9.1.0/avr/include/avr/power.h **** #if defined(__AVR_HAVE_PRR2_PRXB)
 913:/usr/local/Cellar/avr-gcc/9.1.0/avr/include/avr/power.h **** #define power_rx_buffer_B_enable()      (PRR2 &= (uint8_t)~(1 << PRXB))
 914:/usr/local/Cellar/avr-gcc/9.1.0/avr/include/avr/power.h **** #define power_rx_buffer_B_disable()     (PRR2 |= (uint8_t)(1 << PRXB))
 915:/usr/local/Cellar/avr-gcc/9.1.0/avr/include/avr/power.h **** #endif
 916:/usr/local/Cellar/avr-gcc/9.1.0/avr/include/avr/power.h **** 
 917:/usr/local/Cellar/avr-gcc/9.1.0/avr/include/avr/power.h **** #if defined(__AVR_HAVE_PRGEN_AES)
 918:/usr/local/Cellar/avr-gcc/9.1.0/avr/include/avr/power.h **** #define power_aes_enable()              (PR_PRGEN &= (uint8_t)~(PR_AES_bm))
 919:/usr/local/Cellar/avr-gcc/9.1.0/avr/include/avr/power.h **** #define power_aes_disable()             (PR_PRGEN |= (uint8_t)PR_AES_bm)
 920:/usr/local/Cellar/avr-gcc/9.1.0/avr/include/avr/power.h **** #endif
 921:/usr/local/Cellar/avr-gcc/9.1.0/avr/include/avr/power.h **** 
 922:/usr/local/Cellar/avr-gcc/9.1.0/avr/include/avr/power.h **** #if defined(__AVR_HAVE_PRGEN_DMA)
 923:/usr/local/Cellar/avr-gcc/9.1.0/avr/include/avr/power.h **** #define power_dma_enable()              (PR_PRGEN &= (uint8_t)~(PR_DMA_bm))
 924:/usr/local/Cellar/avr-gcc/9.1.0/avr/include/avr/power.h **** #define power_dma_disable()             (PR_PRGEN |= (uint8_t)PR_DMA_bm)
 925:/usr/local/Cellar/avr-gcc/9.1.0/avr/include/avr/power.h **** #endif
 926:/usr/local/Cellar/avr-gcc/9.1.0/avr/include/avr/power.h **** 
 927:/usr/local/Cellar/avr-gcc/9.1.0/avr/include/avr/power.h **** #if defined(__AVR_HAVE_PRGEN_EBI)
 928:/usr/local/Cellar/avr-gcc/9.1.0/avr/include/avr/power.h **** #define power_ebi_enable()              (PR_PRGEN &= (uint8_t)~(PR_EBI_bm))
 929:/usr/local/Cellar/avr-gcc/9.1.0/avr/include/avr/power.h **** #define power_ebi_disable()             (PR_PRGEN |= (uint8_t)PR_EBI_bm)
 930:/usr/local/Cellar/avr-gcc/9.1.0/avr/include/avr/power.h **** #endif
 931:/usr/local/Cellar/avr-gcc/9.1.0/avr/include/avr/power.h **** 
 932:/usr/local/Cellar/avr-gcc/9.1.0/avr/include/avr/power.h **** #if defined(__AVR_HAVE_PRGEN_EDMA)
 933:/usr/local/Cellar/avr-gcc/9.1.0/avr/include/avr/power.h **** #define power_edma_enable()             (PR_PRGEN &= (uint8_t)~(PR_EDMA_bm))
 934:/usr/local/Cellar/avr-gcc/9.1.0/avr/include/avr/power.h **** #define power_edma_disable()            (PR_PRGEN |= (uint8_t)PR_EDMA_bm)
 935:/usr/local/Cellar/avr-gcc/9.1.0/avr/include/avr/power.h **** #endif
 936:/usr/local/Cellar/avr-gcc/9.1.0/avr/include/avr/power.h **** 
 937:/usr/local/Cellar/avr-gcc/9.1.0/avr/include/avr/power.h **** #if defined(__AVR_HAVE_PRGEN_EVSYS)
 938:/usr/local/Cellar/avr-gcc/9.1.0/avr/include/avr/power.h **** #define power_evsys_enable()            (PR_PRGEN &= (uint8_t)~(PR_EVSYS_bm))
 939:/usr/local/Cellar/avr-gcc/9.1.0/avr/include/avr/power.h **** #define power_evsys_disable()           (PR_PRGEN |= (uint8_t)PR_EVSYS_bm)
 940:/usr/local/Cellar/avr-gcc/9.1.0/avr/include/avr/power.h **** #endif
 941:/usr/local/Cellar/avr-gcc/9.1.0/avr/include/avr/power.h **** 
 942:/usr/local/Cellar/avr-gcc/9.1.0/avr/include/avr/power.h **** #if defined(__AVR_HAVE_PRGEN_LCD)
 943:/usr/local/Cellar/avr-gcc/9.1.0/avr/include/avr/power.h **** #define power_lcd_enable()              (PR_PRGEN &= (uint8_t)~(PR_LCD_bm))
 944:/usr/local/Cellar/avr-gcc/9.1.0/avr/include/avr/power.h **** #define power_lcd_disable()             (PR_PRGEN |= (uint8_t)PR_LCD_bm)
 945:/usr/local/Cellar/avr-gcc/9.1.0/avr/include/avr/power.h **** #endif
 946:/usr/local/Cellar/avr-gcc/9.1.0/avr/include/avr/power.h **** 
 947:/usr/local/Cellar/avr-gcc/9.1.0/avr/include/avr/power.h **** #if defined(__AVR_HAVE_PRGEN_RTC)
 948:/usr/local/Cellar/avr-gcc/9.1.0/avr/include/avr/power.h **** #define power_rtc_enable()              (PR_PRGEN &= (uint8_t)~(PR_RTC_bm))
 949:/usr/local/Cellar/avr-gcc/9.1.0/avr/include/avr/power.h **** #define power_rtc_disable()             (PR_PRGEN |= (uint8_t)PR_RTC_bm)
 950:/usr/local/Cellar/avr-gcc/9.1.0/avr/include/avr/power.h **** #endif
 951:/usr/local/Cellar/avr-gcc/9.1.0/avr/include/avr/power.h **** 
 952:/usr/local/Cellar/avr-gcc/9.1.0/avr/include/avr/power.h **** #if defined(__AVR_HAVE_PRGEN_USB)
 953:/usr/local/Cellar/avr-gcc/9.1.0/avr/include/avr/power.h **** #define power_usb_enable()              (PR_PRGEN &= (uint8_t)~(PR_USB_bm))
 954:/usr/local/Cellar/avr-gcc/9.1.0/avr/include/avr/power.h **** #define power_usb_disable()             (PR_PRGEN &= (uint8_t)(PR_USB_bm))
 955:/usr/local/Cellar/avr-gcc/9.1.0/avr/include/avr/power.h **** #endif
 956:/usr/local/Cellar/avr-gcc/9.1.0/avr/include/avr/power.h **** 
 957:/usr/local/Cellar/avr-gcc/9.1.0/avr/include/avr/power.h **** #if defined(__AVR_HAVE_PRGEN_XCL)
 958:/usr/local/Cellar/avr-gcc/9.1.0/avr/include/avr/power.h **** #define power_xcl_enable()              (PR_PRGEN &= (uint8_t)~(PR_XCL_bm))
 959:/usr/local/Cellar/avr-gcc/9.1.0/avr/include/avr/power.h **** #define power_xcl_disable()             (PR_PRGEN |= (uint8_t)PR_XCL_bm)
 960:/usr/local/Cellar/avr-gcc/9.1.0/avr/include/avr/power.h **** #endif
 961:/usr/local/Cellar/avr-gcc/9.1.0/avr/include/avr/power.h **** 
 962:/usr/local/Cellar/avr-gcc/9.1.0/avr/include/avr/power.h **** #if defined(__AVR_HAVE_PRPA_AC)
 963:/usr/local/Cellar/avr-gcc/9.1.0/avr/include/avr/power.h **** #define power_aca_enable()      (PR_PRPA &= (uint8_t)~(PR_AC_bm))
 964:/usr/local/Cellar/avr-gcc/9.1.0/avr/include/avr/power.h **** #define power_aca_disable()     (PR_PRPA |= (uint8_t)PR_AC_bm)
 965:/usr/local/Cellar/avr-gcc/9.1.0/avr/include/avr/power.h **** #endif
 966:/usr/local/Cellar/avr-gcc/9.1.0/avr/include/avr/power.h **** 
 967:/usr/local/Cellar/avr-gcc/9.1.0/avr/include/avr/power.h **** #if defined(__AVR_HAVE_PRPA_ADC)
 968:/usr/local/Cellar/avr-gcc/9.1.0/avr/include/avr/power.h **** #define power_adca_enable()     (PR_PRPA &= (uint8_t)~(PR_ADC_bm))
 969:/usr/local/Cellar/avr-gcc/9.1.0/avr/include/avr/power.h **** #define power_adca_disable()    (PR_PRPA |= (uint8_t)PR_ADC_bm)
 970:/usr/local/Cellar/avr-gcc/9.1.0/avr/include/avr/power.h **** #endif
 971:/usr/local/Cellar/avr-gcc/9.1.0/avr/include/avr/power.h **** 
 972:/usr/local/Cellar/avr-gcc/9.1.0/avr/include/avr/power.h **** #if defined(__AVR_HAVE_PRPA_DAC)
 973:/usr/local/Cellar/avr-gcc/9.1.0/avr/include/avr/power.h **** #define power_daca_enable()     (PR_PRPA &= (uint8_t)~(PR_DAC_bm))
 974:/usr/local/Cellar/avr-gcc/9.1.0/avr/include/avr/power.h **** #define power_daca_disable()    (PR_PRPA |= (uint8_t)PR_DAC_bm)
 975:/usr/local/Cellar/avr-gcc/9.1.0/avr/include/avr/power.h **** #endif
 976:/usr/local/Cellar/avr-gcc/9.1.0/avr/include/avr/power.h **** 
 977:/usr/local/Cellar/avr-gcc/9.1.0/avr/include/avr/power.h **** #if defined(__AVR_HAVE_PRPB_AC)
 978:/usr/local/Cellar/avr-gcc/9.1.0/avr/include/avr/power.h **** #define power_acb_enable()      (PR_PRPB &= (uint8_t)~(PR_AC_bm))
 979:/usr/local/Cellar/avr-gcc/9.1.0/avr/include/avr/power.h **** #define power_acb_disable()     (PR_PRPB |= (uint8_t)PR_AC_bm)
 980:/usr/local/Cellar/avr-gcc/9.1.0/avr/include/avr/power.h **** #endif
 981:/usr/local/Cellar/avr-gcc/9.1.0/avr/include/avr/power.h **** 
 982:/usr/local/Cellar/avr-gcc/9.1.0/avr/include/avr/power.h **** #if defined(__AVR_HAVE_PRPB_ADC)
 983:/usr/local/Cellar/avr-gcc/9.1.0/avr/include/avr/power.h **** #define power_adcb_enable()     (PR_PRPB &= (uint8_t)~(PR_ADC_bm))
 984:/usr/local/Cellar/avr-gcc/9.1.0/avr/include/avr/power.h **** #define power_adcb_disable()    (PR_PRPB |= (uint8_t)PR_ADC_bm)
 985:/usr/local/Cellar/avr-gcc/9.1.0/avr/include/avr/power.h **** #endif
 986:/usr/local/Cellar/avr-gcc/9.1.0/avr/include/avr/power.h **** 
 987:/usr/local/Cellar/avr-gcc/9.1.0/avr/include/avr/power.h **** #if defined(__AVR_HAVE_PRPB_DAC)
 988:/usr/local/Cellar/avr-gcc/9.1.0/avr/include/avr/power.h **** #define power_dacb_enable()     (PR_PRPB &= (uint8_t)~(PR_DAC_bm))
 989:/usr/local/Cellar/avr-gcc/9.1.0/avr/include/avr/power.h **** #define power_dacb_disable()    (PR_PRPB |= (uint8_t)PR_DAC_bm)
 990:/usr/local/Cellar/avr-gcc/9.1.0/avr/include/avr/power.h **** #endif
 991:/usr/local/Cellar/avr-gcc/9.1.0/avr/include/avr/power.h **** 
 992:/usr/local/Cellar/avr-gcc/9.1.0/avr/include/avr/power.h **** #if defined(__AVR_HAVE_PRPC_HIRES)
 993:/usr/local/Cellar/avr-gcc/9.1.0/avr/include/avr/power.h **** #define power_hiresc_enable()   (PR_PRPC &= (uint8_t)~(PR_HIRES_bm))
 994:/usr/local/Cellar/avr-gcc/9.1.0/avr/include/avr/power.h **** #define power_hiresc_disable()  (PR_PRPC |= (uint8_t)PR_HIRES_bm)
 995:/usr/local/Cellar/avr-gcc/9.1.0/avr/include/avr/power.h **** #endif
 996:/usr/local/Cellar/avr-gcc/9.1.0/avr/include/avr/power.h **** 
 997:/usr/local/Cellar/avr-gcc/9.1.0/avr/include/avr/power.h **** #if defined(__AVR_HAVE_PRPC_SPI)
 998:/usr/local/Cellar/avr-gcc/9.1.0/avr/include/avr/power.h **** #define power_spic_enable()     (PR_PRPC &= (uint8_t)~(PR_SPI_bm))
 999:/usr/local/Cellar/avr-gcc/9.1.0/avr/include/avr/power.h **** #define power_spic_disable()    (PR_PRPC |= (uint8_t)PR_SPI_bm)
1000:/usr/local/Cellar/avr-gcc/9.1.0/avr/include/avr/power.h **** #endif
1001:/usr/local/Cellar/avr-gcc/9.1.0/avr/include/avr/power.h **** 
1002:/usr/local/Cellar/avr-gcc/9.1.0/avr/include/avr/power.h **** #if defined(__AVR_HAVE_PRPC_TC0)
1003:/usr/local/Cellar/avr-gcc/9.1.0/avr/include/avr/power.h **** #define power_tc0c_enable()     (PR_PRPC &= (uint8_t)~(PR_TC0_bm))
1004:/usr/local/Cellar/avr-gcc/9.1.0/avr/include/avr/power.h **** #define power_tc0c_disable()    (PR_PRPC |= (uint8_t)PR_TC0_bm)
1005:/usr/local/Cellar/avr-gcc/9.1.0/avr/include/avr/power.h **** #endif
1006:/usr/local/Cellar/avr-gcc/9.1.0/avr/include/avr/power.h **** 
1007:/usr/local/Cellar/avr-gcc/9.1.0/avr/include/avr/power.h **** #if defined(__AVR_HAVE_PRPC_TC1)
1008:/usr/local/Cellar/avr-gcc/9.1.0/avr/include/avr/power.h **** #define power_tc1c_enable()     (PR_PRPC &= (uint8_t)~(PR_TC1_bm))
1009:/usr/local/Cellar/avr-gcc/9.1.0/avr/include/avr/power.h **** #define power_tc1c_disable()    (PR_PRPC |= (uint8_t)PR_TC1_bm)
1010:/usr/local/Cellar/avr-gcc/9.1.0/avr/include/avr/power.h **** #endif
1011:/usr/local/Cellar/avr-gcc/9.1.0/avr/include/avr/power.h **** 
1012:/usr/local/Cellar/avr-gcc/9.1.0/avr/include/avr/power.h **** #if defined(__AVR_HAVE_PRPC_TC4)
1013:/usr/local/Cellar/avr-gcc/9.1.0/avr/include/avr/power.h **** #define power_tc4c_enable()     (PR_PRPC  &= (uint8_t)~(PR_TC4_bm))
1014:/usr/local/Cellar/avr-gcc/9.1.0/avr/include/avr/power.h **** #define power_tc4c_disable()    (PR_PRPC  |= (uint8_t)PR_TC4_bm)
1015:/usr/local/Cellar/avr-gcc/9.1.0/avr/include/avr/power.h **** #endif
1016:/usr/local/Cellar/avr-gcc/9.1.0/avr/include/avr/power.h **** 
1017:/usr/local/Cellar/avr-gcc/9.1.0/avr/include/avr/power.h **** #if defined(__AVR_HAVE_PRPC_TC5)
1018:/usr/local/Cellar/avr-gcc/9.1.0/avr/include/avr/power.h **** #define power_tc5c_enable()     (PR_PRPC  &= (uint8_t)~(PR_TC5_bm))
1019:/usr/local/Cellar/avr-gcc/9.1.0/avr/include/avr/power.h **** #define power_tc5c_disable()    (PR_PRPC  |= (uint8_t)PR_TC5_bm)
1020:/usr/local/Cellar/avr-gcc/9.1.0/avr/include/avr/power.h **** #endif
1021:/usr/local/Cellar/avr-gcc/9.1.0/avr/include/avr/power.h **** 
1022:/usr/local/Cellar/avr-gcc/9.1.0/avr/include/avr/power.h **** #if defined(__AVR_HAVE_PRPC_TWI)
1023:/usr/local/Cellar/avr-gcc/9.1.0/avr/include/avr/power.h **** #define power_twic_enable()     (PR_PRPC &= (uint8_t)~(PR_TWI_bm))
1024:/usr/local/Cellar/avr-gcc/9.1.0/avr/include/avr/power.h **** #define power_twic_disable()    (PR_PRPC |= (uint8_t)PR_TWI_bm)
1025:/usr/local/Cellar/avr-gcc/9.1.0/avr/include/avr/power.h **** #endif
1026:/usr/local/Cellar/avr-gcc/9.1.0/avr/include/avr/power.h **** 
1027:/usr/local/Cellar/avr-gcc/9.1.0/avr/include/avr/power.h **** #if defined(__AVR_HAVE_PRPC_USART0)
1028:/usr/local/Cellar/avr-gcc/9.1.0/avr/include/avr/power.h **** #define power_usartc0_enable()  (PR_PRPC &= (uint8_t)~(PR_USART0_bm))
1029:/usr/local/Cellar/avr-gcc/9.1.0/avr/include/avr/power.h **** #define power_usartc0_disable() (PR_PRPC |= (uint8_t)PR_USART0_bm)
1030:/usr/local/Cellar/avr-gcc/9.1.0/avr/include/avr/power.h **** #endif
1031:/usr/local/Cellar/avr-gcc/9.1.0/avr/include/avr/power.h **** 
1032:/usr/local/Cellar/avr-gcc/9.1.0/avr/include/avr/power.h **** #if defined(__AVR_HAVE_PRPC_USART1)
1033:/usr/local/Cellar/avr-gcc/9.1.0/avr/include/avr/power.h **** #define power_usartc1_enable()  (PR_PRPC &= (uint8_t)~(PR_USART1_bm))
1034:/usr/local/Cellar/avr-gcc/9.1.0/avr/include/avr/power.h **** #define power_usartc1_disable() (PR_PRPC |= (uint8_t)PR_USART1_bm)
1035:/usr/local/Cellar/avr-gcc/9.1.0/avr/include/avr/power.h **** #endif
1036:/usr/local/Cellar/avr-gcc/9.1.0/avr/include/avr/power.h **** 
1037:/usr/local/Cellar/avr-gcc/9.1.0/avr/include/avr/power.h **** #if defined(__AVR_HAVE_PRPD_HIRES)
1038:/usr/local/Cellar/avr-gcc/9.1.0/avr/include/avr/power.h **** #define power_hiresd_enable()   (PR_PRPD &= (uint8_t)~(PR_HIRES_bm))
1039:/usr/local/Cellar/avr-gcc/9.1.0/avr/include/avr/power.h **** #define power_hiresd_disable()  (PR_PRPD |= (uint8_t)PR_HIRES_bm)
1040:/usr/local/Cellar/avr-gcc/9.1.0/avr/include/avr/power.h **** #endif
1041:/usr/local/Cellar/avr-gcc/9.1.0/avr/include/avr/power.h **** 
1042:/usr/local/Cellar/avr-gcc/9.1.0/avr/include/avr/power.h **** #if defined(__AVR_HAVE_PRPD_SPI)
1043:/usr/local/Cellar/avr-gcc/9.1.0/avr/include/avr/power.h **** #define power_spid_enable()     (PR_PRPD &= (uint8_t)~(PR_SPI_bm))
1044:/usr/local/Cellar/avr-gcc/9.1.0/avr/include/avr/power.h **** #define power_spid_disable()    (PR_PRPD |= (uint8_t)PR_SPI_bm)
1045:/usr/local/Cellar/avr-gcc/9.1.0/avr/include/avr/power.h **** #endif
1046:/usr/local/Cellar/avr-gcc/9.1.0/avr/include/avr/power.h **** 
1047:/usr/local/Cellar/avr-gcc/9.1.0/avr/include/avr/power.h **** #if defined(__AVR_HAVE_PRPD_TC0)
1048:/usr/local/Cellar/avr-gcc/9.1.0/avr/include/avr/power.h **** #define power_tc0d_enable()     (PR_PRPD &= (uint8_t)~(PR_TC0_bm))
1049:/usr/local/Cellar/avr-gcc/9.1.0/avr/include/avr/power.h **** #define power_tc0d_disable()    (PR_PRPD |= (uint8_t)PR_TC0_bm)
1050:/usr/local/Cellar/avr-gcc/9.1.0/avr/include/avr/power.h **** #endif
1051:/usr/local/Cellar/avr-gcc/9.1.0/avr/include/avr/power.h **** 
1052:/usr/local/Cellar/avr-gcc/9.1.0/avr/include/avr/power.h **** #if defined(__AVR_HAVE_PRPD_TC1)
1053:/usr/local/Cellar/avr-gcc/9.1.0/avr/include/avr/power.h **** #define power_tc1d_enable()     (PR_PRPD &= (uint8_t)~(PR_TC1_bm))
1054:/usr/local/Cellar/avr-gcc/9.1.0/avr/include/avr/power.h **** #define power_tc1d_disable()    (PR_PRPD |= (uint8_t)PR_TC1_bm)
1055:/usr/local/Cellar/avr-gcc/9.1.0/avr/include/avr/power.h **** #endif
1056:/usr/local/Cellar/avr-gcc/9.1.0/avr/include/avr/power.h **** 
1057:/usr/local/Cellar/avr-gcc/9.1.0/avr/include/avr/power.h **** #if defined(__AVR_HAVE_PRPD_TC5)
1058:/usr/local/Cellar/avr-gcc/9.1.0/avr/include/avr/power.h **** #define power_tc5d_enable()     (PR_PRPD  &= (uint8_t)~(PR_TC5_bm))
1059:/usr/local/Cellar/avr-gcc/9.1.0/avr/include/avr/power.h **** #define power_tc5d_disable()    (PR_PRPD  |= (uint8_t)PR_TC5_bm)
1060:/usr/local/Cellar/avr-gcc/9.1.0/avr/include/avr/power.h **** #endif
1061:/usr/local/Cellar/avr-gcc/9.1.0/avr/include/avr/power.h **** 
1062:/usr/local/Cellar/avr-gcc/9.1.0/avr/include/avr/power.h **** #if defined(__AVR_HAVE_PRPD_TWI)
1063:/usr/local/Cellar/avr-gcc/9.1.0/avr/include/avr/power.h **** #define power_twid_enable()     (PR_PRPD &= (uint8_t)~(PR_TWI_bm))
1064:/usr/local/Cellar/avr-gcc/9.1.0/avr/include/avr/power.h **** #define power_twid_disable()    (PR_PRPD |= (uint8_t)PR_TWI_bm)
1065:/usr/local/Cellar/avr-gcc/9.1.0/avr/include/avr/power.h **** #endif
1066:/usr/local/Cellar/avr-gcc/9.1.0/avr/include/avr/power.h **** 
1067:/usr/local/Cellar/avr-gcc/9.1.0/avr/include/avr/power.h **** #if defined(__AVR_HAVE_PRPD_USART0)
1068:/usr/local/Cellar/avr-gcc/9.1.0/avr/include/avr/power.h **** #define power_usartd0_enable()  (PR_PRPD &= (uint8_t)~(PR_USART0_bm))
1069:/usr/local/Cellar/avr-gcc/9.1.0/avr/include/avr/power.h **** #define power_usartd0_disable() (PR_PRPD |= (uint8_t)PR_USART0_bm)
1070:/usr/local/Cellar/avr-gcc/9.1.0/avr/include/avr/power.h **** #endif
1071:/usr/local/Cellar/avr-gcc/9.1.0/avr/include/avr/power.h **** 
1072:/usr/local/Cellar/avr-gcc/9.1.0/avr/include/avr/power.h **** #if defined(__AVR_HAVE_PRPD_USART1)
1073:/usr/local/Cellar/avr-gcc/9.1.0/avr/include/avr/power.h **** #define power_usartd1_enable()  (PR_PRPD &= (uint8_t)~(PR_USART1_bm))
1074:/usr/local/Cellar/avr-gcc/9.1.0/avr/include/avr/power.h **** #define power_usartd1_disable() (PR_PRPD |= (uint8_t)PR_USART1_bm)
1075:/usr/local/Cellar/avr-gcc/9.1.0/avr/include/avr/power.h **** #endif
1076:/usr/local/Cellar/avr-gcc/9.1.0/avr/include/avr/power.h **** 
1077:/usr/local/Cellar/avr-gcc/9.1.0/avr/include/avr/power.h **** #if defined(__AVR_HAVE_PRPE_HIRES)
1078:/usr/local/Cellar/avr-gcc/9.1.0/avr/include/avr/power.h **** #define power_hirese_enable()   (PR_PRPE &= (uint8_t)~(PR_HIRES_bm))
1079:/usr/local/Cellar/avr-gcc/9.1.0/avr/include/avr/power.h **** #define power_hirese_disable()  (PR_PRPE |= (uint8_t)PR_HIRES_bm)
1080:/usr/local/Cellar/avr-gcc/9.1.0/avr/include/avr/power.h **** #endif
1081:/usr/local/Cellar/avr-gcc/9.1.0/avr/include/avr/power.h **** 
1082:/usr/local/Cellar/avr-gcc/9.1.0/avr/include/avr/power.h **** #if defined(__AVR_HAVE_PRPE_SPI)
1083:/usr/local/Cellar/avr-gcc/9.1.0/avr/include/avr/power.h **** #define power_spie_enable()     (PR_PRPE &= (uint8_t)~(PR_SPI_bm))
1084:/usr/local/Cellar/avr-gcc/9.1.0/avr/include/avr/power.h **** #define power_spie_disable()    (PR_PRPE |= (uint8_t)PR_SPI_bm)
1085:/usr/local/Cellar/avr-gcc/9.1.0/avr/include/avr/power.h **** #endif
1086:/usr/local/Cellar/avr-gcc/9.1.0/avr/include/avr/power.h **** 
1087:/usr/local/Cellar/avr-gcc/9.1.0/avr/include/avr/power.h **** #if defined(__AVR_HAVE_PRPE_TC0)
1088:/usr/local/Cellar/avr-gcc/9.1.0/avr/include/avr/power.h **** #define power_tc0e_enable()     (PR_PRPE &= (uint8_t)~(PR_TC0_bm))
1089:/usr/local/Cellar/avr-gcc/9.1.0/avr/include/avr/power.h **** #define power_tc0e_disable()    (PR_PRPE |= (uint8_t)PR_TC0_bm)
1090:/usr/local/Cellar/avr-gcc/9.1.0/avr/include/avr/power.h **** #endif
1091:/usr/local/Cellar/avr-gcc/9.1.0/avr/include/avr/power.h **** 
1092:/usr/local/Cellar/avr-gcc/9.1.0/avr/include/avr/power.h **** #if defined(__AVR_HAVE_PRPE_TC1)
1093:/usr/local/Cellar/avr-gcc/9.1.0/avr/include/avr/power.h **** #define power_tc1e_enable()     (PR_PRPE &= (uint8_t)~(PR_TC1_bm))
1094:/usr/local/Cellar/avr-gcc/9.1.0/avr/include/avr/power.h **** #define power_tc1e_disable()    (PR_PRPE |= (uint8_t)PR_TC1_bm)
1095:/usr/local/Cellar/avr-gcc/9.1.0/avr/include/avr/power.h **** #endif
1096:/usr/local/Cellar/avr-gcc/9.1.0/avr/include/avr/power.h **** 
1097:/usr/local/Cellar/avr-gcc/9.1.0/avr/include/avr/power.h **** #if defined(__AVR_HAVE_PRPE_TWI)
1098:/usr/local/Cellar/avr-gcc/9.1.0/avr/include/avr/power.h **** #define power_twie_enable()     (PR_PRPE &= (uint8_t)~(PR_TWI_bm))
1099:/usr/local/Cellar/avr-gcc/9.1.0/avr/include/avr/power.h **** #define power_twie_disable()    (PR_PRPE |= (uint8_t)PR_TWI_bm)
1100:/usr/local/Cellar/avr-gcc/9.1.0/avr/include/avr/power.h **** #endif
1101:/usr/local/Cellar/avr-gcc/9.1.0/avr/include/avr/power.h **** 
1102:/usr/local/Cellar/avr-gcc/9.1.0/avr/include/avr/power.h **** #if defined(__AVR_HAVE_PRPE_USART0)
1103:/usr/local/Cellar/avr-gcc/9.1.0/avr/include/avr/power.h **** #define power_usarte0_enable()  (PR_PRPE &= (uint8_t)~(PR_USART0_bm))
1104:/usr/local/Cellar/avr-gcc/9.1.0/avr/include/avr/power.h **** #define power_usarte0_disable() (PR_PRPE |= (uint8_t)PR_USART0_bm)
1105:/usr/local/Cellar/avr-gcc/9.1.0/avr/include/avr/power.h **** #endif
1106:/usr/local/Cellar/avr-gcc/9.1.0/avr/include/avr/power.h **** 
1107:/usr/local/Cellar/avr-gcc/9.1.0/avr/include/avr/power.h **** #if defined(__AVR_HAVE_PRPE_USART1)
1108:/usr/local/Cellar/avr-gcc/9.1.0/avr/include/avr/power.h **** #define power_usarte1_enable()  (PR_PRPE &= (uint8_t)~(PR_USART1_bm))
1109:/usr/local/Cellar/avr-gcc/9.1.0/avr/include/avr/power.h **** #define power_usarte1_disable() (PR_PRPE |= (uint8_t)PR_USART1_bm)
1110:/usr/local/Cellar/avr-gcc/9.1.0/avr/include/avr/power.h **** #endif
1111:/usr/local/Cellar/avr-gcc/9.1.0/avr/include/avr/power.h **** 
1112:/usr/local/Cellar/avr-gcc/9.1.0/avr/include/avr/power.h **** #if defined(__AVR_HAVE_PRPF_HIRES)
1113:/usr/local/Cellar/avr-gcc/9.1.0/avr/include/avr/power.h **** #define power_hiresf_enable()   (PR_PRPF &= (uint8_t)~(PR_HIRES_bm))
1114:/usr/local/Cellar/avr-gcc/9.1.0/avr/include/avr/power.h **** #define power_hiresf_disable()  (PR_PRPF |= (uint8_t)PR_HIRES_bm)
1115:/usr/local/Cellar/avr-gcc/9.1.0/avr/include/avr/power.h **** #endif
1116:/usr/local/Cellar/avr-gcc/9.1.0/avr/include/avr/power.h **** 
1117:/usr/local/Cellar/avr-gcc/9.1.0/avr/include/avr/power.h **** #if defined(__AVR_HAVE_PRPF_SPI)
1118:/usr/local/Cellar/avr-gcc/9.1.0/avr/include/avr/power.h **** #define power_spif_enable()     (PR_PRPF &= (uint8_t)~(PR_SPI_bm))
1119:/usr/local/Cellar/avr-gcc/9.1.0/avr/include/avr/power.h **** #define power_spif_disable()    (PR_PRPF |= (uint8_t)PR_SPI_bm)
1120:/usr/local/Cellar/avr-gcc/9.1.0/avr/include/avr/power.h **** #endif
1121:/usr/local/Cellar/avr-gcc/9.1.0/avr/include/avr/power.h **** 
1122:/usr/local/Cellar/avr-gcc/9.1.0/avr/include/avr/power.h **** #if defined(__AVR_HAVE_PRPF_TC0)
1123:/usr/local/Cellar/avr-gcc/9.1.0/avr/include/avr/power.h **** #define power_tc0f_enable()     (PR_PRPF &= (uint8_t)~(PR_TC0_bm))
1124:/usr/local/Cellar/avr-gcc/9.1.0/avr/include/avr/power.h **** #define power_tc0f_disable()    (PR_PRPF |= (uint8_t)PR_TC0_bm)
1125:/usr/local/Cellar/avr-gcc/9.1.0/avr/include/avr/power.h **** #endif
1126:/usr/local/Cellar/avr-gcc/9.1.0/avr/include/avr/power.h **** 
1127:/usr/local/Cellar/avr-gcc/9.1.0/avr/include/avr/power.h **** #if defined(__AVR_HAVE_PRPF_TC1)
1128:/usr/local/Cellar/avr-gcc/9.1.0/avr/include/avr/power.h **** #define power_tc1f_enable()     (PR_PRPF &= (uint8_t)~(PR_TC1_bm))
1129:/usr/local/Cellar/avr-gcc/9.1.0/avr/include/avr/power.h **** #define power_tc1f_disable()    (PR_PRPF |= (uint8_t)PR_TC1_bm)
1130:/usr/local/Cellar/avr-gcc/9.1.0/avr/include/avr/power.h **** #endif
1131:/usr/local/Cellar/avr-gcc/9.1.0/avr/include/avr/power.h **** 
1132:/usr/local/Cellar/avr-gcc/9.1.0/avr/include/avr/power.h **** #if defined(__AVR_HAVE_PRPF_TWI)
1133:/usr/local/Cellar/avr-gcc/9.1.0/avr/include/avr/power.h **** #define power_twif_enable()     (PR_PRPF &= (uint8_t)~(PR_TWI_bm))
1134:/usr/local/Cellar/avr-gcc/9.1.0/avr/include/avr/power.h **** #define power_twif_disable()    (PR_PRPF |= (uint8_t)PR_TWI_bm)
1135:/usr/local/Cellar/avr-gcc/9.1.0/avr/include/avr/power.h **** #endif
1136:/usr/local/Cellar/avr-gcc/9.1.0/avr/include/avr/power.h **** 
1137:/usr/local/Cellar/avr-gcc/9.1.0/avr/include/avr/power.h **** #if defined(__AVR_HAVE_PRPF_USART0)
1138:/usr/local/Cellar/avr-gcc/9.1.0/avr/include/avr/power.h **** #define power_usartf0_enable()  (PR_PRPF &= (uint8_t)~(PR_USART0_bm))
1139:/usr/local/Cellar/avr-gcc/9.1.0/avr/include/avr/power.h **** #define power_usartf0_disable() (PR_PRPF |= (uint8_t)PR_USART0_bm)
1140:/usr/local/Cellar/avr-gcc/9.1.0/avr/include/avr/power.h **** #endif
1141:/usr/local/Cellar/avr-gcc/9.1.0/avr/include/avr/power.h **** 
1142:/usr/local/Cellar/avr-gcc/9.1.0/avr/include/avr/power.h **** #if defined(__AVR_HAVE_PRPF_USART1)
1143:/usr/local/Cellar/avr-gcc/9.1.0/avr/include/avr/power.h **** #define power_usartf1_enable()  (PR_PRPF &= (uint8_t)~(PR_USART1_bm))
1144:/usr/local/Cellar/avr-gcc/9.1.0/avr/include/avr/power.h **** #define power_usartf1_disable() (PR_PRPF |= (uint8_t)PR_USART1_bm)
1145:/usr/local/Cellar/avr-gcc/9.1.0/avr/include/avr/power.h **** #endif
1146:/usr/local/Cellar/avr-gcc/9.1.0/avr/include/avr/power.h **** 
1147:/usr/local/Cellar/avr-gcc/9.1.0/avr/include/avr/power.h **** static __inline void
1148:/usr/local/Cellar/avr-gcc/9.1.0/avr/include/avr/power.h **** __attribute__ ((__always_inline__))
1149:/usr/local/Cellar/avr-gcc/9.1.0/avr/include/avr/power.h **** __power_all_enable()
1150:/usr/local/Cellar/avr-gcc/9.1.0/avr/include/avr/power.h **** {
1151:/usr/local/Cellar/avr-gcc/9.1.0/avr/include/avr/power.h **** #ifdef __AVR_HAVE_PRR
1152:/usr/local/Cellar/avr-gcc/9.1.0/avr/include/avr/power.h ****     PRR &= (uint8_t)~(__AVR_HAVE_PRR);
1153:/usr/local/Cellar/avr-gcc/9.1.0/avr/include/avr/power.h **** #endif
1154:/usr/local/Cellar/avr-gcc/9.1.0/avr/include/avr/power.h **** 
1155:/usr/local/Cellar/avr-gcc/9.1.0/avr/include/avr/power.h **** #ifdef __AVR_HAVE_PRR0
1156:/usr/local/Cellar/avr-gcc/9.1.0/avr/include/avr/power.h ****     PRR0 &= (uint8_t)~(__AVR_HAVE_PRR0);
1157:/usr/local/Cellar/avr-gcc/9.1.0/avr/include/avr/power.h **** #endif
1158:/usr/local/Cellar/avr-gcc/9.1.0/avr/include/avr/power.h **** 
1159:/usr/local/Cellar/avr-gcc/9.1.0/avr/include/avr/power.h **** #ifdef __AVR_HAVE_PRR1
1160:/usr/local/Cellar/avr-gcc/9.1.0/avr/include/avr/power.h ****     PRR1 &= (uint8_t)~(__AVR_HAVE_PRR1);
1161:/usr/local/Cellar/avr-gcc/9.1.0/avr/include/avr/power.h **** #endif
1162:/usr/local/Cellar/avr-gcc/9.1.0/avr/include/avr/power.h **** 
1163:/usr/local/Cellar/avr-gcc/9.1.0/avr/include/avr/power.h **** #ifdef __AVR_HAVE_PRR2
1164:/usr/local/Cellar/avr-gcc/9.1.0/avr/include/avr/power.h ****    PRR2 &= (uint8_t)~(__AVR_HAVE_PRR2);
1165:/usr/local/Cellar/avr-gcc/9.1.0/avr/include/avr/power.h **** #endif
1166:/usr/local/Cellar/avr-gcc/9.1.0/avr/include/avr/power.h **** 
1167:/usr/local/Cellar/avr-gcc/9.1.0/avr/include/avr/power.h **** #ifdef __AVR_HAVE_PRGEN
1168:/usr/local/Cellar/avr-gcc/9.1.0/avr/include/avr/power.h ****     PR_PRGEN &= (uint8_t)~(__AVR_HAVE_PRGEN);
1169:/usr/local/Cellar/avr-gcc/9.1.0/avr/include/avr/power.h **** #endif
1170:/usr/local/Cellar/avr-gcc/9.1.0/avr/include/avr/power.h **** 
1171:/usr/local/Cellar/avr-gcc/9.1.0/avr/include/avr/power.h **** #ifdef __AVR_HAVE_PRPA
1172:/usr/local/Cellar/avr-gcc/9.1.0/avr/include/avr/power.h ****     PR_PRPA &= (uint8_t)~(__AVR_HAVE_PRPA);
1173:/usr/local/Cellar/avr-gcc/9.1.0/avr/include/avr/power.h **** #endif
1174:/usr/local/Cellar/avr-gcc/9.1.0/avr/include/avr/power.h **** 
1175:/usr/local/Cellar/avr-gcc/9.1.0/avr/include/avr/power.h **** #ifdef __AVR_HAVE_PRPB
1176:/usr/local/Cellar/avr-gcc/9.1.0/avr/include/avr/power.h ****     PR_PRPB &= (uint8_t)~(__AVR_HAVE_PRPB);
1177:/usr/local/Cellar/avr-gcc/9.1.0/avr/include/avr/power.h **** #endif
1178:/usr/local/Cellar/avr-gcc/9.1.0/avr/include/avr/power.h **** 
1179:/usr/local/Cellar/avr-gcc/9.1.0/avr/include/avr/power.h **** #ifdef __AVR_HAVE_PRPC
1180:/usr/local/Cellar/avr-gcc/9.1.0/avr/include/avr/power.h ****     PR_PRPC &= (uint8_t)~(__AVR_HAVE_PRPC);
1181:/usr/local/Cellar/avr-gcc/9.1.0/avr/include/avr/power.h **** #endif
1182:/usr/local/Cellar/avr-gcc/9.1.0/avr/include/avr/power.h **** 
1183:/usr/local/Cellar/avr-gcc/9.1.0/avr/include/avr/power.h **** #ifdef __AVR_HAVE_PRPD
1184:/usr/local/Cellar/avr-gcc/9.1.0/avr/include/avr/power.h ****     PR_PRPD &= (uint8_t)~(__AVR_HAVE_PRPD);
1185:/usr/local/Cellar/avr-gcc/9.1.0/avr/include/avr/power.h **** #endif
1186:/usr/local/Cellar/avr-gcc/9.1.0/avr/include/avr/power.h **** 
1187:/usr/local/Cellar/avr-gcc/9.1.0/avr/include/avr/power.h **** #ifdef __AVR_HAVE_PRPE
1188:/usr/local/Cellar/avr-gcc/9.1.0/avr/include/avr/power.h ****     PR_PRPE &= (uint8_t)~(__AVR_HAVE_PRPE);
1189:/usr/local/Cellar/avr-gcc/9.1.0/avr/include/avr/power.h **** #endif
1190:/usr/local/Cellar/avr-gcc/9.1.0/avr/include/avr/power.h **** 
1191:/usr/local/Cellar/avr-gcc/9.1.0/avr/include/avr/power.h **** #ifdef __AVR_HAVE_PRPF
1192:/usr/local/Cellar/avr-gcc/9.1.0/avr/include/avr/power.h ****     PR_PRPF &= (uint8_t)~(__AVR_HAVE_PRPF);
1193:/usr/local/Cellar/avr-gcc/9.1.0/avr/include/avr/power.h **** #endif
1194:/usr/local/Cellar/avr-gcc/9.1.0/avr/include/avr/power.h **** }
1195:/usr/local/Cellar/avr-gcc/9.1.0/avr/include/avr/power.h **** 
1196:/usr/local/Cellar/avr-gcc/9.1.0/avr/include/avr/power.h **** static __inline void
1197:/usr/local/Cellar/avr-gcc/9.1.0/avr/include/avr/power.h **** __attribute__ ((__always_inline__))
1198:/usr/local/Cellar/avr-gcc/9.1.0/avr/include/avr/power.h **** __power_all_disable()
1199:/usr/local/Cellar/avr-gcc/9.1.0/avr/include/avr/power.h **** {
1200:/usr/local/Cellar/avr-gcc/9.1.0/avr/include/avr/power.h **** #ifdef __AVR_HAVE_PRR
1201:/usr/local/Cellar/avr-gcc/9.1.0/avr/include/avr/power.h ****     PRR |= (uint8_t)(__AVR_HAVE_PRR);
1202:/usr/local/Cellar/avr-gcc/9.1.0/avr/include/avr/power.h **** #endif
1203:/usr/local/Cellar/avr-gcc/9.1.0/avr/include/avr/power.h **** 
1204:/usr/local/Cellar/avr-gcc/9.1.0/avr/include/avr/power.h **** #ifdef __AVR_HAVE_PRR0
1205:/usr/local/Cellar/avr-gcc/9.1.0/avr/include/avr/power.h ****     PRR0 |= (uint8_t)(__AVR_HAVE_PRR0);
1206:/usr/local/Cellar/avr-gcc/9.1.0/avr/include/avr/power.h **** #endif
1207:/usr/local/Cellar/avr-gcc/9.1.0/avr/include/avr/power.h **** 
1208:/usr/local/Cellar/avr-gcc/9.1.0/avr/include/avr/power.h **** #ifdef __AVR_HAVE_PRR1
1209:/usr/local/Cellar/avr-gcc/9.1.0/avr/include/avr/power.h ****     PRR1 |= (uint8_t)(__AVR_HAVE_PRR1);
1210:/usr/local/Cellar/avr-gcc/9.1.0/avr/include/avr/power.h **** #endif
1211:/usr/local/Cellar/avr-gcc/9.1.0/avr/include/avr/power.h **** 
1212:/usr/local/Cellar/avr-gcc/9.1.0/avr/include/avr/power.h **** #ifdef __AVR_HAVE_PRR2
1213:/usr/local/Cellar/avr-gcc/9.1.0/avr/include/avr/power.h ****     PRR2 |= (uint8_t)(__AVR_HAVE_PRR2);
1214:/usr/local/Cellar/avr-gcc/9.1.0/avr/include/avr/power.h **** #endif
1215:/usr/local/Cellar/avr-gcc/9.1.0/avr/include/avr/power.h **** 
1216:/usr/local/Cellar/avr-gcc/9.1.0/avr/include/avr/power.h **** #ifdef __AVR_HAVE_PRGEN
1217:/usr/local/Cellar/avr-gcc/9.1.0/avr/include/avr/power.h ****     PR_PRGEN |= (uint8_t)(__AVR_HAVE_PRGEN);
1218:/usr/local/Cellar/avr-gcc/9.1.0/avr/include/avr/power.h **** #endif
1219:/usr/local/Cellar/avr-gcc/9.1.0/avr/include/avr/power.h **** 
1220:/usr/local/Cellar/avr-gcc/9.1.0/avr/include/avr/power.h **** #ifdef __AVR_HAVE_PRPA
1221:/usr/local/Cellar/avr-gcc/9.1.0/avr/include/avr/power.h ****     PR_PRPA |= (uint8_t)(__AVR_HAVE_PRPA);
1222:/usr/local/Cellar/avr-gcc/9.1.0/avr/include/avr/power.h **** #endif
1223:/usr/local/Cellar/avr-gcc/9.1.0/avr/include/avr/power.h **** 
1224:/usr/local/Cellar/avr-gcc/9.1.0/avr/include/avr/power.h **** #ifdef __AVR_HAVE_PRPB
1225:/usr/local/Cellar/avr-gcc/9.1.0/avr/include/avr/power.h ****     PR_PRPB |= (uint8_t)(__AVR_HAVE_PRPB);
1226:/usr/local/Cellar/avr-gcc/9.1.0/avr/include/avr/power.h **** #endif
1227:/usr/local/Cellar/avr-gcc/9.1.0/avr/include/avr/power.h **** 
1228:/usr/local/Cellar/avr-gcc/9.1.0/avr/include/avr/power.h **** #ifdef __AVR_HAVE_PRPC
1229:/usr/local/Cellar/avr-gcc/9.1.0/avr/include/avr/power.h ****     PR_PRPC |= (uint8_t)(__AVR_HAVE_PRPC);
1230:/usr/local/Cellar/avr-gcc/9.1.0/avr/include/avr/power.h **** #endif
1231:/usr/local/Cellar/avr-gcc/9.1.0/avr/include/avr/power.h **** 
1232:/usr/local/Cellar/avr-gcc/9.1.0/avr/include/avr/power.h **** #ifdef __AVR_HAVE_PRPD
1233:/usr/local/Cellar/avr-gcc/9.1.0/avr/include/avr/power.h ****     PR_PRPD |= (uint8_t)(__AVR_HAVE_PRPD);
1234:/usr/local/Cellar/avr-gcc/9.1.0/avr/include/avr/power.h **** #endif
1235:/usr/local/Cellar/avr-gcc/9.1.0/avr/include/avr/power.h **** 
1236:/usr/local/Cellar/avr-gcc/9.1.0/avr/include/avr/power.h **** #ifdef __AVR_HAVE_PRPE
1237:/usr/local/Cellar/avr-gcc/9.1.0/avr/include/avr/power.h ****     PR_PRPE |= (uint8_t)(__AVR_HAVE_PRPE);
1238:/usr/local/Cellar/avr-gcc/9.1.0/avr/include/avr/power.h **** #endif
1239:/usr/local/Cellar/avr-gcc/9.1.0/avr/include/avr/power.h **** 
1240:/usr/local/Cellar/avr-gcc/9.1.0/avr/include/avr/power.h **** #ifdef __AVR_HAVE_PRPF
1241:/usr/local/Cellar/avr-gcc/9.1.0/avr/include/avr/power.h ****     PR_PRPF |= (uint8_t)(__AVR_HAVE_PRPF);
1242:/usr/local/Cellar/avr-gcc/9.1.0/avr/include/avr/power.h **** #endif
1243:/usr/local/Cellar/avr-gcc/9.1.0/avr/include/avr/power.h **** }
1244:/usr/local/Cellar/avr-gcc/9.1.0/avr/include/avr/power.h **** 
1245:/usr/local/Cellar/avr-gcc/9.1.0/avr/include/avr/power.h **** #ifndef __DOXYGEN__
1246:/usr/local/Cellar/avr-gcc/9.1.0/avr/include/avr/power.h **** #ifndef power_all_enable
1247:/usr/local/Cellar/avr-gcc/9.1.0/avr/include/avr/power.h **** #define power_all_enable() __power_all_enable()
1248:/usr/local/Cellar/avr-gcc/9.1.0/avr/include/avr/power.h **** #endif
1249:/usr/local/Cellar/avr-gcc/9.1.0/avr/include/avr/power.h **** 
1250:/usr/local/Cellar/avr-gcc/9.1.0/avr/include/avr/power.h **** #ifndef power_all_disable
1251:/usr/local/Cellar/avr-gcc/9.1.0/avr/include/avr/power.h **** #define power_all_disable() __power_all_disable()
1252:/usr/local/Cellar/avr-gcc/9.1.0/avr/include/avr/power.h **** #endif
1253:/usr/local/Cellar/avr-gcc/9.1.0/avr/include/avr/power.h **** #endif	/* !__DOXYGEN__ */
1254:/usr/local/Cellar/avr-gcc/9.1.0/avr/include/avr/power.h **** 
1255:/usr/local/Cellar/avr-gcc/9.1.0/avr/include/avr/power.h **** 
1256:/usr/local/Cellar/avr-gcc/9.1.0/avr/include/avr/power.h **** #if defined(__AVR_AT90CAN32__) \
1257:/usr/local/Cellar/avr-gcc/9.1.0/avr/include/avr/power.h **** || defined(__AVR_AT90CAN64__) \
1258:/usr/local/Cellar/avr-gcc/9.1.0/avr/include/avr/power.h **** || defined(__AVR_AT90CAN128__) \
1259:/usr/local/Cellar/avr-gcc/9.1.0/avr/include/avr/power.h **** || defined(__AVR_AT90PWM1__) \
1260:/usr/local/Cellar/avr-gcc/9.1.0/avr/include/avr/power.h **** || defined(__AVR_AT90PWM2__) \
1261:/usr/local/Cellar/avr-gcc/9.1.0/avr/include/avr/power.h **** || defined(__AVR_AT90PWM2B__) \
1262:/usr/local/Cellar/avr-gcc/9.1.0/avr/include/avr/power.h **** || defined(__AVR_AT90PWM3__) \
1263:/usr/local/Cellar/avr-gcc/9.1.0/avr/include/avr/power.h **** || defined(__AVR_AT90PWM3B__) \
1264:/usr/local/Cellar/avr-gcc/9.1.0/avr/include/avr/power.h **** || defined(__AVR_AT90PWM81__) \
1265:/usr/local/Cellar/avr-gcc/9.1.0/avr/include/avr/power.h **** || defined(__AVR_AT90PWM161__) \
1266:/usr/local/Cellar/avr-gcc/9.1.0/avr/include/avr/power.h **** || defined(__AVR_AT90PWM216__) \
1267:/usr/local/Cellar/avr-gcc/9.1.0/avr/include/avr/power.h **** || defined(__AVR_AT90PWM316__) \
1268:/usr/local/Cellar/avr-gcc/9.1.0/avr/include/avr/power.h **** || defined(__AVR_AT90SCR100__) \
1269:/usr/local/Cellar/avr-gcc/9.1.0/avr/include/avr/power.h **** || defined(__AVR_AT90USB646__) \
1270:/usr/local/Cellar/avr-gcc/9.1.0/avr/include/avr/power.h **** || defined(__AVR_AT90USB647__) \
1271:/usr/local/Cellar/avr-gcc/9.1.0/avr/include/avr/power.h **** || defined(__AVR_AT90USB82__) \
1272:/usr/local/Cellar/avr-gcc/9.1.0/avr/include/avr/power.h **** || defined(__AVR_AT90USB1286__) \
1273:/usr/local/Cellar/avr-gcc/9.1.0/avr/include/avr/power.h **** || defined(__AVR_AT90USB1287__) \
1274:/usr/local/Cellar/avr-gcc/9.1.0/avr/include/avr/power.h **** || defined(__AVR_AT90USB162__) \
1275:/usr/local/Cellar/avr-gcc/9.1.0/avr/include/avr/power.h **** || defined(__AVR_ATA5505__) \
1276:/usr/local/Cellar/avr-gcc/9.1.0/avr/include/avr/power.h **** || defined(__AVR_ATA5272__) \
1277:/usr/local/Cellar/avr-gcc/9.1.0/avr/include/avr/power.h **** || defined(__AVR_ATmega1280__) \
1278:/usr/local/Cellar/avr-gcc/9.1.0/avr/include/avr/power.h **** || defined(__AVR_ATmega1281__) \
1279:/usr/local/Cellar/avr-gcc/9.1.0/avr/include/avr/power.h **** || defined(__AVR_ATmega1284__) \
1280:/usr/local/Cellar/avr-gcc/9.1.0/avr/include/avr/power.h **** || defined(__AVR_ATmega128RFA1__) \
1281:/usr/local/Cellar/avr-gcc/9.1.0/avr/include/avr/power.h **** || defined(__AVR_ATmega1284RFR2__) \
1282:/usr/local/Cellar/avr-gcc/9.1.0/avr/include/avr/power.h **** || defined(__AVR_ATmega128RFR2__) \
1283:/usr/local/Cellar/avr-gcc/9.1.0/avr/include/avr/power.h **** || defined(__AVR_ATmega1284P__) \
1284:/usr/local/Cellar/avr-gcc/9.1.0/avr/include/avr/power.h **** || defined(__AVR_ATmega162__) \
1285:/usr/local/Cellar/avr-gcc/9.1.0/avr/include/avr/power.h **** || defined(__AVR_ATmega164A__) \
1286:/usr/local/Cellar/avr-gcc/9.1.0/avr/include/avr/power.h **** || defined(__AVR_ATmega164P__) \
1287:/usr/local/Cellar/avr-gcc/9.1.0/avr/include/avr/power.h **** || defined(__AVR_ATmega164PA__) \
1288:/usr/local/Cellar/avr-gcc/9.1.0/avr/include/avr/power.h **** || defined(__AVR_ATmega165__) \
1289:/usr/local/Cellar/avr-gcc/9.1.0/avr/include/avr/power.h **** || defined(__AVR_ATmega165A__) \
1290:/usr/local/Cellar/avr-gcc/9.1.0/avr/include/avr/power.h **** || defined(__AVR_ATmega165P__) \
1291:/usr/local/Cellar/avr-gcc/9.1.0/avr/include/avr/power.h **** || defined(__AVR_ATmega165PA__) \
1292:/usr/local/Cellar/avr-gcc/9.1.0/avr/include/avr/power.h **** || defined(__AVR_ATmega168__) \
1293:/usr/local/Cellar/avr-gcc/9.1.0/avr/include/avr/power.h **** || defined(__AVR_ATmega168P__) \
1294:/usr/local/Cellar/avr-gcc/9.1.0/avr/include/avr/power.h **** || defined(__AVR_ATmega168PA__) \
1295:/usr/local/Cellar/avr-gcc/9.1.0/avr/include/avr/power.h **** || defined(__AVR_ATmega169__) \
1296:/usr/local/Cellar/avr-gcc/9.1.0/avr/include/avr/power.h **** || defined(__AVR_ATmega169A__) \
1297:/usr/local/Cellar/avr-gcc/9.1.0/avr/include/avr/power.h **** || defined(__AVR_ATmega169P__) \
1298:/usr/local/Cellar/avr-gcc/9.1.0/avr/include/avr/power.h **** || defined(__AVR_ATmega169PA__) \
1299:/usr/local/Cellar/avr-gcc/9.1.0/avr/include/avr/power.h **** || defined(__AVR_ATmega16U4__) \
1300:/usr/local/Cellar/avr-gcc/9.1.0/avr/include/avr/power.h **** || defined(__AVR_ATmega2560__) \
1301:/usr/local/Cellar/avr-gcc/9.1.0/avr/include/avr/power.h **** || defined(__AVR_ATmega2561__) \
1302:/usr/local/Cellar/avr-gcc/9.1.0/avr/include/avr/power.h **** || defined(__AVR_ATmega2564RFR2__) \
1303:/usr/local/Cellar/avr-gcc/9.1.0/avr/include/avr/power.h **** || defined(__AVR_ATmega256RFR2__) \
1304:/usr/local/Cellar/avr-gcc/9.1.0/avr/include/avr/power.h **** || defined(__AVR_ATmega324A__) \
1305:/usr/local/Cellar/avr-gcc/9.1.0/avr/include/avr/power.h **** || defined(__AVR_ATmega324P__) \
1306:/usr/local/Cellar/avr-gcc/9.1.0/avr/include/avr/power.h **** || defined(__AVR_ATmega325__) \
1307:/usr/local/Cellar/avr-gcc/9.1.0/avr/include/avr/power.h **** || defined(__AVR_ATmega325A__) \
1308:/usr/local/Cellar/avr-gcc/9.1.0/avr/include/avr/power.h **** || defined(__AVR_ATmega325PA__) \
1309:/usr/local/Cellar/avr-gcc/9.1.0/avr/include/avr/power.h **** || defined(__AVR_ATmega3250__) \
1310:/usr/local/Cellar/avr-gcc/9.1.0/avr/include/avr/power.h **** || defined(__AVR_ATmega3250A__) \
1311:/usr/local/Cellar/avr-gcc/9.1.0/avr/include/avr/power.h **** || defined(__AVR_ATmega3250PA__) \
1312:/usr/local/Cellar/avr-gcc/9.1.0/avr/include/avr/power.h **** || defined(__AVR_ATmega328__) \
1313:/usr/local/Cellar/avr-gcc/9.1.0/avr/include/avr/power.h **** || defined(__AVR_ATmega328P__) \
1314:/usr/local/Cellar/avr-gcc/9.1.0/avr/include/avr/power.h **** || defined(__AVR_ATmega329__) \
1315:/usr/local/Cellar/avr-gcc/9.1.0/avr/include/avr/power.h **** || defined(__AVR_ATmega329A__) \
1316:/usr/local/Cellar/avr-gcc/9.1.0/avr/include/avr/power.h **** || defined(__AVR_ATmega329P__) \
1317:/usr/local/Cellar/avr-gcc/9.1.0/avr/include/avr/power.h **** || defined(__AVR_ATmega329PA__) \
1318:/usr/local/Cellar/avr-gcc/9.1.0/avr/include/avr/power.h **** || defined(__AVR_ATmega3290__) \
1319:/usr/local/Cellar/avr-gcc/9.1.0/avr/include/avr/power.h **** || defined(__AVR_ATmega3290A__) \
1320:/usr/local/Cellar/avr-gcc/9.1.0/avr/include/avr/power.h **** || defined(__AVR_ATmega3290PA__) \
1321:/usr/local/Cellar/avr-gcc/9.1.0/avr/include/avr/power.h **** || defined(__AVR_ATmega32C1__) \
1322:/usr/local/Cellar/avr-gcc/9.1.0/avr/include/avr/power.h **** || defined(__AVR_ATmega32M1__) \
1323:/usr/local/Cellar/avr-gcc/9.1.0/avr/include/avr/power.h **** || defined(__AVR_ATmega32U2__) \
1324:/usr/local/Cellar/avr-gcc/9.1.0/avr/include/avr/power.h **** || defined(__AVR_ATmega32U4__) \
1325:/usr/local/Cellar/avr-gcc/9.1.0/avr/include/avr/power.h **** || defined(__AVR_ATmega32U6__) \
1326:/usr/local/Cellar/avr-gcc/9.1.0/avr/include/avr/power.h **** || defined(__AVR_ATmega48__) \
1327:/usr/local/Cellar/avr-gcc/9.1.0/avr/include/avr/power.h **** || defined(__AVR_ATmega48A__) \
1328:/usr/local/Cellar/avr-gcc/9.1.0/avr/include/avr/power.h **** || defined(__AVR_ATmega48PA__) \
1329:/usr/local/Cellar/avr-gcc/9.1.0/avr/include/avr/power.h **** || defined(__AVR_ATmega48P__) \
1330:/usr/local/Cellar/avr-gcc/9.1.0/avr/include/avr/power.h **** || defined(__AVR_ATmega640__) \
1331:/usr/local/Cellar/avr-gcc/9.1.0/avr/include/avr/power.h **** || defined(__AVR_ATmega649P__) \
1332:/usr/local/Cellar/avr-gcc/9.1.0/avr/include/avr/power.h **** || defined(__AVR_ATmega644__) \
1333:/usr/local/Cellar/avr-gcc/9.1.0/avr/include/avr/power.h **** || defined(__AVR_ATmega644A__) \
1334:/usr/local/Cellar/avr-gcc/9.1.0/avr/include/avr/power.h **** || defined(__AVR_ATmega644P__) \
1335:/usr/local/Cellar/avr-gcc/9.1.0/avr/include/avr/power.h **** || defined(__AVR_ATmega644PA__) \
1336:/usr/local/Cellar/avr-gcc/9.1.0/avr/include/avr/power.h **** || defined(__AVR_ATmega645__) \
1337:/usr/local/Cellar/avr-gcc/9.1.0/avr/include/avr/power.h **** || defined(__AVR_ATmega645A__) \
1338:/usr/local/Cellar/avr-gcc/9.1.0/avr/include/avr/power.h **** || defined(__AVR_ATmega645P__) \
1339:/usr/local/Cellar/avr-gcc/9.1.0/avr/include/avr/power.h **** || defined(__AVR_ATmega6450__) \
1340:/usr/local/Cellar/avr-gcc/9.1.0/avr/include/avr/power.h **** || defined(__AVR_ATmega6450A__) \
1341:/usr/local/Cellar/avr-gcc/9.1.0/avr/include/avr/power.h **** || defined(__AVR_ATmega6450P__) \
1342:/usr/local/Cellar/avr-gcc/9.1.0/avr/include/avr/power.h **** || defined(__AVR_ATmega649__) \
1343:/usr/local/Cellar/avr-gcc/9.1.0/avr/include/avr/power.h **** || defined(__AVR_ATmega649A__) \
1344:/usr/local/Cellar/avr-gcc/9.1.0/avr/include/avr/power.h **** || defined(__AVR_ATmega6490__) \
1345:/usr/local/Cellar/avr-gcc/9.1.0/avr/include/avr/power.h **** || defined(__AVR_ATmega6490A__) \
1346:/usr/local/Cellar/avr-gcc/9.1.0/avr/include/avr/power.h **** || defined(__AVR_ATmega6490P__) \
1347:/usr/local/Cellar/avr-gcc/9.1.0/avr/include/avr/power.h **** || defined(__AVR_ATmega644RFR2__) \
1348:/usr/local/Cellar/avr-gcc/9.1.0/avr/include/avr/power.h **** || defined(__AVR_ATmega64RFR2__) \
1349:/usr/local/Cellar/avr-gcc/9.1.0/avr/include/avr/power.h **** || defined(__AVR_ATmega88__) \
1350:/usr/local/Cellar/avr-gcc/9.1.0/avr/include/avr/power.h **** || defined(__AVR_ATmega88P__) \
1351:/usr/local/Cellar/avr-gcc/9.1.0/avr/include/avr/power.h **** || defined(__AVR_ATmega8U2__) \
1352:/usr/local/Cellar/avr-gcc/9.1.0/avr/include/avr/power.h **** || defined(__AVR_ATmega16U2__) \
1353:/usr/local/Cellar/avr-gcc/9.1.0/avr/include/avr/power.h **** || defined(__AVR_ATmega32U2__) \
1354:/usr/local/Cellar/avr-gcc/9.1.0/avr/include/avr/power.h **** || defined(__AVR_ATtiny48__) \
1355:/usr/local/Cellar/avr-gcc/9.1.0/avr/include/avr/power.h **** || defined(__AVR_ATtiny167__) \
1356:/usr/local/Cellar/avr-gcc/9.1.0/avr/include/avr/power.h **** || defined(__DOXYGEN__)
1357:/usr/local/Cellar/avr-gcc/9.1.0/avr/include/avr/power.h **** 
1358:/usr/local/Cellar/avr-gcc/9.1.0/avr/include/avr/power.h **** 
1359:/usr/local/Cellar/avr-gcc/9.1.0/avr/include/avr/power.h **** /** \addtogroup avr_power
1360:/usr/local/Cellar/avr-gcc/9.1.0/avr/include/avr/power.h **** 
1361:/usr/local/Cellar/avr-gcc/9.1.0/avr/include/avr/power.h **** Some of the newer AVRs contain a System Clock Prescale Register (CLKPR) that
1362:/usr/local/Cellar/avr-gcc/9.1.0/avr/include/avr/power.h **** allows you to decrease the system clock frequency and the power consumption
1363:/usr/local/Cellar/avr-gcc/9.1.0/avr/include/avr/power.h **** when the need for processing power is low.
1364:/usr/local/Cellar/avr-gcc/9.1.0/avr/include/avr/power.h **** On some earlier AVRs (ATmega103, ATmega64, ATmega128), similar
1365:/usr/local/Cellar/avr-gcc/9.1.0/avr/include/avr/power.h **** functionality can be achieved through the XTAL Divide Control Register.
1366:/usr/local/Cellar/avr-gcc/9.1.0/avr/include/avr/power.h **** Below are two macros and an enumerated type that can be used to
1367:/usr/local/Cellar/avr-gcc/9.1.0/avr/include/avr/power.h **** interface to the Clock Prescale Register or
1368:/usr/local/Cellar/avr-gcc/9.1.0/avr/include/avr/power.h **** XTAL Divide Control Register.
1369:/usr/local/Cellar/avr-gcc/9.1.0/avr/include/avr/power.h **** 
1370:/usr/local/Cellar/avr-gcc/9.1.0/avr/include/avr/power.h **** \note Not all AVR devices have a clock prescaler. On those devices
1371:/usr/local/Cellar/avr-gcc/9.1.0/avr/include/avr/power.h **** without a Clock Prescale Register or XTAL Divide Control Register, these
1372:/usr/local/Cellar/avr-gcc/9.1.0/avr/include/avr/power.h **** macros are not available.
1373:/usr/local/Cellar/avr-gcc/9.1.0/avr/include/avr/power.h **** */
1374:/usr/local/Cellar/avr-gcc/9.1.0/avr/include/avr/power.h **** 
1375:/usr/local/Cellar/avr-gcc/9.1.0/avr/include/avr/power.h **** 
1376:/usr/local/Cellar/avr-gcc/9.1.0/avr/include/avr/power.h **** /** \addtogroup avr_power
1377:/usr/local/Cellar/avr-gcc/9.1.0/avr/include/avr/power.h **** \code 
1378:/usr/local/Cellar/avr-gcc/9.1.0/avr/include/avr/power.h **** typedef enum
1379:/usr/local/Cellar/avr-gcc/9.1.0/avr/include/avr/power.h **** {
1380:/usr/local/Cellar/avr-gcc/9.1.0/avr/include/avr/power.h ****     clock_div_1 = 0,
1381:/usr/local/Cellar/avr-gcc/9.1.0/avr/include/avr/power.h ****     clock_div_2 = 1,
1382:/usr/local/Cellar/avr-gcc/9.1.0/avr/include/avr/power.h ****     clock_div_4 = 2,
1383:/usr/local/Cellar/avr-gcc/9.1.0/avr/include/avr/power.h ****     clock_div_8 = 3,
1384:/usr/local/Cellar/avr-gcc/9.1.0/avr/include/avr/power.h ****     clock_div_16 = 4,
1385:/usr/local/Cellar/avr-gcc/9.1.0/avr/include/avr/power.h ****     clock_div_32 = 5,
1386:/usr/local/Cellar/avr-gcc/9.1.0/avr/include/avr/power.h ****     clock_div_64 = 6,
1387:/usr/local/Cellar/avr-gcc/9.1.0/avr/include/avr/power.h ****     clock_div_128 = 7,
1388:/usr/local/Cellar/avr-gcc/9.1.0/avr/include/avr/power.h ****     clock_div_256 = 8,
1389:/usr/local/Cellar/avr-gcc/9.1.0/avr/include/avr/power.h ****     clock_div_1_rc = 15, // ATmega128RFA1 only
1390:/usr/local/Cellar/avr-gcc/9.1.0/avr/include/avr/power.h **** } clock_div_t;
1391:/usr/local/Cellar/avr-gcc/9.1.0/avr/include/avr/power.h **** \endcode
1392:/usr/local/Cellar/avr-gcc/9.1.0/avr/include/avr/power.h **** Clock prescaler setting enumerations for device using
1393:/usr/local/Cellar/avr-gcc/9.1.0/avr/include/avr/power.h **** System Clock Prescale Register.
1394:/usr/local/Cellar/avr-gcc/9.1.0/avr/include/avr/power.h **** 
1395:/usr/local/Cellar/avr-gcc/9.1.0/avr/include/avr/power.h **** \code
1396:/usr/local/Cellar/avr-gcc/9.1.0/avr/include/avr/power.h **** typedef enum
1397:/usr/local/Cellar/avr-gcc/9.1.0/avr/include/avr/power.h **** {
1398:/usr/local/Cellar/avr-gcc/9.1.0/avr/include/avr/power.h ****     clock_div_1 = 1,
1399:/usr/local/Cellar/avr-gcc/9.1.0/avr/include/avr/power.h ****     clock_div_2 = 2,
1400:/usr/local/Cellar/avr-gcc/9.1.0/avr/include/avr/power.h ****     clock_div_4 = 4,
1401:/usr/local/Cellar/avr-gcc/9.1.0/avr/include/avr/power.h ****     clock_div_8 = 8,
1402:/usr/local/Cellar/avr-gcc/9.1.0/avr/include/avr/power.h ****     clock_div_16 = 16,
1403:/usr/local/Cellar/avr-gcc/9.1.0/avr/include/avr/power.h ****     clock_div_32 = 32,
1404:/usr/local/Cellar/avr-gcc/9.1.0/avr/include/avr/power.h ****     clock_div_64 = 64,
1405:/usr/local/Cellar/avr-gcc/9.1.0/avr/include/avr/power.h ****     clock_div_128 = 128
1406:/usr/local/Cellar/avr-gcc/9.1.0/avr/include/avr/power.h **** } clock_div_t;
1407:/usr/local/Cellar/avr-gcc/9.1.0/avr/include/avr/power.h **** \endcode
1408:/usr/local/Cellar/avr-gcc/9.1.0/avr/include/avr/power.h **** Clock prescaler setting enumerations for device using
1409:/usr/local/Cellar/avr-gcc/9.1.0/avr/include/avr/power.h **** XTAL Divide Control Register.
1410:/usr/local/Cellar/avr-gcc/9.1.0/avr/include/avr/power.h **** 
1411:/usr/local/Cellar/avr-gcc/9.1.0/avr/include/avr/power.h **** */
1412:/usr/local/Cellar/avr-gcc/9.1.0/avr/include/avr/power.h **** #ifndef __DOXYGEN__
1413:/usr/local/Cellar/avr-gcc/9.1.0/avr/include/avr/power.h **** typedef enum
1414:/usr/local/Cellar/avr-gcc/9.1.0/avr/include/avr/power.h **** {
1415:/usr/local/Cellar/avr-gcc/9.1.0/avr/include/avr/power.h ****     clock_div_1 = 0,
1416:/usr/local/Cellar/avr-gcc/9.1.0/avr/include/avr/power.h ****     clock_div_2 = 1,
1417:/usr/local/Cellar/avr-gcc/9.1.0/avr/include/avr/power.h ****     clock_div_4 = 2,
1418:/usr/local/Cellar/avr-gcc/9.1.0/avr/include/avr/power.h ****     clock_div_8 = 3,
1419:/usr/local/Cellar/avr-gcc/9.1.0/avr/include/avr/power.h ****     clock_div_16 = 4,
1420:/usr/local/Cellar/avr-gcc/9.1.0/avr/include/avr/power.h ****     clock_div_32 = 5,
1421:/usr/local/Cellar/avr-gcc/9.1.0/avr/include/avr/power.h ****     clock_div_64 = 6,
1422:/usr/local/Cellar/avr-gcc/9.1.0/avr/include/avr/power.h ****     clock_div_128 = 7,
1423:/usr/local/Cellar/avr-gcc/9.1.0/avr/include/avr/power.h ****     clock_div_256 = 8
1424:/usr/local/Cellar/avr-gcc/9.1.0/avr/include/avr/power.h **** #if defined(__AVR_ATmega128RFA1__) \
1425:/usr/local/Cellar/avr-gcc/9.1.0/avr/include/avr/power.h **** || defined(__AVR_ATmega2564RFR2__) \
1426:/usr/local/Cellar/avr-gcc/9.1.0/avr/include/avr/power.h **** || defined(__AVR_ATmega1284RFR2__) \
1427:/usr/local/Cellar/avr-gcc/9.1.0/avr/include/avr/power.h **** || defined(__AVR_ATmega644RFR2__) \
1428:/usr/local/Cellar/avr-gcc/9.1.0/avr/include/avr/power.h **** || defined(__AVR_ATmega256RFR2__) \
1429:/usr/local/Cellar/avr-gcc/9.1.0/avr/include/avr/power.h **** || defined(__AVR_ATmega128RFR2__) \
1430:/usr/local/Cellar/avr-gcc/9.1.0/avr/include/avr/power.h **** || defined(__AVR_ATmega64RFR2__)
1431:/usr/local/Cellar/avr-gcc/9.1.0/avr/include/avr/power.h ****     , clock_div_1_rc = 15
1432:/usr/local/Cellar/avr-gcc/9.1.0/avr/include/avr/power.h **** #endif
1433:/usr/local/Cellar/avr-gcc/9.1.0/avr/include/avr/power.h **** } clock_div_t;
1434:/usr/local/Cellar/avr-gcc/9.1.0/avr/include/avr/power.h **** 
1435:/usr/local/Cellar/avr-gcc/9.1.0/avr/include/avr/power.h **** static __inline__ void clock_prescale_set(clock_div_t) __attribute__((__always_inline__));
1436:/usr/local/Cellar/avr-gcc/9.1.0/avr/include/avr/power.h **** #endif	/* !__DOXYGEN__ */
1437:/usr/local/Cellar/avr-gcc/9.1.0/avr/include/avr/power.h **** 
1438:/usr/local/Cellar/avr-gcc/9.1.0/avr/include/avr/power.h **** /**
1439:/usr/local/Cellar/avr-gcc/9.1.0/avr/include/avr/power.h ****    \ingroup avr_power
1440:/usr/local/Cellar/avr-gcc/9.1.0/avr/include/avr/power.h ****    \fn clock_prescale_set(clock_div_t x)
1441:/usr/local/Cellar/avr-gcc/9.1.0/avr/include/avr/power.h **** 
1442:/usr/local/Cellar/avr-gcc/9.1.0/avr/include/avr/power.h **** Set the clock prescaler register select bits, selecting a system clock
1443:/usr/local/Cellar/avr-gcc/9.1.0/avr/include/avr/power.h **** division setting. This function is inlined, even if compiler
1444:/usr/local/Cellar/avr-gcc/9.1.0/avr/include/avr/power.h **** optimizations are disabled.
1445:/usr/local/Cellar/avr-gcc/9.1.0/avr/include/avr/power.h **** 
1446:/usr/local/Cellar/avr-gcc/9.1.0/avr/include/avr/power.h **** The type of \c x is \c clock_div_t.
1447:/usr/local/Cellar/avr-gcc/9.1.0/avr/include/avr/power.h **** 
1448:/usr/local/Cellar/avr-gcc/9.1.0/avr/include/avr/power.h **** \note For device with XTAL Divide Control Register (XDIV), \c x can actually range
1449:/usr/local/Cellar/avr-gcc/9.1.0/avr/include/avr/power.h **** from 1 to 129. Thus, one does not need to use \c clock_div_t type as argument.
1450:/usr/local/Cellar/avr-gcc/9.1.0/avr/include/avr/power.h **** */
1451:/usr/local/Cellar/avr-gcc/9.1.0/avr/include/avr/power.h **** void clock_prescale_set(clock_div_t __x)
 1833               		.loc 8 1451 6 view .LVU520
 1834               	.LBB495:
1452:/usr/local/Cellar/avr-gcc/9.1.0/avr/include/avr/power.h **** {
1453:/usr/local/Cellar/avr-gcc/9.1.0/avr/include/avr/power.h ****     uint8_t __tmp = _BV(CLKPCE);
 1835               		.loc 8 1453 5 view .LVU521
1454:/usr/local/Cellar/avr-gcc/9.1.0/avr/include/avr/power.h ****     __asm__ __volatile__ (
 1836               		.loc 8 1454 5 view .LVU522
 1837 001c 80E8      		ldi r24,lo8(-128)
 1838 001e 90E0      		ldi r25,0
 1839               	/* #APP */
 1840               	 ;  1454 "/usr/local/Cellar/avr-gcc/9.1.0/avr/include/avr/power.h" 1
 1841 0020 0FB6      		in __tmp_reg__,__SREG__
 1842 0022 F894      		cli
 1843 0024 8093 6100 		sts 97, r24
 1844 0028 9093 6100 		sts 97, r25
 1845 002c 0FBE      		out __SREG__, __tmp_reg__
 1846               	 ;  0 "" 2
 1847               	.LVL90:
 1848               		.loc 8 1454 5 is_stmt 0 view .LVU523
 1849               	/* #NOAPP */
 1850               	.LBE495:
 1851               	.LBE494:
 1852               	.LBE496:
 1853               	.LBE497:
 642:../../tmk_core/protocol/lufa/lufa.c ****     host_set_driver(&lufa_driver);
 1854               		.loc 1 642 5 is_stmt 1 view .LVU524
 1855 002e 80E0      		ldi r24,lo8(gs(sendchar))
 1856 0030 90E0      		ldi r25,hi8(gs(sendchar))
 1857 0032 0E94 0000 		call print_set_sendchar
 1858               	.LVL91:
 643:../../tmk_core/protocol/lufa/lufa.c **** 
 1859               		.loc 1 643 5 view .LVU525
 1860 0036 80E0      		ldi r24,lo8(lufa_driver)
 1861 0038 90E0      		ldi r25,hi8(lufa_driver)
 1862 003a 0E94 0000 		call host_set_driver
 1863               	.LVL92:
 645:../../tmk_core/protocol/lufa/lufa.c ****     hook_early_init();
 1864               		.loc 1 645 5 view .LVU526
 1865               	.LBB498:
 645:../../tmk_core/protocol/lufa/lufa.c ****     hook_early_init();
 1866               		.loc 1 645 5 view .LVU527
 645:../../tmk_core/protocol/lufa/lufa.c ****     hook_early_init();
 1867               		.loc 1 645 5 view .LVU528
 1868               	.LBE498:
 1869 003e 80E0      		ldi r24,lo8(__c.4995)
 1870 0040 90E0      		ldi r25,hi8(__c.4995)
 1871 0042 0E94 0000 		call xputs
 1872               	.LVL93:
 646:../../tmk_core/protocol/lufa/lufa.c ****     keyboard_setup();
 1873               		.loc 1 646 5 view .LVU529
 1874 0046 0E94 0000 		call hook_early_init
 1875               	.LVL94:
 647:../../tmk_core/protocol/lufa/lufa.c ****     setup_usb();
 1876               		.loc 1 647 5 view .LVU530
 1877 004a 0E94 0000 		call keyboard_setup
 1878               	.LVL95:
 648:../../tmk_core/protocol/lufa/lufa.c **** #ifdef SLEEP_LED_ENABLE
 1879               		.loc 1 648 5 view .LVU531
 1880               	.LBB499:
 1881               	.LBI499:
 617:../../tmk_core/protocol/lufa/lufa.c **** {
 1882               		.loc 1 617 13 view .LVU532
 1883               	.LBB500:
 620:../../tmk_core/protocol/lufa/lufa.c **** 
 1884               		.loc 1 620 5 view .LVU533
 1885 004e 0E94 0000 		call USB_Disable
 1886               	.LVL96:
 622:../../tmk_core/protocol/lufa/lufa.c **** 
 1887               		.loc 1 622 5 view .LVU534
 1888 0052 0E94 0000 		call USB_Init
 1889               	.LVL97:
 624:../../tmk_core/protocol/lufa/lufa.c **** }
 1890               		.loc 1 624 5 view .LVU535
 1891               	.LBB501:
 1892               	.LBI501:
 176:../../tmk_core/protocol/lufa/LUFA-git/LUFA/Drivers/USB/Core/AVR8/../AVR8/Device_AVR8.h **** 				{
 1893               		.loc 5 176 24 view .LVU536
 1894               	.LBE501:
 1895               	.LBE500:
 1896               	.LBE499:
 1897               		.loc 5 178 6 view .LVU537
 1898               	.LBB506:
 1899               	.LBB505:
 1900               	.LBB504:
 1901               	.LBB502:
 1902               	.LBI502:
  88:../../tmk_core/protocol/lufa/LUFA-git/LUFA/Drivers/USB/Core/AVR8/../AVR8/USBInterrupt_AVR8.h **** 			{
 1903               		.loc 6 88 23 view .LVU538
 1904               	.LBB503:
  90:../../tmk_core/protocol/lufa/LUFA-git/LUFA/Drivers/USB/Core/AVR8/../AVR8/USBInterrupt_AVR8.h **** 				{
 1905               		.loc 6 90 5 view .LVU539
 113:../../tmk_core/protocol/lufa/LUFA-git/LUFA/Drivers/USB/Core/AVR8/../AVR8/USBInterrupt_AVR8.h **** 						break;
 1906               		.loc 6 113 7 view .LVU540
 113:../../tmk_core/protocol/lufa/LUFA-git/LUFA/Drivers/USB/Core/AVR8/../AVR8/USBInterrupt_AVR8.h **** 						break;
 1907               		.loc 6 113 14 is_stmt 0 view .LVU541
 1908 0056 8091 E200 		lds r24,226
 1909 005a 8460      		ori r24,lo8(4)
 1910 005c 8093 E200 		sts 226,r24
 1911               		.loc 6 114 7 is_stmt 1 view .LVU542
 1912               	.LVL98:
 1913               		.loc 6 114 7 is_stmt 0 view .LVU543
 1914               	.LBE503:
 1915               	.LBE502:
 1916               	.LBE504:
 1917               	.LBE505:
 1918               	.LBE506:
 653:../../tmk_core/protocol/lufa/lufa.c **** 
 1919               		.loc 1 653 5 is_stmt 1 view .LVU544
 1920               	/* #APP */
 1921               	 ;  653 "../../tmk_core/protocol/lufa/lufa.c" 1
 1922 0060 7894      		sei
 1923               	 ;  0 "" 2
 655:../../tmk_core/protocol/lufa/lufa.c **** 
 1924               		.loc 1 655 5 view .LVU545
 1925               	/* #NOAPP */
 1926 0062 0E94 0000 		call keyboard_init
 1927               	.LVL99:
 659:../../tmk_core/protocol/lufa/lufa.c **** #if defined(INTERRUPT_CONTROL_ENDPOINT)
 1928               		.loc 1 659 5 view .LVU546
 1929               	.L122:
 659:../../tmk_core/protocol/lufa/lufa.c **** #if defined(INTERRUPT_CONTROL_ENDPOINT)
 1930               		.loc 1 659 28 is_stmt 0 view .LVU547
 1931 0066 8091 0000 		lds r24,USB_DeviceState
 659:../../tmk_core/protocol/lufa/lufa.c **** #if defined(INTERRUPT_CONTROL_ENDPOINT)
 1932               		.loc 1 659 11 view .LVU548
 1933 006a 8430      		cpi r24,lo8(4)
 1934 006c 01F0      		breq .+2
 1935 006e 00C0      		rjmp .L123
 667:../../tmk_core/protocol/lufa/lufa.c **** #endif
 1936               		.loc 1 667 5 is_stmt 1 view .LVU549
 1937               	.LBB507:
 667:../../tmk_core/protocol/lufa/lufa.c **** #endif
 1938               		.loc 1 667 5 view .LVU550
 667:../../tmk_core/protocol/lufa/lufa.c **** #endif
 1939               		.loc 1 667 5 view .LVU551
 1940               	.LBE507:
 1941 0070 80E0      		ldi r24,lo8(__c.5000)
 1942 0072 90E0      		ldi r25,hi8(__c.5000)
 1943 0074 0E94 0000 		call xputs
 1944               	.LVL100:
 670:../../tmk_core/protocol/lufa/lufa.c **** 
 1945               		.loc 1 670 5 view .LVU552
 1946 0078 0E94 0000 		call hook_late_init
 1947               	.LVL101:
 672:../../tmk_core/protocol/lufa/lufa.c ****     while (1) {
 1948               		.loc 1 672 5 view .LVU553
 1949               	.LBB508:
 672:../../tmk_core/protocol/lufa/lufa.c ****     while (1) {
 1950               		.loc 1 672 5 view .LVU554
 672:../../tmk_core/protocol/lufa/lufa.c ****     while (1) {
 1951               		.loc 1 672 5 view .LVU555
 1952               	.LBE508:
 1953 007c 80E0      		ldi r24,lo8(__c.5002)
 1954 007e 90E0      		ldi r25,hi8(__c.5002)
 1955 0080 0E94 0000 		call xputs
 1956               	.LVL102:
 1957               	.LBB509:
 1958               	.LBB510:
 1959               	.LBB511:
 1960               	.LBB512:
 1961               	.LBB513:
 1962               	.LBB514:
 270:../../tmk_core/protocol/lufa/LUFA-git/LUFA/Drivers/USB/Core/AVR8/../AVR8/Endpoint_AVR8.h **** 				#endif
 1963               		.loc 2 270 12 is_stmt 0 view .LVU556
 1964 0084 C4E0      		ldi r28,lo8(4)
 1965               	.L124:
 1966               	.LBE514:
 1967               	.LBE513:
 1968               	.LBE512:
 1969               	.LBE511:
 1970               	.LBE510:
 1971               	.LBE509:
 675:../../tmk_core/protocol/lufa/lufa.c ****             hook_usb_suspend_loop();
 1972               		.loc 1 675 32 view .LVU557
 1973 0086 8091 0000 		lds r24,USB_DeviceState
 675:../../tmk_core/protocol/lufa/lufa.c ****             hook_usb_suspend_loop();
 1974               		.loc 1 675 15 view .LVU558
 1975 008a 8530      		cpi r24,lo8(5)
 1976 008c 01F0      		breq .L125
 680:../../tmk_core/protocol/lufa/lufa.c **** 
 1977               		.loc 1 680 9 is_stmt 1 view .LVU559
 1978 008e 0E94 0000 		call keyboard_task
 1979               	.LVL103:
 683:../../tmk_core/protocol/lufa/lufa.c **** #endif
 1980               		.loc 1 683 9 view .LVU560
 1981               	.LBB566:
 1982               	.LBI509:
 201:../../tmk_core/protocol/lufa/lufa.c **** {
 1983               		.loc 1 201 13 view .LVU561
 1984               	.LBB563:
 203:../../tmk_core/protocol/lufa/lufa.c ****     if (fn == USB_Device_GetFrameNumber()) {
 1985               		.loc 1 203 5 view .LVU562
 204:../../tmk_core/protocol/lufa/lufa.c ****         return;
 1986               		.loc 1 204 5 view .LVU563
 1987               	.LBB556:
 1988               	.LBI556:
 163:../../tmk_core/protocol/lufa/LUFA-git/LUFA/Drivers/USB/Core/AVR8/../AVR8/Device_AVR8.h **** 			{
 1989               		.loc 5 163 27 view .LVU564
 1990               	.LBB557:
 165:../../tmk_core/protocol/lufa/LUFA-git/LUFA/Drivers/USB/Core/AVR8/../AVR8/Device_AVR8.h **** 			}
 1991               		.loc 5 165 5 view .LVU565
 165:../../tmk_core/protocol/lufa/LUFA-git/LUFA/Drivers/USB/Core/AVR8/../AVR8/Device_AVR8.h **** 			}
 1992               		.loc 5 165 12 is_stmt 0 view .LVU566
 1993 0092 2091 E400 		lds r18,228
 1994 0096 3091 E500 		lds r19,228+1
 1995               	.LBE557:
 1996               	.LBE556:
 204:../../tmk_core/protocol/lufa/lufa.c ****         return;
 1997               		.loc 1 204 8 view .LVU567
 1998 009a 8091 0000 		lds r24,fn.4902
 1999 009e 9091 0000 		lds r25,fn.4902+1
 2000 00a2 2817      		cp r18,r24
 2001 00a4 3907      		cpc r19,r25
 2002 00a6 01F0      		breq .L124
 207:../../tmk_core/protocol/lufa/lufa.c ****     console_flush();
 2003               		.loc 1 207 5 is_stmt 1 view .LVU568
 2004               	.LBB558:
 2005               	.LBI558:
 163:../../tmk_core/protocol/lufa/LUFA-git/LUFA/Drivers/USB/Core/AVR8/../AVR8/Device_AVR8.h **** 			{
 2006               		.loc 5 163 27 view .LVU569
 2007               	.LBB559:
 165:../../tmk_core/protocol/lufa/LUFA-git/LUFA/Drivers/USB/Core/AVR8/../AVR8/Device_AVR8.h **** 			}
 2008               		.loc 5 165 5 view .LVU570
 165:../../tmk_core/protocol/lufa/LUFA-git/LUFA/Drivers/USB/Core/AVR8/../AVR8/Device_AVR8.h **** 			}
 2009               		.loc 5 165 12 is_stmt 0 view .LVU571
 2010 00a8 8091 E400 		lds r24,228
 2011 00ac 9091 E500 		lds r25,228+1
 2012               	.LBE559:
 2013               	.LBE558:
 207:../../tmk_core/protocol/lufa/lufa.c ****     console_flush();
 2014               		.loc 1 207 8 view .LVU572
 2015 00b0 9093 0000 		sts fn.4902+1,r25
 2016 00b4 8093 0000 		sts fn.4902,r24
 208:../../tmk_core/protocol/lufa/lufa.c **** }
 2017               		.loc 1 208 5 is_stmt 1 view .LVU573
 2018               	.LBB560:
 2019               	.LBI511:
 163:../../tmk_core/protocol/lufa/lufa.c **** {
 2020               		.loc 1 163 13 view .LVU574
 2021               	.LBB553:
 165:../../tmk_core/protocol/lufa/lufa.c ****         return;
 2022               		.loc 1 165 5 view .LVU575
 165:../../tmk_core/protocol/lufa/lufa.c ****         return;
 2023               		.loc 1 165 10 is_stmt 0 view .LVU576
 2024 00b8 0E94 0000 		call console_is_ready
 2025               	.LVL104:
 165:../../tmk_core/protocol/lufa/lufa.c ****         return;
 2026               		.loc 1 165 8 view .LVU577
 2027 00bc 8823      		tst r24
 2028 00be 01F0      		breq .L124
 168:../../tmk_core/protocol/lufa/lufa.c ****         return;
 2029               		.loc 1 168 5 is_stmt 1 view .LVU578
 168:../../tmk_core/protocol/lufa/lufa.c ****         return;
 2030               		.loc 1 168 25 is_stmt 0 view .LVU579
 2031 00c0 8091 0000 		lds r24,USB_DeviceState
 168:../../tmk_core/protocol/lufa/lufa.c ****         return;
 2032               		.loc 1 168 8 view .LVU580
 2033 00c4 8430      		cpi r24,lo8(4)
 2034 00c6 01F4      		brne .L124
 171:../../tmk_core/protocol/lufa/lufa.c **** 
 2035               		.loc 1 171 5 is_stmt 1 view .LVU581
 2036               	.LBB516:
 2037               	.LBI516:
 250:../../tmk_core/protocol/lufa/LUFA-git/LUFA/Drivers/USB/Core/AVR8/../AVR8/Endpoint_AVR8.h **** 			{
 2038               		.loc 2 250 26 view .LVU582
 2039               	.LBB517:
 253:../../tmk_core/protocol/lufa/LUFA-git/LUFA/Drivers/USB/Core/AVR8/../AVR8/Endpoint_AVR8.h **** 				#else
 2040               		.loc 2 253 6 view .LVU583
 253:../../tmk_core/protocol/lufa/LUFA-git/LUFA/Drivers/USB/Core/AVR8/../AVR8/Endpoint_AVR8.h **** 				#else
 2041               		.loc 2 253 15 is_stmt 0 view .LVU584
 2042 00c8 9091 E900 		lds r25,233
 253:../../tmk_core/protocol/lufa/LUFA-git/LUFA/Drivers/USB/Core/AVR8/../AVR8/Endpoint_AVR8.h **** 				#else
 2043               		.loc 2 253 21 view .LVU585
 2044 00cc 9F70      		andi r25,lo8(15)
 2045               	.LBB518:
 2046               	.LBI518:
 238:../../tmk_core/protocol/lufa/LUFA-git/LUFA/Drivers/USB/Core/AVR8/../AVR8/Endpoint_AVR8.h **** 			{
 2047               		.loc 2 238 26 is_stmt 1 view .LVU586
 2048               	.LBB519:
 240:../../tmk_core/protocol/lufa/LUFA-git/LUFA/Drivers/USB/Core/AVR8/../AVR8/Endpoint_AVR8.h **** 			}
 2049               		.loc 2 240 5 view .LVU587
 240:../../tmk_core/protocol/lufa/LUFA-git/LUFA/Drivers/USB/Core/AVR8/../AVR8/Endpoint_AVR8.h **** 			}
 2050               		.loc 2 240 13 is_stmt 0 view .LVU588
 2051 00ce 2091 EC00 		lds r18,236
 240:../../tmk_core/protocol/lufa/LUFA-git/LUFA/Drivers/USB/Core/AVR8/../AVR8/Endpoint_AVR8.h **** 			}
 2052               		.loc 2 240 55 view .LVU589
 2053 00d2 822F      		mov r24,r18
 2054 00d4 8170      		andi r24,lo8(1)
 2055 00d6 20FD      		sbrc r18,0
 2056 00d8 80E8      		ldi r24,lo8(-128)
 2057               	.L129:
 2058               	.LBE519:
 2059               	.LBE518:
 253:../../tmk_core/protocol/lufa/LUFA-git/LUFA/Drivers/USB/Core/AVR8/../AVR8/Endpoint_AVR8.h **** 				#else
 2060               		.loc 2 253 44 view .LVU590
 2061 00da 892B      		or r24,r25
 2062               	.LVL105:
 253:../../tmk_core/protocol/lufa/LUFA-git/LUFA/Drivers/USB/Core/AVR8/../AVR8/Endpoint_AVR8.h **** 				#else
 2063               		.loc 2 253 44 view .LVU591
 2064               	.LBE517:
 2065               	.LBE516:
 173:../../tmk_core/protocol/lufa/lufa.c ****     if (!Endpoint_IsEnabled() || !Endpoint_IsConfigured()) {
 2066               		.loc 1 173 5 is_stmt 1 view .LVU592
 2067               	.LBB520:
 2068               	.LBI513:
 267:../../tmk_core/protocol/lufa/LUFA-git/LUFA/Drivers/USB/Core/AVR8/../AVR8/Endpoint_AVR8.h **** 			{
 2069               		.loc 2 267 23 view .LVU593
 2070               	.LBB515:
 270:../../tmk_core/protocol/lufa/LUFA-git/LUFA/Drivers/USB/Core/AVR8/../AVR8/Endpoint_AVR8.h **** 				#endif
 2071               		.loc 2 270 6 view .LVU594
 270:../../tmk_core/protocol/lufa/LUFA-git/LUFA/Drivers/USB/Core/AVR8/../AVR8/Endpoint_AVR8.h **** 				#endif
 2072               		.loc 2 270 12 is_stmt 0 view .LVU595
 2073 00dc C093 E900 		sts 233,r28
 2074               	.LVL106:
 270:../../tmk_core/protocol/lufa/LUFA-git/LUFA/Drivers/USB/Core/AVR8/../AVR8/Endpoint_AVR8.h **** 				#endif
 2075               		.loc 2 270 12 view .LVU596
 2076               	.LBE515:
 2077               	.LBE520:
 174:../../tmk_core/protocol/lufa/lufa.c ****         Endpoint_SelectEndpoint(ep);
 2078               		.loc 1 174 5 is_stmt 1 view .LVU597
 2079               	.LBB521:
 2080               	.LBI521:
 311:../../tmk_core/protocol/lufa/LUFA-git/LUFA/Drivers/USB/Core/AVR8/../AVR8/Endpoint_AVR8.h **** 			{
 2081               		.loc 2 311 23 view .LVU598
 2082               	.LBB522:
 313:../../tmk_core/protocol/lufa/LUFA-git/LUFA/Drivers/USB/Core/AVR8/../AVR8/Endpoint_AVR8.h **** 			}
 2083               		.loc 2 313 5 view .LVU599
 313:../../tmk_core/protocol/lufa/LUFA-git/LUFA/Drivers/USB/Core/AVR8/../AVR8/Endpoint_AVR8.h **** 			}
 2084               		.loc 2 313 14 is_stmt 0 view .LVU600
 2085 00e0 9091 EB00 		lds r25,235
 2086               	.LBE522:
 2087               	.LBE521:
 174:../../tmk_core/protocol/lufa/lufa.c ****         Endpoint_SelectEndpoint(ep);
 2088               		.loc 1 174 8 view .LVU601
 2089 00e4 90FF      		sbrs r25,0
 2090 00e6 00C0      		rjmp .L135
 2091               	.LBB523:
 2092               	.LBI523:
 368:../../tmk_core/protocol/lufa/LUFA-git/LUFA/Drivers/USB/Core/AVR8/../AVR8/Endpoint_AVR8.h **** 			{
 2093               		.loc 2 368 23 is_stmt 1 view .LVU602
 2094               	.LBB524:
 370:../../tmk_core/protocol/lufa/LUFA-git/LUFA/Drivers/USB/Core/AVR8/../AVR8/Endpoint_AVR8.h **** 			}
 2095               		.loc 2 370 5 view .LVU603
 370:../../tmk_core/protocol/lufa/LUFA-git/LUFA/Drivers/USB/Core/AVR8/../AVR8/Endpoint_AVR8.h **** 			}
 2096               		.loc 2 370 14 is_stmt 0 view .LVU604
 2097 00e8 9091 EE00 		lds r25,238
 2098               	.LBE524:
 2099               	.LBE523:
 174:../../tmk_core/protocol/lufa/lufa.c ****         Endpoint_SelectEndpoint(ep);
 2100               		.loc 1 174 31 view .LVU605
 2101 00ec 97FD      		sbrc r25,7
 2102 00ee 00C0      		rjmp .L131
 2103               	.L135:
 198:../../tmk_core/protocol/lufa/lufa.c **** }
 2104               		.loc 1 198 5 is_stmt 1 view .LVU606
 2105               	.LVL107:
 2106               	.LBB525:
 2107               	.LBI525:
 267:../../tmk_core/protocol/lufa/LUFA-git/LUFA/Drivers/USB/Core/AVR8/../AVR8/Endpoint_AVR8.h **** 			{
 2108               		.loc 2 267 23 view .LVU607
 2109               	.LBB526:
 270:../../tmk_core/protocol/lufa/LUFA-git/LUFA/Drivers/USB/Core/AVR8/../AVR8/Endpoint_AVR8.h **** 				#endif
 2110               		.loc 2 270 6 view .LVU608
 270:../../tmk_core/protocol/lufa/LUFA-git/LUFA/Drivers/USB/Core/AVR8/../AVR8/Endpoint_AVR8.h **** 				#endif
 2111               		.loc 2 270 23 is_stmt 0 view .LVU609
 2112 00f0 8F70      		andi r24,lo8(15)
 2113               	.LVL108:
 270:../../tmk_core/protocol/lufa/LUFA-git/LUFA/Drivers/USB/Core/AVR8/../AVR8/Endpoint_AVR8.h **** 				#endif
 2114               		.loc 2 270 12 view .LVU610
 2115 00f2 8093 E900 		sts 233,r24
 272:../../tmk_core/protocol/lufa/LUFA-git/LUFA/Drivers/USB/Core/AVR8/../AVR8/Endpoint_AVR8.h **** 
 2116               		.loc 2 272 4 view .LVU611
 2117 00f6 00C0      		rjmp .L124
 2118               	.L123:
 272:../../tmk_core/protocol/lufa/LUFA-git/LUFA/Drivers/USB/Core/AVR8/../AVR8/Endpoint_AVR8.h **** 
 2119               		.loc 2 272 4 view .LVU612
 2120               	.LBE526:
 2121               	.LBE525:
 2122               	.LBE553:
 2123               	.LBE560:
 2124               	.LBE563:
 2125               	.LBE566:
 661:../../tmk_core/protocol/lufa/lufa.c **** #else
 2126               		.loc 1 661 9 is_stmt 1 view .LVU613
 665:../../tmk_core/protocol/lufa/lufa.c ****     }
 2127               		.loc 1 665 9 view .LVU614
 2128 00f8 0E94 0000 		call hook_usb_startup_wait_loop
 2129               	.LVL109:
 2130 00fc 00C0      		rjmp .L122
 2131               	.L125:
 676:../../tmk_core/protocol/lufa/lufa.c ****         }
 2132               		.loc 1 676 13 view .LVU615
 2133 00fe 0E94 0000 		call hook_usb_suspend_loop
 2134               	.LVL110:
 2135 0102 00C0      		rjmp .L124
 2136               	.LVL111:
 2137               	.L134:
 2138               	.LBB567:
 2139               	.LBB564:
 2140               	.LBB561:
 2141               	.LBB554:
 181:../../tmk_core/protocol/lufa/lufa.c **** 
 2142               		.loc 1 181 9 view .LVU616
 2143               	.LBB527:
 2144               	.LBI527:
  30:../../tmk_core/common/ringbuf.h **** {
 2145               		.loc 4 30 23 view .LVU617
 2146               	.LBB528:
  32:../../tmk_core/common/ringbuf.h ****     uint8_t data = buf->buffer[buf->tail];
 2147               		.loc 4 32 5 view .LVU618
  32:../../tmk_core/common/ringbuf.h ****     uint8_t data = buf->buffer[buf->tail];
 2148               		.loc 4 32 5 is_stmt 0 view .LVU619
 2149               	.LBE528:
 2150               	.LBE527:
 2151               	.LBE554:
 2152               	.LBE561:
 2153               	.LBE564:
 2154               	.LBE567:
  62:../../tmk_core/common/ringbuf.h **** }
 2155               		.loc 4 62 5 is_stmt 1 view .LVU620
 2156               	.LBB568:
 2157               	.LBB565:
 2158               	.LBB562:
 2159               	.LBB555:
 2160               	.LBB530:
 2161               	.LBB529:
  33:../../tmk_core/common/ringbuf.h ****     buf->tail++;
 2162               		.loc 4 33 5 view .LVU621
  33:../../tmk_core/common/ringbuf.h ****     buf->tail++;
 2163               		.loc 4 33 13 is_stmt 0 view .LVU622
 2164 0104 E091 0000 		lds r30,sendbuf
 2165 0108 F091 0000 		lds r31,sendbuf+1
 2166 010c E90F      		add r30,r25
 2167 010e F11D      		adc r31,__zero_reg__
 2168 0110 2081      		ld r18,Z
 2169               	.LVL112:
  34:../../tmk_core/common/ringbuf.h ****     buf->tail &= buf->size_mask;
 2170               		.loc 4 34 5 is_stmt 1 view .LVU623
  35:../../tmk_core/common/ringbuf.h ****     return  data;
 2171               		.loc 4 35 5 view .LVU624
  34:../../tmk_core/common/ringbuf.h ****     buf->tail &= buf->size_mask;
 2172               		.loc 4 34 14 is_stmt 0 view .LVU625
 2173 0112 9F5F      		subi r25,lo8(-(1))
  35:../../tmk_core/common/ringbuf.h ****     return  data;
 2174               		.loc 4 35 15 view .LVU626
 2175 0114 3091 0000 		lds r19,sendbuf+4
 2176 0118 9323      		and r25,r19
 2177 011a 9093 0000 		sts sendbuf+3,r25
  36:../../tmk_core/common/ringbuf.h **** }
 2178               		.loc 4 36 5 is_stmt 1 view .LVU627
 2179               	.LVL113:
  36:../../tmk_core/common/ringbuf.h **** }
 2180               		.loc 4 36 5 is_stmt 0 view .LVU628
 2181               	.LBE529:
 2182               	.LBE530:
 2183               	.LBB531:
 2184               	.LBI531:
 552:../../tmk_core/protocol/lufa/LUFA-git/LUFA/Drivers/USB/Core/AVR8/../AVR8/Endpoint_AVR8.h **** 			{
 2185               		.loc 2 552 23 is_stmt 1 view .LVU629
 2186               	.LBB532:
 2187               		.loc 2 554 5 view .LVU630
 2188               		.loc 2 554 12 is_stmt 0 view .LVU631
 2189 011e 2093 F100 		sts 241,r18
 2190               	.LVL114:
 2191               		.loc 2 554 12 view .LVU632
 2192               	.LBE532:
 2193               	.LBE531:
 184:../../tmk_core/protocol/lufa/lufa.c ****             Endpoint_ClearIN();
 2194               		.loc 1 184 9 is_stmt 1 view .LVU633
 2195               	.LBB533:
 2196               	.LBI533:
 358:../../tmk_core/protocol/lufa/LUFA-git/LUFA/Drivers/USB/Core/AVR8/../AVR8/Endpoint_AVR8.h **** 			{
 2197               		.loc 2 358 23 view .LVU634
 2198               	.LBB534:
 360:../../tmk_core/protocol/lufa/LUFA-git/LUFA/Drivers/USB/Core/AVR8/../AVR8/Endpoint_AVR8.h **** 			}
 2199               		.loc 2 360 5 view .LVU635
 360:../../tmk_core/protocol/lufa/LUFA-git/LUFA/Drivers/USB/Core/AVR8/../AVR8/Endpoint_AVR8.h **** 			}
 2200               		.loc 2 360 14 is_stmt 0 view .LVU636
 2201 0122 9091 E800 		lds r25,232
 2202               	.LBE534:
 2203               	.LBE533:
 184:../../tmk_core/protocol/lufa/lufa.c ****             Endpoint_ClearIN();
 2204               		.loc 1 184 12 view .LVU637
 2205 0126 95FD      		sbrc r25,5
 2206 0128 00C0      		rjmp .L131
 2207               	.LBB535:
 2208               	.LBI535:
 405:../../tmk_core/protocol/lufa/LUFA-git/LUFA/Drivers/USB/Core/AVR8/../AVR8/Endpoint_AVR8.h **** 			{
 2209               		.loc 2 405 23 is_stmt 1 view .LVU638
 2210               	.LBB536:
 407:../../tmk_core/protocol/lufa/LUFA-git/LUFA/Drivers/USB/Core/AVR8/../AVR8/Endpoint_AVR8.h **** 			}
 2211               		.loc 2 407 5 view .LVU639
 407:../../tmk_core/protocol/lufa/LUFA-git/LUFA/Drivers/USB/Core/AVR8/../AVR8/Endpoint_AVR8.h **** 			}
 2212               		.loc 2 407 14 is_stmt 0 view .LVU640
 2213 012a 9091 E800 		lds r25,232
 2214               	.LBE536:
 2215               	.LBE535:
 184:../../tmk_core/protocol/lufa/lufa.c ****             Endpoint_ClearIN();
 2216               		.loc 1 184 44 view .LVU641
 2217 012e 90FF      		sbrs r25,0
 2218 0130 00C0      		rjmp .L131
 185:../../tmk_core/protocol/lufa/lufa.c ****         }
 2219               		.loc 1 185 13 is_stmt 1 view .LVU642
 2220               	.LBB537:
 2221               	.LBI537:
 453:../../tmk_core/protocol/lufa/LUFA-git/LUFA/Drivers/USB/Core/AVR8/../AVR8/Endpoint_AVR8.h **** 			{
 2222               		.loc 2 453 23 view .LVU643
 2223               	.LBB538:
 456:../../tmk_core/protocol/lufa/LUFA-git/LUFA/Drivers/USB/Core/AVR8/../AVR8/Endpoint_AVR8.h **** 				#else
 2224               		.loc 2 456 6 view .LVU644
 456:../../tmk_core/protocol/lufa/LUFA-git/LUFA/Drivers/USB/Core/AVR8/../AVR8/Endpoint_AVR8.h **** 				#else
 2225               		.loc 2 456 13 is_stmt 0 view .LVU645
 2226 0132 9091 E800 		lds r25,232
 2227 0136 9E77      		andi r25,lo8(126)
 2228 0138 9093 E800 		sts 232,r25
 2229               	.L131:
 2230               	.LVL115:
 456:../../tmk_core/protocol/lufa/LUFA-git/LUFA/Drivers/USB/Core/AVR8/../AVR8/Endpoint_AVR8.h **** 				#else
 2231               		.loc 2 456 13 view .LVU646
 2232               	.LBE538:
 2233               	.LBE537:
 2234               	.LBB539:
 2235               	.LBI539:
  60:../../tmk_core/common/ringbuf.h **** {
 2236               		.loc 4 60 20 is_stmt 1 view .LVU647
 2237               	.LBB540:
  62:../../tmk_core/common/ringbuf.h **** }
 2238               		.loc 4 62 5 view .LVU648
  62:../../tmk_core/common/ringbuf.h **** }
 2239               		.loc 4 62 29 is_stmt 0 view .LVU649
 2240 013c 9091 0000 		lds r25,sendbuf+3
 2241               	.LVL116:
  62:../../tmk_core/common/ringbuf.h **** }
 2242               		.loc 4 62 29 view .LVU650
 2243               	.LBE540:
 2244               	.LBE539:
 180:../../tmk_core/protocol/lufa/lufa.c ****         Endpoint_Write_8(ringbuf_get(&sendbuf));
 2245               		.loc 1 180 11 view .LVU651
 2246 0140 2091 0000 		lds r18,sendbuf+2
 2247 0144 2917      		cp r18,r25
 2248 0146 01F0      		breq .L133
 2249               	.LBB541:
 2250               	.LBI541:
 358:../../tmk_core/protocol/lufa/LUFA-git/LUFA/Drivers/USB/Core/AVR8/../AVR8/Endpoint_AVR8.h **** 			{
 2251               		.loc 2 358 23 is_stmt 1 view .LVU652
 2252               	.LBB542:
 360:../../tmk_core/protocol/lufa/LUFA-git/LUFA/Drivers/USB/Core/AVR8/../AVR8/Endpoint_AVR8.h **** 			}
 2253               		.loc 2 360 5 view .LVU653
 360:../../tmk_core/protocol/lufa/LUFA-git/LUFA/Drivers/USB/Core/AVR8/../AVR8/Endpoint_AVR8.h **** 			}
 2254               		.loc 2 360 14 is_stmt 0 view .LVU654
 2255 0148 2091 E800 		lds r18,232
 2256               	.LBE542:
 2257               	.LBE541:
 180:../../tmk_core/protocol/lufa/lufa.c ****         Endpoint_Write_8(ringbuf_get(&sendbuf));
 2258               		.loc 1 180 40 view .LVU655
 2259 014c 25FD      		sbrc r18,5
 2260 014e 00C0      		rjmp .L134
 2261               	.L133:
 190:../../tmk_core/protocol/lufa/lufa.c ****         // Windows needs to fill packet with 0
 2262               		.loc 1 190 5 is_stmt 1 view .LVU656
 2263               	.LBB543:
 2264               	.LBI543:
 222:../../tmk_core/protocol/lufa/LUFA-git/LUFA/Drivers/USB/Core/AVR8/../AVR8/Endpoint_AVR8.h **** 			{
 2265               		.loc 2 222 27 view .LVU657
 2266               	.LBB544:
 229:../../tmk_core/protocol/lufa/LUFA-git/LUFA/Drivers/USB/Core/AVR8/../AVR8/Endpoint_AVR8.h **** 				#endif
 2267               		.loc 2 229 6 view .LVU658
 229:../../tmk_core/protocol/lufa/LUFA-git/LUFA/Drivers/USB/Core/AVR8/../AVR8/Endpoint_AVR8.h **** 				#endif
 2268               		.loc 2 229 13 is_stmt 0 view .LVU659
 2269 0150 9091 F200 		lds r25,242
 2270               	.LBE544:
 2271               	.LBE543:
 190:../../tmk_core/protocol/lufa/lufa.c ****         // Windows needs to fill packet with 0
 2272               		.loc 1 190 8 view .LVU660
 2273 0154 9923      		tst r25
 2274 0156 01F0      		breq .L135
 2275               	.LBB545:
 2276               	.LBI545:
 405:../../tmk_core/protocol/lufa/LUFA-git/LUFA/Drivers/USB/Core/AVR8/../AVR8/Endpoint_AVR8.h **** 			{
 2277               		.loc 2 405 23 is_stmt 1 view .LVU661
 2278               	.LBB546:
 407:../../tmk_core/protocol/lufa/LUFA-git/LUFA/Drivers/USB/Core/AVR8/../AVR8/Endpoint_AVR8.h **** 			}
 2279               		.loc 2 407 5 view .LVU662
 407:../../tmk_core/protocol/lufa/LUFA-git/LUFA/Drivers/USB/Core/AVR8/../AVR8/Endpoint_AVR8.h **** 			}
 2280               		.loc 2 407 14 is_stmt 0 view .LVU663
 2281 0158 9091 E800 		lds r25,232
 2282               	.LBE546:
 2283               	.LBE545:
 190:../../tmk_core/protocol/lufa/lufa.c ****         // Windows needs to fill packet with 0
 2284               		.loc 1 190 36 view .LVU664
 2285 015c 90FF      		sbrs r25,0
 2286 015e 00C0      		rjmp .L135
 2287               	.L136:
 2288               	.LBB547:
 2289               	.LBI547:
 358:../../tmk_core/protocol/lufa/LUFA-git/LUFA/Drivers/USB/Core/AVR8/../AVR8/Endpoint_AVR8.h **** 			{
 2290               		.loc 2 358 23 is_stmt 1 view .LVU665
 2291               	.LBB548:
 360:../../tmk_core/protocol/lufa/LUFA-git/LUFA/Drivers/USB/Core/AVR8/../AVR8/Endpoint_AVR8.h **** 			}
 2292               		.loc 2 360 5 view .LVU666
 360:../../tmk_core/protocol/lufa/LUFA-git/LUFA/Drivers/USB/Core/AVR8/../AVR8/Endpoint_AVR8.h **** 			}
 2293               		.loc 2 360 14 is_stmt 0 view .LVU667
 2294 0160 9091 E800 		lds r25,232
 2295               	.LBE548:
 2296               	.LBE547:
 192:../../tmk_core/protocol/lufa/lufa.c ****                 Endpoint_Write_8(0);
 2297               		.loc 1 192 15 view .LVU668
 2298 0164 95FD      		sbrc r25,5
 2299 0166 00C0      		rjmp .L137
 195:../../tmk_core/protocol/lufa/lufa.c ****     }
 2300               		.loc 1 195 9 is_stmt 1 view .LVU669
 2301               	.LBB549:
 2302               	.LBI549:
 453:../../tmk_core/protocol/lufa/LUFA-git/LUFA/Drivers/USB/Core/AVR8/../AVR8/Endpoint_AVR8.h **** 			{
 2303               		.loc 2 453 23 view .LVU670
 2304               	.LBB550:
 456:../../tmk_core/protocol/lufa/LUFA-git/LUFA/Drivers/USB/Core/AVR8/../AVR8/Endpoint_AVR8.h **** 				#else
 2305               		.loc 2 456 6 view .LVU671
 456:../../tmk_core/protocol/lufa/LUFA-git/LUFA/Drivers/USB/Core/AVR8/../AVR8/Endpoint_AVR8.h **** 				#else
 2306               		.loc 2 456 13 is_stmt 0 view .LVU672
 2307 0168 9091 E800 		lds r25,232
 2308 016c 9E77      		andi r25,lo8(126)
 2309 016e 9093 E800 		sts 232,r25
 460:../../tmk_core/protocol/lufa/LUFA-git/LUFA/Drivers/USB/Core/AVR8/../AVR8/Endpoint_AVR8.h **** 
 2310               		.loc 2 460 4 view .LVU673
 2311 0172 00C0      		rjmp .L135
 2312               	.L137:
 2313               	.LBE550:
 2314               	.LBE549:
 193:../../tmk_core/protocol/lufa/lufa.c ****         }
 2315               		.loc 1 193 17 is_stmt 1 view .LVU674
 2316               	.LVL117:
 2317               	.LBB551:
 2318               	.LBI551:
 552:../../tmk_core/protocol/lufa/LUFA-git/LUFA/Drivers/USB/Core/AVR8/../AVR8/Endpoint_AVR8.h **** 			{
 2319               		.loc 2 552 23 view .LVU675
 2320               	.LBB552:
 2321               		.loc 2 554 5 view .LVU676
 2322               		.loc 2 554 12 is_stmt 0 view .LVU677
 2323 0174 1092 F100 		sts 241,__zero_reg__
 555:../../tmk_core/protocol/lufa/LUFA-git/LUFA/Drivers/USB/Core/AVR8/../AVR8/Endpoint_AVR8.h **** 			}
 2324               		.loc 2 555 4 view .LVU678
 2325 0178 00C0      		rjmp .L136
 2326               	.LBE552:
 2327               	.LBE551:
 2328               	.LBE555:
 2329               	.LBE562:
 2330               	.LBE565:
 2331               	.LBE568:
 2332               		.cfi_endproc
 2333               	.LFE130:
 2335               		.section	.bss.fn.4902,"aw",@nobits
 2338               	fn.4902:
 2339 0000 0000      		.zero	2
 2340               		.section	.progmem.data.__c.5002,"a"
 2343               	__c.5002:
 2344 0000 0A4B 6579 		.string	"\nKeyboard start.\n"
 2344      626F 6172 
 2344      6420 7374 
 2344      6172 742E 
 2344      0A00 
 2345               		.section	.progmem.data.__c.5000,"a"
 2348               	__c.5000:
 2349 0000 0A55 5342 		.string	"\nUSB configured.\n"
 2349      2063 6F6E 
 2349      6669 6775 
 2349      7265 642E 
 2349      0A00 
 2350               		.section	.progmem.data.__c.4995,"a"
 2353               	__c.4995:
 2354 0000 0A0A 544D 		.string	"\n\nTMK:f5e487bc/LUFA\n\n"
 2354      4B3A 6635 
 2354      6534 3837 
 2354      6263 2F4C 
 2354      5546 410A 
 2355               		.section	.bss.hid_listen_ready.4879,"aw",@nobits
 2358               	hid_listen_ready.4879:
 2359 0000 00        		.zero	1
 2360               		.section	.bss._led_stats,"aw",@nobits
 2363               	_led_stats:
 2364 0000 00        		.zero	1
 2365               		.section	.data.sendbuf,"aw"
 2368               	sendbuf:
 2369 0000 0000      		.word	sbuf
 2370 0002 00        		.byte	0
 2371 0003 00        		.byte	0
 2372 0004 FF        		.byte	-1
 2373               		.section	.bss.sbuf,"aw",@nobits
 2376               	sbuf:
 2377 0000 0000 0000 		.zero	256
 2377      0000 0000 
 2377      0000 0000 
 2377      0000 0000 
 2377      0000 0000 
 2378               	.global	lufa_driver
 2379               		.section	.data.lufa_driver,"aw"
 2382               	lufa_driver:
 2383 0000 0000      		.word	gs(keyboard_leds)
 2384 0002 0000      		.word	gs(send_keyboard)
 2385 0004 0000      		.word	gs(send_mouse)
 2386 0006 0000      		.word	gs(send_system)
 2387 0008 0000      		.word	gs(send_consumer)
 2388               		.section	.bss.keyboard_report_sent,"aw",@nobits
 2391               	keyboard_report_sent:
 2392 0000 0000 0000 		.zero	8
 2392      0000 0000 
 2393               		.section	.bss.keyboard_led_stats,"aw",@nobits
 2396               	keyboard_led_stats:
 2397 0000 00        		.zero	1
 2398               	.global	keyboard_protocol
 2399               		.section	.data.keyboard_protocol,"aw"
 2402               	keyboard_protocol:
 2403 0000 01        		.byte	1
 2404               	.global	keyboard_idle
 2405               		.section	.bss.keyboard_idle,"aw",@nobits
 2408               	keyboard_idle:
 2409 0000 00        		.zero	1
 2410               		.text
 2411               	.Letext0:
 2412               		.file 9 "/usr/local/Cellar/avr-gcc/9.1.0/avr/include/stdint.h"
 2413               		.file 10 "../../tmk_core/common/report.h"
 2414               		.file 11 "../../tmk_core/common/host_driver.h"
 2415               		.file 12 "../../tmk_core/common/host.h"
 2416               		.file 13 "../../tmk_core/common/avr/xprintf.h"
 2417               		.file 14 "../../tmk_core/common/debug.h"
 2418               		.file 15 "../../tmk_core/common/timer.h"
 2419               		.file 16 "../../tmk_core/protocol/lufa/LUFA-git/LUFA/Drivers/USB/Core/AVR8/../Device.h"
 2420               		.file 17 "../../tmk_core/protocol/lufa/LUFA-git/LUFA/Drivers/USB/Core/AVR8/../StdRequestType.h"
 2421               		.file 18 "../../tmk_core/protocol/lufa/LUFA-git/LUFA/Drivers/USB/Core/AVR8/../DeviceStandardReq.h"
 2422               		.file 19 "../../tmk_core/protocol/lufa/LUFA-git/LUFA/Drivers/USB/Core/USBTask.h"
 2423               		.file 20 "../../tmk_core/protocol/lufa/LUFA-git/LUFA/Drivers/USB/Core/HostStandardReq.h"
 2424               		.file 21 "/usr/local/Cellar/avr-gcc/9.1.0/avr/include/stdio.h"
 2425               		.file 22 "../../tmk_core/protocol/lufa/LUFA-git/LUFA/Drivers/USB/Class/Device/../Common/HIDClassCo
 2426               		.file 23 "../../tmk_core/protocol/lufa/lufa.h"
 2427               		.file 24 "../../tmk_core/common/suspend.h"
 2428               		.file 25 "../../tmk_core/common/matrix.h"
 2429               		.file 26 "../../tmk_core/common/action.h"
 2430               		.file 27 "../../tmk_core/protocol/lufa/LUFA-git/LUFA/Drivers/USB/Core/AVR8/USBController_AVR8.h"
 2431               		.file 28 "../../tmk_core/common/print.h"
 2432               		.file 29 "../../tmk_core/common/keyboard.h"
 2433               		.file 30 "../../tmk_core/protocol/lufa/LUFA-git/LUFA/Drivers/USB/Core/AVR8/../AVR8/EndpointStream_
DEFINED SYMBOLS
                            *ABS*:0000000000000000 lufa.c
/var/folders/cl/jr07md_52y31f_27z07pkw7h0000gp/T//ccR1tsc9.s:2      *ABS*:000000000000003e __SP_H__
/var/folders/cl/jr07md_52y31f_27z07pkw7h0000gp/T//ccR1tsc9.s:3      *ABS*:000000000000003d __SP_L__
/var/folders/cl/jr07md_52y31f_27z07pkw7h0000gp/T//ccR1tsc9.s:4      *ABS*:000000000000003f __SREG__
/var/folders/cl/jr07md_52y31f_27z07pkw7h0000gp/T//ccR1tsc9.s:5      *ABS*:0000000000000000 __tmp_reg__
/var/folders/cl/jr07md_52y31f_27z07pkw7h0000gp/T//ccR1tsc9.s:6      *ABS*:0000000000000001 __zero_reg__
/var/folders/cl/jr07md_52y31f_27z07pkw7h0000gp/T//ccR1tsc9.s:12     .text.keyboard_leds:0000000000000000 keyboard_leds
/var/folders/cl/jr07md_52y31f_27z07pkw7h0000gp/T//ccR1tsc9.s:2396   .bss.keyboard_led_stats:0000000000000000 keyboard_led_stats
/var/folders/cl/jr07md_52y31f_27z07pkw7h0000gp/T//ccR1tsc9.s:31     .text.send_consumer:0000000000000000 send_consumer
/var/folders/cl/jr07md_52y31f_27z07pkw7h0000gp/T//ccR1tsc9.s:179    .text.send_system:0000000000000000 send_system
/var/folders/cl/jr07md_52y31f_27z07pkw7h0000gp/T//ccR1tsc9.s:333    .text.send_mouse:0000000000000000 send_mouse
/var/folders/cl/jr07md_52y31f_27z07pkw7h0000gp/T//ccR1tsc9.s:449    .text.send_keyboard:0000000000000000 send_keyboard
/var/folders/cl/jr07md_52y31f_27z07pkw7h0000gp/T//ccR1tsc9.s:2391   .bss.keyboard_report_sent:0000000000000000 keyboard_report_sent
/var/folders/cl/jr07md_52y31f_27z07pkw7h0000gp/T//ccR1tsc9.s:595    .text.console_is_ready:0000000000000000 console_is_ready
/var/folders/cl/jr07md_52y31f_27z07pkw7h0000gp/T//ccR1tsc9.s:2358   .bss.hid_listen_ready.4879:0000000000000000 hid_listen_ready.4879
/var/folders/cl/jr07md_52y31f_27z07pkw7h0000gp/T//ccR1tsc9.s:663    .text.sendchar:0000000000000000 sendchar
/var/folders/cl/jr07md_52y31f_27z07pkw7h0000gp/T//ccR1tsc9.s:2368   .data.sendbuf:0000000000000000 sendbuf
/var/folders/cl/jr07md_52y31f_27z07pkw7h0000gp/T//ccR1tsc9.s:1038   .text.EVENT_USB_Device_Connect:0000000000000000 EVENT_USB_Device_Connect
/var/folders/cl/jr07md_52y31f_27z07pkw7h0000gp/T//ccR1tsc9.s:1093   .text.EVENT_USB_Device_Disconnect:0000000000000000 EVENT_USB_Device_Disconnect
/var/folders/cl/jr07md_52y31f_27z07pkw7h0000gp/T//ccR1tsc9.s:1113   .text.EVENT_USB_Device_Reset:0000000000000000 EVENT_USB_Device_Reset
/var/folders/cl/jr07md_52y31f_27z07pkw7h0000gp/T//ccR1tsc9.s:1130   .text.EVENT_USB_Device_StartOfFrame:0000000000000000 EVENT_USB_Device_StartOfFrame
/var/folders/cl/jr07md_52y31f_27z07pkw7h0000gp/T//ccR1tsc9.s:1145   .text.EVENT_USB_Device_ConfigurationChanged:0000000000000000 EVENT_USB_Device_ConfigurationChanged
/var/folders/cl/jr07md_52y31f_27z07pkw7h0000gp/T//ccR1tsc9.s:1264   .text.EVENT_USB_Device_ControlRequest:0000000000000000 EVENT_USB_Device_ControlRequest
/var/folders/cl/jr07md_52y31f_27z07pkw7h0000gp/T//ccR1tsc9.s:2402   .data.keyboard_protocol:0000000000000000 keyboard_protocol
/var/folders/cl/jr07md_52y31f_27z07pkw7h0000gp/T//ccR1tsc9.s:2408   .bss.keyboard_idle:0000000000000000 keyboard_idle
/var/folders/cl/jr07md_52y31f_27z07pkw7h0000gp/T//ccR1tsc9.s:1612   .text.hook_early_init:0000000000000000 hook_early_init
/var/folders/cl/jr07md_52y31f_27z07pkw7h0000gp/T//ccR1tsc9.s:1612   .text.hook_early_init:0000000000000000 hook_early_init.localalias
/var/folders/cl/jr07md_52y31f_27z07pkw7h0000gp/T//ccR1tsc9.s:1631   .text.hook_late_init:0000000000000000 hook_late_init
/var/folders/cl/jr07md_52y31f_27z07pkw7h0000gp/T//ccR1tsc9.s:1646   .text.hook_usb_suspend_entry:0000000000000000 hook_usb_suspend_entry
/var/folders/cl/jr07md_52y31f_27z07pkw7h0000gp/T//ccR1tsc9.s:2363   .bss._led_stats:0000000000000000 _led_stats
/var/folders/cl/jr07md_52y31f_27z07pkw7h0000gp/T//ccR1tsc9.s:1673   .text.EVENT_USB_Device_Suspend:0000000000000000 EVENT_USB_Device_Suspend
/var/folders/cl/jr07md_52y31f_27z07pkw7h0000gp/T//ccR1tsc9.s:1690   .text.hook_usb_suspend_loop:0000000000000000 hook_usb_suspend_loop
/var/folders/cl/jr07md_52y31f_27z07pkw7h0000gp/T//ccR1tsc9.s:1724   .text.hook_usb_wakeup:0000000000000000 hook_usb_wakeup
/var/folders/cl/jr07md_52y31f_27z07pkw7h0000gp/T//ccR1tsc9.s:1748   .text.EVENT_USB_Device_WakeUp:0000000000000000 EVENT_USB_Device_WakeUp
/var/folders/cl/jr07md_52y31f_27z07pkw7h0000gp/T//ccR1tsc9.s:1765   .text.hook_usb_startup_wait_loop:0000000000000000 hook_usb_startup_wait_loop
/var/folders/cl/jr07md_52y31f_27z07pkw7h0000gp/T//ccR1tsc9.s:1780   .text.startup.main:0000000000000000 main
/var/folders/cl/jr07md_52y31f_27z07pkw7h0000gp/T//ccR1tsc9.s:2382   .data.lufa_driver:0000000000000000 lufa_driver
/var/folders/cl/jr07md_52y31f_27z07pkw7h0000gp/T//ccR1tsc9.s:2353   .progmem.data.__c.4995:0000000000000000 __c.4995
/var/folders/cl/jr07md_52y31f_27z07pkw7h0000gp/T//ccR1tsc9.s:2348   .progmem.data.__c.5000:0000000000000000 __c.5000
/var/folders/cl/jr07md_52y31f_27z07pkw7h0000gp/T//ccR1tsc9.s:2343   .progmem.data.__c.5002:0000000000000000 __c.5002
/var/folders/cl/jr07md_52y31f_27z07pkw7h0000gp/T//ccR1tsc9.s:2338   .bss.fn.4902:0000000000000000 fn.4902
/var/folders/cl/jr07md_52y31f_27z07pkw7h0000gp/T//ccR1tsc9.s:2376   .bss.sbuf:0000000000000000 sbuf

UNDEFINED SYMBOLS
USB_DeviceState
Endpoint_Write_Stream_LE
timer_read32
USB_IsInitialized
USB_Disable
USB_Init
Endpoint_ConfigureEndpoint_Prv
USB_ControlRequest
Endpoint_Write_Control_Stream_LE
Endpoint_ClearStatusStage
clear_keyboard
matrix_clear
suspend_power_down
USB_Device_RemoteWakeupEnabled
suspend_wakeup_condition
USB_Device_SendRemoteWakeup
suspend_wakeup_init
print_set_sendchar
host_set_driver
xputs
keyboard_setup
keyboard_init
keyboard_task
__do_copy_data
__do_clear_bss
