   1               		.file	"lufa.c"
   2               	__SP_H__ = 0x3e
   3               	__SP_L__ = 0x3d
   4               	__SREG__ = 0x3f
   5               	__tmp_reg__ = 0
   6               	__zero_reg__ = 1
   7               		.text
   8               	.Ltext0:
   9               		.cfi_sections	.debug_frame
  10               		.section	.text.keyboard_leds,"ax",@progbits
  12               	keyboard_leds:
  13               	.LFB122:
  14               		.file 1 "../../tmk_core/protocol/lufa/lufa.c"
   1:../../tmk_core/protocol/lufa/lufa.c **** /*
   2:../../tmk_core/protocol/lufa/lufa.c ****  * Copyright 2012 Jun Wako <wakojun@gmail.com>
   3:../../tmk_core/protocol/lufa/lufa.c ****  * This file is based on:
   4:../../tmk_core/protocol/lufa/lufa.c ****  *     LUFA-120219/Demos/Device/Lowlevel/KeyboardMouse
   5:../../tmk_core/protocol/lufa/lufa.c ****  *     LUFA-120219/Demos/Device/Lowlevel/GenericHID
   6:../../tmk_core/protocol/lufa/lufa.c ****  */
   7:../../tmk_core/protocol/lufa/lufa.c **** 
   8:../../tmk_core/protocol/lufa/lufa.c **** /*
   9:../../tmk_core/protocol/lufa/lufa.c ****              LUFA Library
  10:../../tmk_core/protocol/lufa/lufa.c ****      Copyright (C) Dean Camera, 2012.
  11:../../tmk_core/protocol/lufa/lufa.c **** 
  12:../../tmk_core/protocol/lufa/lufa.c ****   dean [at] fourwalledcubicle [dot] com
  13:../../tmk_core/protocol/lufa/lufa.c ****            www.lufa-lib.org
  14:../../tmk_core/protocol/lufa/lufa.c **** */
  15:../../tmk_core/protocol/lufa/lufa.c **** 
  16:../../tmk_core/protocol/lufa/lufa.c **** /*
  17:../../tmk_core/protocol/lufa/lufa.c ****   Copyright 2012  Dean Camera (dean [at] fourwalledcubicle [dot] com)
  18:../../tmk_core/protocol/lufa/lufa.c ****   Copyright 2010  Denver Gingerich (denver [at] ossguy [dot] com)
  19:../../tmk_core/protocol/lufa/lufa.c **** 
  20:../../tmk_core/protocol/lufa/lufa.c ****   Permission to use, copy, modify, distribute, and sell this
  21:../../tmk_core/protocol/lufa/lufa.c ****   software and its documentation for any purpose is hereby granted
  22:../../tmk_core/protocol/lufa/lufa.c ****   without fee, provided that the above copyright notice appear in
  23:../../tmk_core/protocol/lufa/lufa.c ****   all copies and that both that the copyright notice and this
  24:../../tmk_core/protocol/lufa/lufa.c ****   permission notice and warranty disclaimer appear in supporting
  25:../../tmk_core/protocol/lufa/lufa.c ****   documentation, and that the name of the author not be used in
  26:../../tmk_core/protocol/lufa/lufa.c ****   advertising or publicity pertaining to distribution of the
  27:../../tmk_core/protocol/lufa/lufa.c ****   software without specific, written prior permission.
  28:../../tmk_core/protocol/lufa/lufa.c **** 
  29:../../tmk_core/protocol/lufa/lufa.c ****   The author disclaim all warranties with regard to this
  30:../../tmk_core/protocol/lufa/lufa.c ****   software, including all implied warranties of merchantability
  31:../../tmk_core/protocol/lufa/lufa.c ****   and fitness.  In no event shall the author be liable for any
  32:../../tmk_core/protocol/lufa/lufa.c ****   special, indirect or consequential damages or any damages
  33:../../tmk_core/protocol/lufa/lufa.c ****   whatsoever resulting from loss of use, data or profits, whether
  34:../../tmk_core/protocol/lufa/lufa.c ****   in an action of contract, negligence or other tortious action,
  35:../../tmk_core/protocol/lufa/lufa.c ****   arising out of or in connection with the use or performance of
  36:../../tmk_core/protocol/lufa/lufa.c ****   this software.
  37:../../tmk_core/protocol/lufa/lufa.c **** */
  38:../../tmk_core/protocol/lufa/lufa.c **** 
  39:../../tmk_core/protocol/lufa/lufa.c **** #include "report.h"
  40:../../tmk_core/protocol/lufa/lufa.c **** #include "host.h"
  41:../../tmk_core/protocol/lufa/lufa.c **** #include "host_driver.h"
  42:../../tmk_core/protocol/lufa/lufa.c **** #include "keyboard.h"
  43:../../tmk_core/protocol/lufa/lufa.c **** #include "action.h"
  44:../../tmk_core/protocol/lufa/lufa.c **** #include "led.h"
  45:../../tmk_core/protocol/lufa/lufa.c **** #include "sendchar.h"
  46:../../tmk_core/protocol/lufa/lufa.c **** #include "ringbuf.h"
  47:../../tmk_core/protocol/lufa/lufa.c **** #include "debug.h"
  48:../../tmk_core/protocol/lufa/lufa.c **** #ifdef SLEEP_LED_ENABLE
  49:../../tmk_core/protocol/lufa/lufa.c **** #include "sleep_led.h"
  50:../../tmk_core/protocol/lufa/lufa.c **** #endif
  51:../../tmk_core/protocol/lufa/lufa.c **** #include "suspend.h"
  52:../../tmk_core/protocol/lufa/lufa.c **** #include "hook.h"
  53:../../tmk_core/protocol/lufa/lufa.c **** #include "timer.h"
  54:../../tmk_core/protocol/lufa/lufa.c **** 
  55:../../tmk_core/protocol/lufa/lufa.c **** #ifdef LUFA_DEBUG_SUART
  56:../../tmk_core/protocol/lufa/lufa.c **** #include "avr/suart.h"
  57:../../tmk_core/protocol/lufa/lufa.c **** #endif
  58:../../tmk_core/protocol/lufa/lufa.c **** 
  59:../../tmk_core/protocol/lufa/lufa.c **** #ifdef LUFA_DEBUG_UART
  60:../../tmk_core/protocol/lufa/lufa.c **** #include "uart.h"
  61:../../tmk_core/protocol/lufa/lufa.c **** #endif
  62:../../tmk_core/protocol/lufa/lufa.c **** 
  63:../../tmk_core/protocol/lufa/lufa.c **** #include "matrix.h"
  64:../../tmk_core/protocol/lufa/lufa.c **** #include "descriptor.h"
  65:../../tmk_core/protocol/lufa/lufa.c **** #include "lufa.h"
  66:../../tmk_core/protocol/lufa/lufa.c **** 
  67:../../tmk_core/protocol/lufa/lufa.c **** 
  68:../../tmk_core/protocol/lufa/lufa.c **** //#define LUFA_DEBUG
  69:../../tmk_core/protocol/lufa/lufa.c **** 
  70:../../tmk_core/protocol/lufa/lufa.c **** 
  71:../../tmk_core/protocol/lufa/lufa.c **** uint8_t keyboard_idle = 0;
  72:../../tmk_core/protocol/lufa/lufa.c **** /* 0: Boot Protocol, 1: Report Protocol(default) */
  73:../../tmk_core/protocol/lufa/lufa.c **** uint8_t keyboard_protocol = 1;
  74:../../tmk_core/protocol/lufa/lufa.c **** static uint8_t keyboard_led_stats = 0;
  75:../../tmk_core/protocol/lufa/lufa.c **** 
  76:../../tmk_core/protocol/lufa/lufa.c **** static report_keyboard_t keyboard_report_sent;
  77:../../tmk_core/protocol/lufa/lufa.c **** 
  78:../../tmk_core/protocol/lufa/lufa.c **** 
  79:../../tmk_core/protocol/lufa/lufa.c **** /* Host driver */
  80:../../tmk_core/protocol/lufa/lufa.c **** static uint8_t keyboard_leds(void);
  81:../../tmk_core/protocol/lufa/lufa.c **** static void send_keyboard(report_keyboard_t *report);
  82:../../tmk_core/protocol/lufa/lufa.c **** static void send_mouse(report_mouse_t *report);
  83:../../tmk_core/protocol/lufa/lufa.c **** static void send_system(uint16_t data);
  84:../../tmk_core/protocol/lufa/lufa.c **** static void send_consumer(uint16_t data);
  85:../../tmk_core/protocol/lufa/lufa.c **** host_driver_t lufa_driver = {
  86:../../tmk_core/protocol/lufa/lufa.c ****     keyboard_leds,
  87:../../tmk_core/protocol/lufa/lufa.c ****     send_keyboard,
  88:../../tmk_core/protocol/lufa/lufa.c ****     send_mouse,
  89:../../tmk_core/protocol/lufa/lufa.c ****     send_system,
  90:../../tmk_core/protocol/lufa/lufa.c ****     send_consumer
  91:../../tmk_core/protocol/lufa/lufa.c **** };
  92:../../tmk_core/protocol/lufa/lufa.c **** 
  93:../../tmk_core/protocol/lufa/lufa.c **** 
  94:../../tmk_core/protocol/lufa/lufa.c **** /*******************************************************************************
  95:../../tmk_core/protocol/lufa/lufa.c ****  * Console
  96:../../tmk_core/protocol/lufa/lufa.c ****  ******************************************************************************/
  97:../../tmk_core/protocol/lufa/lufa.c **** #ifdef CONSOLE_ENABLE
  98:../../tmk_core/protocol/lufa/lufa.c **** #define SENDBUF_SIZE 256
  99:../../tmk_core/protocol/lufa/lufa.c **** static uint8_t sbuf[SENDBUF_SIZE];
 100:../../tmk_core/protocol/lufa/lufa.c **** static ringbuf_t sendbuf = {
 101:../../tmk_core/protocol/lufa/lufa.c ****     .buffer = sbuf,
 102:../../tmk_core/protocol/lufa/lufa.c ****     .head = 0,
 103:../../tmk_core/protocol/lufa/lufa.c ****     .tail = 0,
 104:../../tmk_core/protocol/lufa/lufa.c ****     .size_mask = SENDBUF_SIZE - 1
 105:../../tmk_core/protocol/lufa/lufa.c **** };
 106:../../tmk_core/protocol/lufa/lufa.c **** 
 107:../../tmk_core/protocol/lufa/lufa.c **** // TODO: Around 2500ms delay often works anyhoo but proper startup would be better
 108:../../tmk_core/protocol/lufa/lufa.c **** // 1000ms delay of hid_listen affects this probably
 109:../../tmk_core/protocol/lufa/lufa.c **** /* wait for Console startup */
 110:../../tmk_core/protocol/lufa/lufa.c **** static bool console_is_ready(void)
 111:../../tmk_core/protocol/lufa/lufa.c **** {
 112:../../tmk_core/protocol/lufa/lufa.c ****     static bool hid_listen_ready = false;
 113:../../tmk_core/protocol/lufa/lufa.c ****     if (!hid_listen_ready) {
 114:../../tmk_core/protocol/lufa/lufa.c ****         if (timer_read32() < 2500)
 115:../../tmk_core/protocol/lufa/lufa.c ****             return false;
 116:../../tmk_core/protocol/lufa/lufa.c ****         hid_listen_ready = true;
 117:../../tmk_core/protocol/lufa/lufa.c ****     }
 118:../../tmk_core/protocol/lufa/lufa.c ****     return true;
 119:../../tmk_core/protocol/lufa/lufa.c **** }
 120:../../tmk_core/protocol/lufa/lufa.c **** 
 121:../../tmk_core/protocol/lufa/lufa.c **** static bool console_putc(uint8_t c)
 122:../../tmk_core/protocol/lufa/lufa.c **** {
 123:../../tmk_core/protocol/lufa/lufa.c ****     if (!console_is_ready())
 124:../../tmk_core/protocol/lufa/lufa.c ****         goto EXIT;
 125:../../tmk_core/protocol/lufa/lufa.c **** 
 126:../../tmk_core/protocol/lufa/lufa.c ****     // return immediately if called while interrupt
 127:../../tmk_core/protocol/lufa/lufa.c ****     if (!(SREG & (1<<SREG_I)))
 128:../../tmk_core/protocol/lufa/lufa.c ****         goto EXIT;
 129:../../tmk_core/protocol/lufa/lufa.c **** 
 130:../../tmk_core/protocol/lufa/lufa.c ****     if (USB_DeviceState != DEVICE_STATE_Configured)
 131:../../tmk_core/protocol/lufa/lufa.c ****         goto EXIT;
 132:../../tmk_core/protocol/lufa/lufa.c **** 
 133:../../tmk_core/protocol/lufa/lufa.c ****     uint8_t ep = Endpoint_GetCurrentEndpoint();
 134:../../tmk_core/protocol/lufa/lufa.c **** 
 135:../../tmk_core/protocol/lufa/lufa.c ****     Endpoint_SelectEndpoint(CONSOLE_IN_EPNUM);
 136:../../tmk_core/protocol/lufa/lufa.c ****     if (!Endpoint_IsEnabled() || !Endpoint_IsConfigured()) {
 137:../../tmk_core/protocol/lufa/lufa.c ****         goto EXIT_RESTORE_EP;
 138:../../tmk_core/protocol/lufa/lufa.c ****     }
 139:../../tmk_core/protocol/lufa/lufa.c **** 
 140:../../tmk_core/protocol/lufa/lufa.c ****     // write from buffer to endpoint bank
 141:../../tmk_core/protocol/lufa/lufa.c ****     while (!ringbuf_is_empty(&sendbuf) && Endpoint_IsReadWriteAllowed()) {
 142:../../tmk_core/protocol/lufa/lufa.c ****         Endpoint_Write_8(ringbuf_get(&sendbuf));
 143:../../tmk_core/protocol/lufa/lufa.c **** 
 144:../../tmk_core/protocol/lufa/lufa.c ****         // clear bank when it is full
 145:../../tmk_core/protocol/lufa/lufa.c ****         if (!Endpoint_IsReadWriteAllowed() && Endpoint_IsINReady()) {
 146:../../tmk_core/protocol/lufa/lufa.c ****             Endpoint_ClearIN();
 147:../../tmk_core/protocol/lufa/lufa.c ****         }
 148:../../tmk_core/protocol/lufa/lufa.c ****     }
 149:../../tmk_core/protocol/lufa/lufa.c **** 
 150:../../tmk_core/protocol/lufa/lufa.c ****     // write c to bank directly if there is no others in buffer
 151:../../tmk_core/protocol/lufa/lufa.c ****     if (ringbuf_is_empty(&sendbuf) && Endpoint_IsReadWriteAllowed()) {
 152:../../tmk_core/protocol/lufa/lufa.c ****         Endpoint_Write_8(c);
 153:../../tmk_core/protocol/lufa/lufa.c ****         Endpoint_SelectEndpoint(ep);
 154:../../tmk_core/protocol/lufa/lufa.c ****         return true;
 155:../../tmk_core/protocol/lufa/lufa.c ****     }
 156:../../tmk_core/protocol/lufa/lufa.c **** 
 157:../../tmk_core/protocol/lufa/lufa.c **** EXIT_RESTORE_EP:
 158:../../tmk_core/protocol/lufa/lufa.c ****     Endpoint_SelectEndpoint(ep);
 159:../../tmk_core/protocol/lufa/lufa.c **** EXIT:
 160:../../tmk_core/protocol/lufa/lufa.c ****     return ringbuf_put(&sendbuf, c);
 161:../../tmk_core/protocol/lufa/lufa.c **** }
 162:../../tmk_core/protocol/lufa/lufa.c **** 
 163:../../tmk_core/protocol/lufa/lufa.c **** static void console_flush(void)
 164:../../tmk_core/protocol/lufa/lufa.c **** {
 165:../../tmk_core/protocol/lufa/lufa.c ****     if (!console_is_ready())
 166:../../tmk_core/protocol/lufa/lufa.c ****         return;
 167:../../tmk_core/protocol/lufa/lufa.c **** 
 168:../../tmk_core/protocol/lufa/lufa.c ****     if (USB_DeviceState != DEVICE_STATE_Configured)
 169:../../tmk_core/protocol/lufa/lufa.c ****         return;
 170:../../tmk_core/protocol/lufa/lufa.c **** 
 171:../../tmk_core/protocol/lufa/lufa.c ****     uint8_t ep = Endpoint_GetCurrentEndpoint();
 172:../../tmk_core/protocol/lufa/lufa.c **** 
 173:../../tmk_core/protocol/lufa/lufa.c ****     Endpoint_SelectEndpoint(CONSOLE_IN_EPNUM);
 174:../../tmk_core/protocol/lufa/lufa.c ****     if (!Endpoint_IsEnabled() || !Endpoint_IsConfigured()) {
 175:../../tmk_core/protocol/lufa/lufa.c ****         Endpoint_SelectEndpoint(ep);
 176:../../tmk_core/protocol/lufa/lufa.c ****         return;
 177:../../tmk_core/protocol/lufa/lufa.c ****     }
 178:../../tmk_core/protocol/lufa/lufa.c **** 
 179:../../tmk_core/protocol/lufa/lufa.c ****     // write from buffer to endpoint bank
 180:../../tmk_core/protocol/lufa/lufa.c ****     while (!ringbuf_is_empty(&sendbuf) && Endpoint_IsReadWriteAllowed()) {
 181:../../tmk_core/protocol/lufa/lufa.c ****         Endpoint_Write_8(ringbuf_get(&sendbuf));
 182:../../tmk_core/protocol/lufa/lufa.c **** 
 183:../../tmk_core/protocol/lufa/lufa.c ****         // clear bank when it is full
 184:../../tmk_core/protocol/lufa/lufa.c ****         if (!Endpoint_IsReadWriteAllowed() && Endpoint_IsINReady()) {
 185:../../tmk_core/protocol/lufa/lufa.c ****             Endpoint_ClearIN();
 186:../../tmk_core/protocol/lufa/lufa.c ****         }
 187:../../tmk_core/protocol/lufa/lufa.c ****     }
 188:../../tmk_core/protocol/lufa/lufa.c **** 
 189:../../tmk_core/protocol/lufa/lufa.c ****     // clear bank when there are chars in bank
 190:../../tmk_core/protocol/lufa/lufa.c ****     if (Endpoint_BytesInEndpoint() && Endpoint_IsINReady()) {
 191:../../tmk_core/protocol/lufa/lufa.c ****         // Windows needs to fill packet with 0
 192:../../tmk_core/protocol/lufa/lufa.c ****         while (Endpoint_IsReadWriteAllowed()) {
 193:../../tmk_core/protocol/lufa/lufa.c ****                 Endpoint_Write_8(0);
 194:../../tmk_core/protocol/lufa/lufa.c ****         }
 195:../../tmk_core/protocol/lufa/lufa.c ****         Endpoint_ClearIN();
 196:../../tmk_core/protocol/lufa/lufa.c ****     }
 197:../../tmk_core/protocol/lufa/lufa.c **** 
 198:../../tmk_core/protocol/lufa/lufa.c ****     Endpoint_SelectEndpoint(ep);
 199:../../tmk_core/protocol/lufa/lufa.c **** }
 200:../../tmk_core/protocol/lufa/lufa.c **** 
 201:../../tmk_core/protocol/lufa/lufa.c **** static void console_task(void)
 202:../../tmk_core/protocol/lufa/lufa.c **** {
 203:../../tmk_core/protocol/lufa/lufa.c ****     static uint16_t fn = 0;
 204:../../tmk_core/protocol/lufa/lufa.c ****     if (fn == USB_Device_GetFrameNumber()) {
 205:../../tmk_core/protocol/lufa/lufa.c ****         return;
 206:../../tmk_core/protocol/lufa/lufa.c ****     }
 207:../../tmk_core/protocol/lufa/lufa.c ****     fn = USB_Device_GetFrameNumber();
 208:../../tmk_core/protocol/lufa/lufa.c ****     console_flush();
 209:../../tmk_core/protocol/lufa/lufa.c **** }
 210:../../tmk_core/protocol/lufa/lufa.c **** #endif
 211:../../tmk_core/protocol/lufa/lufa.c **** 
 212:../../tmk_core/protocol/lufa/lufa.c **** 
 213:../../tmk_core/protocol/lufa/lufa.c **** /*******************************************************************************
 214:../../tmk_core/protocol/lufa/lufa.c ****  * USB Events
 215:../../tmk_core/protocol/lufa/lufa.c ****  ******************************************************************************/
 216:../../tmk_core/protocol/lufa/lufa.c **** /*
 217:../../tmk_core/protocol/lufa/lufa.c ****  * Event Order of Plug in:
 218:../../tmk_core/protocol/lufa/lufa.c ****  * 0) EVENT_USB_Device_Connect
 219:../../tmk_core/protocol/lufa/lufa.c ****  * 1) EVENT_USB_Device_Suspend
 220:../../tmk_core/protocol/lufa/lufa.c ****  * 2) EVENT_USB_Device_Reset
 221:../../tmk_core/protocol/lufa/lufa.c ****  * 3) EVENT_USB_Device_Wake
 222:../../tmk_core/protocol/lufa/lufa.c **** */
 223:../../tmk_core/protocol/lufa/lufa.c **** void EVENT_USB_Device_Connect(void)
 224:../../tmk_core/protocol/lufa/lufa.c **** {
 225:../../tmk_core/protocol/lufa/lufa.c **** #ifdef LUFA_DEBUG
 226:../../tmk_core/protocol/lufa/lufa.c ****     print("[C]");
 227:../../tmk_core/protocol/lufa/lufa.c **** #endif
 228:../../tmk_core/protocol/lufa/lufa.c ****     /* For battery powered device */
 229:../../tmk_core/protocol/lufa/lufa.c ****     if (!USB_IsInitialized) {
 230:../../tmk_core/protocol/lufa/lufa.c ****         USB_Disable();
 231:../../tmk_core/protocol/lufa/lufa.c ****         USB_Init();
 232:../../tmk_core/protocol/lufa/lufa.c ****         USB_Device_EnableSOFEvents();
 233:../../tmk_core/protocol/lufa/lufa.c ****     }
 234:../../tmk_core/protocol/lufa/lufa.c **** }
 235:../../tmk_core/protocol/lufa/lufa.c **** 
 236:../../tmk_core/protocol/lufa/lufa.c **** void EVENT_USB_Device_Disconnect(void)
 237:../../tmk_core/protocol/lufa/lufa.c **** {
 238:../../tmk_core/protocol/lufa/lufa.c **** #ifdef LUFA_DEBUG
 239:../../tmk_core/protocol/lufa/lufa.c ****     print("[D]");
 240:../../tmk_core/protocol/lufa/lufa.c **** #endif
 241:../../tmk_core/protocol/lufa/lufa.c ****     /* For battery powered device */
 242:../../tmk_core/protocol/lufa/lufa.c ****     USB_IsInitialized = false;
 243:../../tmk_core/protocol/lufa/lufa.c **** /* TODO: This doesn't work. After several plug in/outs can not be enumerated.
 244:../../tmk_core/protocol/lufa/lufa.c ****     if (USB_IsInitialized) {
 245:../../tmk_core/protocol/lufa/lufa.c ****         USB_Disable();  // Disable all interrupts
 246:../../tmk_core/protocol/lufa/lufa.c **** 	USB_Controller_Enable();
 247:../../tmk_core/protocol/lufa/lufa.c ****         USB_INT_Enable(USB_INT_VBUSTI);
 248:../../tmk_core/protocol/lufa/lufa.c ****     }
 249:../../tmk_core/protocol/lufa/lufa.c **** */
 250:../../tmk_core/protocol/lufa/lufa.c **** }
 251:../../tmk_core/protocol/lufa/lufa.c **** 
 252:../../tmk_core/protocol/lufa/lufa.c **** void EVENT_USB_Device_Reset(void)
 253:../../tmk_core/protocol/lufa/lufa.c **** {
 254:../../tmk_core/protocol/lufa/lufa.c **** #ifdef LUFA_DEBUG
 255:../../tmk_core/protocol/lufa/lufa.c ****     print("[R]");
 256:../../tmk_core/protocol/lufa/lufa.c **** #endif
 257:../../tmk_core/protocol/lufa/lufa.c **** }
 258:../../tmk_core/protocol/lufa/lufa.c **** 
 259:../../tmk_core/protocol/lufa/lufa.c **** void EVENT_USB_Device_Suspend()
 260:../../tmk_core/protocol/lufa/lufa.c **** {
 261:../../tmk_core/protocol/lufa/lufa.c **** #ifdef LUFA_DEBUG
 262:../../tmk_core/protocol/lufa/lufa.c ****     print("[S]");
 263:../../tmk_core/protocol/lufa/lufa.c **** #endif
 264:../../tmk_core/protocol/lufa/lufa.c ****     hook_usb_suspend_entry();
 265:../../tmk_core/protocol/lufa/lufa.c **** }
 266:../../tmk_core/protocol/lufa/lufa.c **** 
 267:../../tmk_core/protocol/lufa/lufa.c **** void EVENT_USB_Device_WakeUp()
 268:../../tmk_core/protocol/lufa/lufa.c **** {
 269:../../tmk_core/protocol/lufa/lufa.c **** #ifdef LUFA_DEBUG
 270:../../tmk_core/protocol/lufa/lufa.c ****     print("[W]");
 271:../../tmk_core/protocol/lufa/lufa.c **** #endif
 272:../../tmk_core/protocol/lufa/lufa.c ****     hook_usb_wakeup();
 273:../../tmk_core/protocol/lufa/lufa.c **** }
 274:../../tmk_core/protocol/lufa/lufa.c **** 
 275:../../tmk_core/protocol/lufa/lufa.c **** // called every 1ms
 276:../../tmk_core/protocol/lufa/lufa.c **** void EVENT_USB_Device_StartOfFrame(void)
 277:../../tmk_core/protocol/lufa/lufa.c **** {
 278:../../tmk_core/protocol/lufa/lufa.c **** }
 279:../../tmk_core/protocol/lufa/lufa.c **** 
 280:../../tmk_core/protocol/lufa/lufa.c **** /** Event handler for the USB_ConfigurationChanged event.
 281:../../tmk_core/protocol/lufa/lufa.c ****  * This is fired when the host sets the current configuration of the USB device after enumeration.
 282:../../tmk_core/protocol/lufa/lufa.c ****  *
 283:../../tmk_core/protocol/lufa/lufa.c ****  * ATMega32u2 supports dual bank(ping-pong mode) only on endpoint 3 and 4,
 284:../../tmk_core/protocol/lufa/lufa.c ****  * it is safe to use singl bank for all endpoints.
 285:../../tmk_core/protocol/lufa/lufa.c ****  */
 286:../../tmk_core/protocol/lufa/lufa.c **** void EVENT_USB_Device_ConfigurationChanged(void)
 287:../../tmk_core/protocol/lufa/lufa.c **** {
 288:../../tmk_core/protocol/lufa/lufa.c **** #ifdef LUFA_DEBUG
 289:../../tmk_core/protocol/lufa/lufa.c ****     print("[c]");
 290:../../tmk_core/protocol/lufa/lufa.c **** #endif
 291:../../tmk_core/protocol/lufa/lufa.c ****     bool ConfigSuccess = true;
 292:../../tmk_core/protocol/lufa/lufa.c **** 
 293:../../tmk_core/protocol/lufa/lufa.c ****     /* Setup Keyboard HID Report Endpoints */
 294:../../tmk_core/protocol/lufa/lufa.c ****     ConfigSuccess &= ENDPOINT_CONFIG(KEYBOARD_IN_EPNUM, EP_TYPE_INTERRUPT, ENDPOINT_DIR_IN,
 295:../../tmk_core/protocol/lufa/lufa.c ****                                      KEYBOARD_EPSIZE, ENDPOINT_BANK_SINGLE);
 296:../../tmk_core/protocol/lufa/lufa.c **** 
 297:../../tmk_core/protocol/lufa/lufa.c **** #ifdef MOUSE_ENABLE
 298:../../tmk_core/protocol/lufa/lufa.c ****     /* Setup Mouse HID Report Endpoint */
 299:../../tmk_core/protocol/lufa/lufa.c ****     ConfigSuccess &= ENDPOINT_CONFIG(MOUSE_IN_EPNUM, EP_TYPE_INTERRUPT, ENDPOINT_DIR_IN,
 300:../../tmk_core/protocol/lufa/lufa.c ****                                      MOUSE_EPSIZE, ENDPOINT_BANK_SINGLE);
 301:../../tmk_core/protocol/lufa/lufa.c **** #endif
 302:../../tmk_core/protocol/lufa/lufa.c **** 
 303:../../tmk_core/protocol/lufa/lufa.c **** #ifdef EXTRAKEY_ENABLE
 304:../../tmk_core/protocol/lufa/lufa.c ****     /* Setup Extra HID Report Endpoint */
 305:../../tmk_core/protocol/lufa/lufa.c ****     ConfigSuccess &= ENDPOINT_CONFIG(EXTRAKEY_IN_EPNUM, EP_TYPE_INTERRUPT, ENDPOINT_DIR_IN,
 306:../../tmk_core/protocol/lufa/lufa.c ****                                      EXTRAKEY_EPSIZE, ENDPOINT_BANK_SINGLE);
 307:../../tmk_core/protocol/lufa/lufa.c **** #endif
 308:../../tmk_core/protocol/lufa/lufa.c **** 
 309:../../tmk_core/protocol/lufa/lufa.c **** #ifdef CONSOLE_ENABLE
 310:../../tmk_core/protocol/lufa/lufa.c ****     /* Setup Console HID Report Endpoints */
 311:../../tmk_core/protocol/lufa/lufa.c ****     ConfigSuccess &= ENDPOINT_CONFIG(CONSOLE_IN_EPNUM, EP_TYPE_INTERRUPT, ENDPOINT_DIR_IN,
 312:../../tmk_core/protocol/lufa/lufa.c ****                                      CONSOLE_EPSIZE, ENDPOINT_BANK_SINGLE);
 313:../../tmk_core/protocol/lufa/lufa.c **** #if 0
 314:../../tmk_core/protocol/lufa/lufa.c ****     ConfigSuccess &= ENDPOINT_CONFIG(CONSOLE_OUT_EPNUM, EP_TYPE_INTERRUPT, ENDPOINT_DIR_OUT,
 315:../../tmk_core/protocol/lufa/lufa.c ****                                      CONSOLE_EPSIZE, ENDPOINT_BANK_SINGLE);
 316:../../tmk_core/protocol/lufa/lufa.c **** #endif
 317:../../tmk_core/protocol/lufa/lufa.c **** #endif
 318:../../tmk_core/protocol/lufa/lufa.c **** 
 319:../../tmk_core/protocol/lufa/lufa.c **** #ifdef NKRO_ENABLE
 320:../../tmk_core/protocol/lufa/lufa.c ****     /* Setup NKRO HID Report Endpoints */
 321:../../tmk_core/protocol/lufa/lufa.c ****     ConfigSuccess &= ENDPOINT_CONFIG(NKRO_IN_EPNUM, EP_TYPE_INTERRUPT, ENDPOINT_DIR_IN,
 322:../../tmk_core/protocol/lufa/lufa.c ****                                      NKRO_EPSIZE, ENDPOINT_BANK_SINGLE);
 323:../../tmk_core/protocol/lufa/lufa.c **** #endif
 324:../../tmk_core/protocol/lufa/lufa.c **** }
 325:../../tmk_core/protocol/lufa/lufa.c **** 
 326:../../tmk_core/protocol/lufa/lufa.c **** /*
 327:../../tmk_core/protocol/lufa/lufa.c **** Appendix G: HID Request Support Requirements
 328:../../tmk_core/protocol/lufa/lufa.c **** 
 329:../../tmk_core/protocol/lufa/lufa.c **** The following table enumerates the requests that need to be supported by various types of HID class
 330:../../tmk_core/protocol/lufa/lufa.c **** 
 331:../../tmk_core/protocol/lufa/lufa.c **** Device type     GetReport   SetReport   GetIdle     SetIdle     GetProtocol SetProtocol
 332:../../tmk_core/protocol/lufa/lufa.c **** ------------------------------------------------------------------------------------------
 333:../../tmk_core/protocol/lufa/lufa.c **** Boot Mouse      Required    Optional    Optional    Optional    Required    Required
 334:../../tmk_core/protocol/lufa/lufa.c **** Non-Boot Mouse  Required    Optional    Optional    Optional    Optional    Optional
 335:../../tmk_core/protocol/lufa/lufa.c **** Boot Keyboard   Required    Optional    Required    Required    Required    Required
 336:../../tmk_core/protocol/lufa/lufa.c **** Non-Boot Keybrd Required    Optional    Required    Required    Optional    Optional
 337:../../tmk_core/protocol/lufa/lufa.c **** Other Device    Required    Optional    Optional    Optional    Optional    Optional
 338:../../tmk_core/protocol/lufa/lufa.c **** */
 339:../../tmk_core/protocol/lufa/lufa.c **** /** Event handler for the USB_ControlRequest event.
 340:../../tmk_core/protocol/lufa/lufa.c ****  *  This is fired before passing along unhandled control requests to the library for processing int
 341:../../tmk_core/protocol/lufa/lufa.c ****  */
 342:../../tmk_core/protocol/lufa/lufa.c **** void EVENT_USB_Device_ControlRequest(void)
 343:../../tmk_core/protocol/lufa/lufa.c **** {
 344:../../tmk_core/protocol/lufa/lufa.c ****     uint8_t* ReportData = NULL;
 345:../../tmk_core/protocol/lufa/lufa.c ****     uint8_t  ReportSize = 0;
 346:../../tmk_core/protocol/lufa/lufa.c **** 
 347:../../tmk_core/protocol/lufa/lufa.c ****     /* Handle HID Class specific requests */
 348:../../tmk_core/protocol/lufa/lufa.c ****     switch (USB_ControlRequest.bRequest)
 349:../../tmk_core/protocol/lufa/lufa.c ****     {
 350:../../tmk_core/protocol/lufa/lufa.c ****         case HID_REQ_GetReport:
 351:../../tmk_core/protocol/lufa/lufa.c ****             if (USB_ControlRequest.bmRequestType == (REQDIR_DEVICETOHOST | REQTYPE_CLASS | REQREC_I
 352:../../tmk_core/protocol/lufa/lufa.c ****             {
 353:../../tmk_core/protocol/lufa/lufa.c ****                 Endpoint_ClearSETUP();
 354:../../tmk_core/protocol/lufa/lufa.c **** 
 355:../../tmk_core/protocol/lufa/lufa.c ****                 // Interface
 356:../../tmk_core/protocol/lufa/lufa.c ****                 switch (USB_ControlRequest.wIndex) {
 357:../../tmk_core/protocol/lufa/lufa.c ****                 case KEYBOARD_INTERFACE:
 358:../../tmk_core/protocol/lufa/lufa.c ****                     // TODO: test/check
 359:../../tmk_core/protocol/lufa/lufa.c ****                     ReportData = (uint8_t*)&keyboard_report_sent;
 360:../../tmk_core/protocol/lufa/lufa.c ****                     ReportSize = sizeof(keyboard_report_sent);
 361:../../tmk_core/protocol/lufa/lufa.c ****                     break;
 362:../../tmk_core/protocol/lufa/lufa.c ****                 }
 363:../../tmk_core/protocol/lufa/lufa.c **** 
 364:../../tmk_core/protocol/lufa/lufa.c ****                 /* Write the report data to the control endpoint */
 365:../../tmk_core/protocol/lufa/lufa.c ****                 Endpoint_Write_Control_Stream_LE(ReportData, ReportSize);
 366:../../tmk_core/protocol/lufa/lufa.c ****                 Endpoint_ClearOUT();
 367:../../tmk_core/protocol/lufa/lufa.c **** #ifdef LUFA_DEBUG
 368:../../tmk_core/protocol/lufa/lufa.c ****                 xprintf("[r%d]", USB_ControlRequest.wIndex);
 369:../../tmk_core/protocol/lufa/lufa.c **** #endif
 370:../../tmk_core/protocol/lufa/lufa.c ****             }
 371:../../tmk_core/protocol/lufa/lufa.c **** 
 372:../../tmk_core/protocol/lufa/lufa.c ****             break;
 373:../../tmk_core/protocol/lufa/lufa.c ****         case HID_REQ_SetReport:
 374:../../tmk_core/protocol/lufa/lufa.c ****             if (USB_ControlRequest.bmRequestType == (REQDIR_HOSTTODEVICE | REQTYPE_CLASS | REQREC_I
 375:../../tmk_core/protocol/lufa/lufa.c ****             {
 376:../../tmk_core/protocol/lufa/lufa.c **** 
 377:../../tmk_core/protocol/lufa/lufa.c ****                 // Interface
 378:../../tmk_core/protocol/lufa/lufa.c ****                 switch (USB_ControlRequest.wIndex) {
 379:../../tmk_core/protocol/lufa/lufa.c ****                 case KEYBOARD_INTERFACE:
 380:../../tmk_core/protocol/lufa/lufa.c **** #ifdef NKRO_ENABLE
 381:../../tmk_core/protocol/lufa/lufa.c ****                 case NKRO_INTERFACE:
 382:../../tmk_core/protocol/lufa/lufa.c **** #endif
 383:../../tmk_core/protocol/lufa/lufa.c ****                     Endpoint_ClearSETUP();
 384:../../tmk_core/protocol/lufa/lufa.c **** 
 385:../../tmk_core/protocol/lufa/lufa.c ****                     while (!(Endpoint_IsOUTReceived())) {
 386:../../tmk_core/protocol/lufa/lufa.c ****                         if (USB_DeviceState == DEVICE_STATE_Unattached)
 387:../../tmk_core/protocol/lufa/lufa.c ****                           return;
 388:../../tmk_core/protocol/lufa/lufa.c ****                     }
 389:../../tmk_core/protocol/lufa/lufa.c ****                     keyboard_led_stats = Endpoint_Read_8();
 390:../../tmk_core/protocol/lufa/lufa.c **** 
 391:../../tmk_core/protocol/lufa/lufa.c ****                     Endpoint_ClearOUT();
 392:../../tmk_core/protocol/lufa/lufa.c ****                     Endpoint_ClearStatusStage();
 393:../../tmk_core/protocol/lufa/lufa.c **** #ifdef LUFA_DEBUG
 394:../../tmk_core/protocol/lufa/lufa.c ****                     xprintf("[L%d]", USB_ControlRequest.wIndex);
 395:../../tmk_core/protocol/lufa/lufa.c **** #endif
 396:../../tmk_core/protocol/lufa/lufa.c ****                     break;
 397:../../tmk_core/protocol/lufa/lufa.c ****                 }
 398:../../tmk_core/protocol/lufa/lufa.c **** 
 399:../../tmk_core/protocol/lufa/lufa.c ****             }
 400:../../tmk_core/protocol/lufa/lufa.c **** 
 401:../../tmk_core/protocol/lufa/lufa.c ****             break;
 402:../../tmk_core/protocol/lufa/lufa.c **** 
 403:../../tmk_core/protocol/lufa/lufa.c ****         case HID_REQ_GetProtocol:
 404:../../tmk_core/protocol/lufa/lufa.c ****             if (USB_ControlRequest.bmRequestType == (REQDIR_DEVICETOHOST | REQTYPE_CLASS | REQREC_I
 405:../../tmk_core/protocol/lufa/lufa.c ****             {
 406:../../tmk_core/protocol/lufa/lufa.c ****                 if (USB_ControlRequest.wIndex == KEYBOARD_INTERFACE) {
 407:../../tmk_core/protocol/lufa/lufa.c ****                     Endpoint_ClearSETUP();
 408:../../tmk_core/protocol/lufa/lufa.c ****                     while (!(Endpoint_IsINReady()));
 409:../../tmk_core/protocol/lufa/lufa.c ****                     Endpoint_Write_8(keyboard_protocol);
 410:../../tmk_core/protocol/lufa/lufa.c ****                     Endpoint_ClearIN();
 411:../../tmk_core/protocol/lufa/lufa.c ****                     Endpoint_ClearStatusStage();
 412:../../tmk_core/protocol/lufa/lufa.c **** #ifdef LUFA_DEBUG
 413:../../tmk_core/protocol/lufa/lufa.c ****                     print("[p]");
 414:../../tmk_core/protocol/lufa/lufa.c **** #endif
 415:../../tmk_core/protocol/lufa/lufa.c ****                 }
 416:../../tmk_core/protocol/lufa/lufa.c ****             }
 417:../../tmk_core/protocol/lufa/lufa.c **** 
 418:../../tmk_core/protocol/lufa/lufa.c ****             break;
 419:../../tmk_core/protocol/lufa/lufa.c ****         case HID_REQ_SetProtocol:
 420:../../tmk_core/protocol/lufa/lufa.c ****             if (USB_ControlRequest.bmRequestType == (REQDIR_HOSTTODEVICE | REQTYPE_CLASS | REQREC_I
 421:../../tmk_core/protocol/lufa/lufa.c ****             {
 422:../../tmk_core/protocol/lufa/lufa.c ****                 if (USB_ControlRequest.wIndex == KEYBOARD_INTERFACE) {
 423:../../tmk_core/protocol/lufa/lufa.c ****                     Endpoint_ClearSETUP();
 424:../../tmk_core/protocol/lufa/lufa.c ****                     Endpoint_ClearStatusStage();
 425:../../tmk_core/protocol/lufa/lufa.c **** 
 426:../../tmk_core/protocol/lufa/lufa.c ****                     keyboard_protocol = (USB_ControlRequest.wValue & 0xFF);
 427:../../tmk_core/protocol/lufa/lufa.c ****                     clear_keyboard();
 428:../../tmk_core/protocol/lufa/lufa.c **** #ifdef LUFA_DEBUG
 429:../../tmk_core/protocol/lufa/lufa.c ****                     print("[P]");
 430:../../tmk_core/protocol/lufa/lufa.c **** #endif
 431:../../tmk_core/protocol/lufa/lufa.c ****                 }
 432:../../tmk_core/protocol/lufa/lufa.c ****             }
 433:../../tmk_core/protocol/lufa/lufa.c **** 
 434:../../tmk_core/protocol/lufa/lufa.c ****             break;
 435:../../tmk_core/protocol/lufa/lufa.c ****         case HID_REQ_SetIdle:
 436:../../tmk_core/protocol/lufa/lufa.c ****             if (USB_ControlRequest.bmRequestType == (REQDIR_HOSTTODEVICE | REQTYPE_CLASS | REQREC_I
 437:../../tmk_core/protocol/lufa/lufa.c ****             {
 438:../../tmk_core/protocol/lufa/lufa.c ****                 Endpoint_ClearSETUP();
 439:../../tmk_core/protocol/lufa/lufa.c ****                 Endpoint_ClearStatusStage();
 440:../../tmk_core/protocol/lufa/lufa.c **** 
 441:../../tmk_core/protocol/lufa/lufa.c ****                 keyboard_idle = ((USB_ControlRequest.wValue & 0xFF00) >> 8);
 442:../../tmk_core/protocol/lufa/lufa.c **** #ifdef LUFA_DEBUG
 443:../../tmk_core/protocol/lufa/lufa.c ****                 xprintf("[I%d]%d", USB_ControlRequest.wIndex, (USB_ControlRequest.wValue & 0xFF00) 
 444:../../tmk_core/protocol/lufa/lufa.c **** #endif
 445:../../tmk_core/protocol/lufa/lufa.c ****             }
 446:../../tmk_core/protocol/lufa/lufa.c **** 
 447:../../tmk_core/protocol/lufa/lufa.c ****             break;
 448:../../tmk_core/protocol/lufa/lufa.c ****         case HID_REQ_GetIdle:
 449:../../tmk_core/protocol/lufa/lufa.c ****             if (USB_ControlRequest.bmRequestType == (REQDIR_DEVICETOHOST | REQTYPE_CLASS | REQREC_I
 450:../../tmk_core/protocol/lufa/lufa.c ****             {
 451:../../tmk_core/protocol/lufa/lufa.c ****                 Endpoint_ClearSETUP();
 452:../../tmk_core/protocol/lufa/lufa.c ****                 while (!(Endpoint_IsINReady()));
 453:../../tmk_core/protocol/lufa/lufa.c ****                 Endpoint_Write_8(keyboard_idle);
 454:../../tmk_core/protocol/lufa/lufa.c ****                 Endpoint_ClearIN();
 455:../../tmk_core/protocol/lufa/lufa.c ****                 Endpoint_ClearStatusStage();
 456:../../tmk_core/protocol/lufa/lufa.c **** #ifdef LUFA_DEBUG
 457:../../tmk_core/protocol/lufa/lufa.c ****                 print("[i]");
 458:../../tmk_core/protocol/lufa/lufa.c **** #endif
 459:../../tmk_core/protocol/lufa/lufa.c ****             }
 460:../../tmk_core/protocol/lufa/lufa.c **** 
 461:../../tmk_core/protocol/lufa/lufa.c ****             break;
 462:../../tmk_core/protocol/lufa/lufa.c ****     }
 463:../../tmk_core/protocol/lufa/lufa.c **** }
 464:../../tmk_core/protocol/lufa/lufa.c **** 
 465:../../tmk_core/protocol/lufa/lufa.c **** /*******************************************************************************
 466:../../tmk_core/protocol/lufa/lufa.c ****  * Host driver
 467:../../tmk_core/protocol/lufa/lufa.c ****  ******************************************************************************/
 468:../../tmk_core/protocol/lufa/lufa.c **** static uint8_t keyboard_leds(void)
 469:../../tmk_core/protocol/lufa/lufa.c **** {
  15               		.loc 1 469 1 view -0
  16               		.cfi_startproc
  17               	/* prologue: function */
  18               	/* frame size = 0 */
  19               	/* stack size = 0 */
  20               	.L__stack_usage = 0
 470:../../tmk_core/protocol/lufa/lufa.c ****     return keyboard_led_stats;
  21               		.loc 1 470 5 view .LVU1
 471:../../tmk_core/protocol/lufa/lufa.c **** }
  22               		.loc 1 471 1 is_stmt 0 view .LVU2
  23 0000 8091 0000 		lds r24,keyboard_led_stats
  24               	/* epilogue start */
  25 0004 0895      		ret
  26               		.cfi_endproc
  27               	.LFE122:
  29               		.section	.text.send_consumer,"ax",@progbits
  31               	send_consumer:
  32               	.LVL0:
  33               	.LFB126:
 472:../../tmk_core/protocol/lufa/lufa.c **** 
 473:../../tmk_core/protocol/lufa/lufa.c **** static void send_keyboard(report_keyboard_t *report)
 474:../../tmk_core/protocol/lufa/lufa.c **** {
 475:../../tmk_core/protocol/lufa/lufa.c ****     uint8_t timeout = 128;
 476:../../tmk_core/protocol/lufa/lufa.c **** 
 477:../../tmk_core/protocol/lufa/lufa.c ****     if (USB_DeviceState != DEVICE_STATE_Configured)
 478:../../tmk_core/protocol/lufa/lufa.c ****         return;
 479:../../tmk_core/protocol/lufa/lufa.c **** 
 480:../../tmk_core/protocol/lufa/lufa.c ****     /* Select the Keyboard Report Endpoint */
 481:../../tmk_core/protocol/lufa/lufa.c **** #ifdef NKRO_ENABLE
 482:../../tmk_core/protocol/lufa/lufa.c ****     if (keyboard_protocol && keyboard_nkro) {
 483:../../tmk_core/protocol/lufa/lufa.c ****         /* Report protocol - NKRO */
 484:../../tmk_core/protocol/lufa/lufa.c ****         Endpoint_SelectEndpoint(NKRO_IN_EPNUM);
 485:../../tmk_core/protocol/lufa/lufa.c **** 
 486:../../tmk_core/protocol/lufa/lufa.c ****         /* Check if write ready for a polling interval around 1ms */
 487:../../tmk_core/protocol/lufa/lufa.c ****         while (timeout-- && !Endpoint_IsReadWriteAllowed()) _delay_us(8);
 488:../../tmk_core/protocol/lufa/lufa.c ****         if (!Endpoint_IsReadWriteAllowed()) return;
 489:../../tmk_core/protocol/lufa/lufa.c **** 
 490:../../tmk_core/protocol/lufa/lufa.c ****         /* Write Keyboard Report Data */
 491:../../tmk_core/protocol/lufa/lufa.c ****         Endpoint_Write_Stream_LE(report, NKRO_EPSIZE, NULL);
 492:../../tmk_core/protocol/lufa/lufa.c ****     }
 493:../../tmk_core/protocol/lufa/lufa.c ****     else
 494:../../tmk_core/protocol/lufa/lufa.c **** #endif
 495:../../tmk_core/protocol/lufa/lufa.c ****     {
 496:../../tmk_core/protocol/lufa/lufa.c ****         /* Boot protocol */
 497:../../tmk_core/protocol/lufa/lufa.c ****         Endpoint_SelectEndpoint(KEYBOARD_IN_EPNUM);
 498:../../tmk_core/protocol/lufa/lufa.c **** 
 499:../../tmk_core/protocol/lufa/lufa.c ****         /* Check if write ready for a polling interval around 10ms */
 500:../../tmk_core/protocol/lufa/lufa.c ****         while (timeout-- && !Endpoint_IsReadWriteAllowed()) _delay_us(80);
 501:../../tmk_core/protocol/lufa/lufa.c ****         if (!Endpoint_IsReadWriteAllowed()) return;
 502:../../tmk_core/protocol/lufa/lufa.c **** 
 503:../../tmk_core/protocol/lufa/lufa.c ****         /* Write Keyboard Report Data */
 504:../../tmk_core/protocol/lufa/lufa.c ****         Endpoint_Write_Stream_LE(report, KEYBOARD_EPSIZE, NULL);
 505:../../tmk_core/protocol/lufa/lufa.c ****     }
 506:../../tmk_core/protocol/lufa/lufa.c **** 
 507:../../tmk_core/protocol/lufa/lufa.c ****     /* Finalize the stream transfer to send the last packet */
 508:../../tmk_core/protocol/lufa/lufa.c ****     Endpoint_ClearIN();
 509:../../tmk_core/protocol/lufa/lufa.c **** 
 510:../../tmk_core/protocol/lufa/lufa.c ****     keyboard_report_sent = *report;
 511:../../tmk_core/protocol/lufa/lufa.c **** }
 512:../../tmk_core/protocol/lufa/lufa.c **** 
 513:../../tmk_core/protocol/lufa/lufa.c **** static void send_mouse(report_mouse_t *report)
 514:../../tmk_core/protocol/lufa/lufa.c **** {
 515:../../tmk_core/protocol/lufa/lufa.c **** #ifdef MOUSE_ENABLE
 516:../../tmk_core/protocol/lufa/lufa.c ****     uint8_t timeout = 255;
 517:../../tmk_core/protocol/lufa/lufa.c **** 
 518:../../tmk_core/protocol/lufa/lufa.c ****     if (USB_DeviceState != DEVICE_STATE_Configured)
 519:../../tmk_core/protocol/lufa/lufa.c ****         return;
 520:../../tmk_core/protocol/lufa/lufa.c **** 
 521:../../tmk_core/protocol/lufa/lufa.c ****     /* Select the Mouse Report Endpoint */
 522:../../tmk_core/protocol/lufa/lufa.c ****     Endpoint_SelectEndpoint(MOUSE_IN_EPNUM);
 523:../../tmk_core/protocol/lufa/lufa.c **** 
 524:../../tmk_core/protocol/lufa/lufa.c ****     /* Check if write ready for a polling interval around 10ms */
 525:../../tmk_core/protocol/lufa/lufa.c ****     while (timeout-- && !Endpoint_IsReadWriteAllowed()) _delay_us(40);
 526:../../tmk_core/protocol/lufa/lufa.c ****     if (!Endpoint_IsReadWriteAllowed()) return;
 527:../../tmk_core/protocol/lufa/lufa.c **** 
 528:../../tmk_core/protocol/lufa/lufa.c ****     /* Write Mouse Report Data */
 529:../../tmk_core/protocol/lufa/lufa.c ****     Endpoint_Write_Stream_LE(report, sizeof(report_mouse_t), NULL);
 530:../../tmk_core/protocol/lufa/lufa.c **** 
 531:../../tmk_core/protocol/lufa/lufa.c ****     /* Finalize the stream transfer to send the last packet */
 532:../../tmk_core/protocol/lufa/lufa.c ****     Endpoint_ClearIN();
 533:../../tmk_core/protocol/lufa/lufa.c **** #endif
 534:../../tmk_core/protocol/lufa/lufa.c **** }
 535:../../tmk_core/protocol/lufa/lufa.c **** 
 536:../../tmk_core/protocol/lufa/lufa.c **** static void send_system(uint16_t data)
 537:../../tmk_core/protocol/lufa/lufa.c **** {
 538:../../tmk_core/protocol/lufa/lufa.c **** #ifdef EXTRAKEY_ENABLE
 539:../../tmk_core/protocol/lufa/lufa.c ****     uint8_t timeout = 255;
 540:../../tmk_core/protocol/lufa/lufa.c **** 
 541:../../tmk_core/protocol/lufa/lufa.c ****     if (USB_DeviceState != DEVICE_STATE_Configured)
 542:../../tmk_core/protocol/lufa/lufa.c ****         return;
 543:../../tmk_core/protocol/lufa/lufa.c **** 
 544:../../tmk_core/protocol/lufa/lufa.c ****     report_extra_t r = {
 545:../../tmk_core/protocol/lufa/lufa.c ****         .report_id = REPORT_ID_SYSTEM,
 546:../../tmk_core/protocol/lufa/lufa.c ****         .usage = data - SYSTEM_POWER_DOWN + 1
 547:../../tmk_core/protocol/lufa/lufa.c ****     };
 548:../../tmk_core/protocol/lufa/lufa.c ****     Endpoint_SelectEndpoint(EXTRAKEY_IN_EPNUM);
 549:../../tmk_core/protocol/lufa/lufa.c **** 
 550:../../tmk_core/protocol/lufa/lufa.c ****     /* Check if write ready for a polling interval around 10ms */
 551:../../tmk_core/protocol/lufa/lufa.c ****     while (timeout-- && !Endpoint_IsReadWriteAllowed()) _delay_us(40);
 552:../../tmk_core/protocol/lufa/lufa.c ****     if (!Endpoint_IsReadWriteAllowed()) return;
 553:../../tmk_core/protocol/lufa/lufa.c **** 
 554:../../tmk_core/protocol/lufa/lufa.c ****     Endpoint_Write_Stream_LE(&r, sizeof(report_extra_t), NULL);
 555:../../tmk_core/protocol/lufa/lufa.c ****     Endpoint_ClearIN();
 556:../../tmk_core/protocol/lufa/lufa.c **** #endif
 557:../../tmk_core/protocol/lufa/lufa.c **** }
 558:../../tmk_core/protocol/lufa/lufa.c **** 
 559:../../tmk_core/protocol/lufa/lufa.c **** static void send_consumer(uint16_t data)
 560:../../tmk_core/protocol/lufa/lufa.c **** {
  34               		.loc 1 560 1 is_stmt 1 view -0
  35               		.cfi_startproc
  36               		.loc 1 560 1 is_stmt 0 view .LVU4
  37 0000 CF93      		push r28
  38               	.LCFI0:
  39               		.cfi_def_cfa_offset 3
  40               		.cfi_offset 28, -2
  41 0002 DF93      		push r29
  42               	.LCFI1:
  43               		.cfi_def_cfa_offset 4
  44               		.cfi_offset 29, -3
  45 0004 00D0      		rcall .
  46 0006 0F92      		push __tmp_reg__
  47               	.LCFI2:
  48               		.cfi_def_cfa_offset 7
  49 0008 CDB7      		in r28,__SP_L__
  50 000a DEB7      		in r29,__SP_H__
  51               	.LCFI3:
  52               		.cfi_def_cfa_register 28
  53               	/* prologue: function */
  54               	/* frame size = 3 */
  55               	/* stack size = 5 */
  56               	.L__stack_usage = 5
 561:../../tmk_core/protocol/lufa/lufa.c **** #ifdef EXTRAKEY_ENABLE
 562:../../tmk_core/protocol/lufa/lufa.c ****     uint8_t timeout = 255;
  57               		.loc 1 562 5 is_stmt 1 view .LVU5
  58               	.LVL1:
 563:../../tmk_core/protocol/lufa/lufa.c **** 
 564:../../tmk_core/protocol/lufa/lufa.c ****     if (USB_DeviceState != DEVICE_STATE_Configured)
  59               		.loc 1 564 5 view .LVU6
  60               		.loc 1 564 25 is_stmt 0 view .LVU7
  61 000c 2091 0000 		lds r18,USB_DeviceState
  62               		.loc 1 564 8 view .LVU8
  63 0010 2430      		cpi r18,lo8(4)
  64 0012 01F4      		brne .L2
 565:../../tmk_core/protocol/lufa/lufa.c ****         return;
 566:../../tmk_core/protocol/lufa/lufa.c **** 
 567:../../tmk_core/protocol/lufa/lufa.c ****     report_extra_t r = {
  65               		.loc 1 567 5 is_stmt 1 view .LVU9
  66               		.loc 1 567 20 is_stmt 0 view .LVU10
  67 0014 23E0      		ldi r18,lo8(3)
  68 0016 2983      		std Y+1,r18
  69 0018 8A83      		std Y+2,r24
  70 001a 9B83      		std Y+3,r25
 568:../../tmk_core/protocol/lufa/lufa.c ****         .report_id = REPORT_ID_CONSUMER,
 569:../../tmk_core/protocol/lufa/lufa.c ****         .usage = data
 570:../../tmk_core/protocol/lufa/lufa.c ****     };
 571:../../tmk_core/protocol/lufa/lufa.c ****     Endpoint_SelectEndpoint(EXTRAKEY_IN_EPNUM);
  71               		.loc 1 571 5 is_stmt 1 view .LVU11
  72               	.LVL2:
  73               	.LBB247:
  74               	.LBI247:
  75               		.file 2 "../../tmk_core/protocol/lufa/LUFA-git/LUFA/Drivers/USB/Core/AVR8/../AVR8/Endpoint_AVR8.h"
   1:../../tmk_core/protocol/lufa/LUFA-git/LUFA/Drivers/USB/Core/AVR8/../AVR8/Endpoint_AVR8.h **** /*
   2:../../tmk_core/protocol/lufa/LUFA-git/LUFA/Drivers/USB/Core/AVR8/../AVR8/Endpoint_AVR8.h ****              LUFA Library
   3:../../tmk_core/protocol/lufa/LUFA-git/LUFA/Drivers/USB/Core/AVR8/../AVR8/Endpoint_AVR8.h ****      Copyright (C) Dean Camera, 2014.
   4:../../tmk_core/protocol/lufa/LUFA-git/LUFA/Drivers/USB/Core/AVR8/../AVR8/Endpoint_AVR8.h **** 
   5:../../tmk_core/protocol/lufa/LUFA-git/LUFA/Drivers/USB/Core/AVR8/../AVR8/Endpoint_AVR8.h ****   dean [at] fourwalledcubicle [dot] com
   6:../../tmk_core/protocol/lufa/LUFA-git/LUFA/Drivers/USB/Core/AVR8/../AVR8/Endpoint_AVR8.h ****            www.lufa-lib.org
   7:../../tmk_core/protocol/lufa/LUFA-git/LUFA/Drivers/USB/Core/AVR8/../AVR8/Endpoint_AVR8.h **** */
   8:../../tmk_core/protocol/lufa/LUFA-git/LUFA/Drivers/USB/Core/AVR8/../AVR8/Endpoint_AVR8.h **** 
   9:../../tmk_core/protocol/lufa/LUFA-git/LUFA/Drivers/USB/Core/AVR8/../AVR8/Endpoint_AVR8.h **** /*
  10:../../tmk_core/protocol/lufa/LUFA-git/LUFA/Drivers/USB/Core/AVR8/../AVR8/Endpoint_AVR8.h ****   Copyright 2014  Dean Camera (dean [at] fourwalledcubicle [dot] com)
  11:../../tmk_core/protocol/lufa/LUFA-git/LUFA/Drivers/USB/Core/AVR8/../AVR8/Endpoint_AVR8.h **** 
  12:../../tmk_core/protocol/lufa/LUFA-git/LUFA/Drivers/USB/Core/AVR8/../AVR8/Endpoint_AVR8.h ****   Permission to use, copy, modify, distribute, and sell this
  13:../../tmk_core/protocol/lufa/LUFA-git/LUFA/Drivers/USB/Core/AVR8/../AVR8/Endpoint_AVR8.h ****   software and its documentation for any purpose is hereby granted
  14:../../tmk_core/protocol/lufa/LUFA-git/LUFA/Drivers/USB/Core/AVR8/../AVR8/Endpoint_AVR8.h ****   without fee, provided that the above copyright notice appear in
  15:../../tmk_core/protocol/lufa/LUFA-git/LUFA/Drivers/USB/Core/AVR8/../AVR8/Endpoint_AVR8.h ****   all copies and that both that the copyright notice and this
  16:../../tmk_core/protocol/lufa/LUFA-git/LUFA/Drivers/USB/Core/AVR8/../AVR8/Endpoint_AVR8.h ****   permission notice and warranty disclaimer appear in supporting
  17:../../tmk_core/protocol/lufa/LUFA-git/LUFA/Drivers/USB/Core/AVR8/../AVR8/Endpoint_AVR8.h ****   documentation, and that the name of the author not be used in
  18:../../tmk_core/protocol/lufa/LUFA-git/LUFA/Drivers/USB/Core/AVR8/../AVR8/Endpoint_AVR8.h ****   advertising or publicity pertaining to distribution of the
  19:../../tmk_core/protocol/lufa/LUFA-git/LUFA/Drivers/USB/Core/AVR8/../AVR8/Endpoint_AVR8.h ****   software without specific, written prior permission.
  20:../../tmk_core/protocol/lufa/LUFA-git/LUFA/Drivers/USB/Core/AVR8/../AVR8/Endpoint_AVR8.h **** 
  21:../../tmk_core/protocol/lufa/LUFA-git/LUFA/Drivers/USB/Core/AVR8/../AVR8/Endpoint_AVR8.h ****   The author disclaims all warranties with regard to this
  22:../../tmk_core/protocol/lufa/LUFA-git/LUFA/Drivers/USB/Core/AVR8/../AVR8/Endpoint_AVR8.h ****   software, including all implied warranties of merchantability
  23:../../tmk_core/protocol/lufa/LUFA-git/LUFA/Drivers/USB/Core/AVR8/../AVR8/Endpoint_AVR8.h ****   and fitness.  In no event shall the author be liable for any
  24:../../tmk_core/protocol/lufa/LUFA-git/LUFA/Drivers/USB/Core/AVR8/../AVR8/Endpoint_AVR8.h ****   special, indirect or consequential damages or any damages
  25:../../tmk_core/protocol/lufa/LUFA-git/LUFA/Drivers/USB/Core/AVR8/../AVR8/Endpoint_AVR8.h ****   whatsoever resulting from loss of use, data or profits, whether
  26:../../tmk_core/protocol/lufa/LUFA-git/LUFA/Drivers/USB/Core/AVR8/../AVR8/Endpoint_AVR8.h ****   in an action of contract, negligence or other tortious action,
  27:../../tmk_core/protocol/lufa/LUFA-git/LUFA/Drivers/USB/Core/AVR8/../AVR8/Endpoint_AVR8.h ****   arising out of or in connection with the use or performance of
  28:../../tmk_core/protocol/lufa/LUFA-git/LUFA/Drivers/USB/Core/AVR8/../AVR8/Endpoint_AVR8.h ****   this software.
  29:../../tmk_core/protocol/lufa/LUFA-git/LUFA/Drivers/USB/Core/AVR8/../AVR8/Endpoint_AVR8.h **** */
  30:../../tmk_core/protocol/lufa/LUFA-git/LUFA/Drivers/USB/Core/AVR8/../AVR8/Endpoint_AVR8.h **** 
  31:../../tmk_core/protocol/lufa/LUFA-git/LUFA/Drivers/USB/Core/AVR8/../AVR8/Endpoint_AVR8.h **** /** \file
  32:../../tmk_core/protocol/lufa/LUFA-git/LUFA/Drivers/USB/Core/AVR8/../AVR8/Endpoint_AVR8.h ****  *  \brief USB Endpoint definitions for the AVR8 microcontrollers.
  33:../../tmk_core/protocol/lufa/LUFA-git/LUFA/Drivers/USB/Core/AVR8/../AVR8/Endpoint_AVR8.h ****  *  \copydetails Group_EndpointManagement_AVR8
  34:../../tmk_core/protocol/lufa/LUFA-git/LUFA/Drivers/USB/Core/AVR8/../AVR8/Endpoint_AVR8.h ****  *
  35:../../tmk_core/protocol/lufa/LUFA-git/LUFA/Drivers/USB/Core/AVR8/../AVR8/Endpoint_AVR8.h ****  *  \note This file should not be included directly. It is automatically included as needed by the 
  36:../../tmk_core/protocol/lufa/LUFA-git/LUFA/Drivers/USB/Core/AVR8/../AVR8/Endpoint_AVR8.h ****  *        dispatch header located in LUFA/Drivers/USB/USB.h.
  37:../../tmk_core/protocol/lufa/LUFA-git/LUFA/Drivers/USB/Core/AVR8/../AVR8/Endpoint_AVR8.h ****  */
  38:../../tmk_core/protocol/lufa/LUFA-git/LUFA/Drivers/USB/Core/AVR8/../AVR8/Endpoint_AVR8.h **** 
  39:../../tmk_core/protocol/lufa/LUFA-git/LUFA/Drivers/USB/Core/AVR8/../AVR8/Endpoint_AVR8.h **** /** \ingroup Group_EndpointRW
  40:../../tmk_core/protocol/lufa/LUFA-git/LUFA/Drivers/USB/Core/AVR8/../AVR8/Endpoint_AVR8.h ****  *  \defgroup Group_EndpointRW_AVR8 Endpoint Data Reading and Writing (AVR8)
  41:../../tmk_core/protocol/lufa/LUFA-git/LUFA/Drivers/USB/Core/AVR8/../AVR8/Endpoint_AVR8.h ****  *  \brief Endpoint data read/write definitions for the Atmel AVR8 architecture.
  42:../../tmk_core/protocol/lufa/LUFA-git/LUFA/Drivers/USB/Core/AVR8/../AVR8/Endpoint_AVR8.h ****  *
  43:../../tmk_core/protocol/lufa/LUFA-git/LUFA/Drivers/USB/Core/AVR8/../AVR8/Endpoint_AVR8.h ****  *  Functions, macros, variables, enums and types related to data reading and writing from and to e
  44:../../tmk_core/protocol/lufa/LUFA-git/LUFA/Drivers/USB/Core/AVR8/../AVR8/Endpoint_AVR8.h ****  */
  45:../../tmk_core/protocol/lufa/LUFA-git/LUFA/Drivers/USB/Core/AVR8/../AVR8/Endpoint_AVR8.h **** 
  46:../../tmk_core/protocol/lufa/LUFA-git/LUFA/Drivers/USB/Core/AVR8/../AVR8/Endpoint_AVR8.h **** /** \ingroup Group_EndpointPrimitiveRW
  47:../../tmk_core/protocol/lufa/LUFA-git/LUFA/Drivers/USB/Core/AVR8/../AVR8/Endpoint_AVR8.h ****  *  \defgroup Group_EndpointPrimitiveRW_AVR8 Read/Write of Primitive Data Types (AVR8)
  48:../../tmk_core/protocol/lufa/LUFA-git/LUFA/Drivers/USB/Core/AVR8/../AVR8/Endpoint_AVR8.h ****  *  \brief Endpoint primitive read/write definitions for the Atmel AVR8 architecture.
  49:../../tmk_core/protocol/lufa/LUFA-git/LUFA/Drivers/USB/Core/AVR8/../AVR8/Endpoint_AVR8.h ****  *
  50:../../tmk_core/protocol/lufa/LUFA-git/LUFA/Drivers/USB/Core/AVR8/../AVR8/Endpoint_AVR8.h ****  *  Functions, macros, variables, enums and types related to data reading and writing of primitive 
  51:../../tmk_core/protocol/lufa/LUFA-git/LUFA/Drivers/USB/Core/AVR8/../AVR8/Endpoint_AVR8.h ****  *  from and to endpoints.
  52:../../tmk_core/protocol/lufa/LUFA-git/LUFA/Drivers/USB/Core/AVR8/../AVR8/Endpoint_AVR8.h ****  */
  53:../../tmk_core/protocol/lufa/LUFA-git/LUFA/Drivers/USB/Core/AVR8/../AVR8/Endpoint_AVR8.h **** 
  54:../../tmk_core/protocol/lufa/LUFA-git/LUFA/Drivers/USB/Core/AVR8/../AVR8/Endpoint_AVR8.h **** /** \ingroup Group_EndpointPacketManagement
  55:../../tmk_core/protocol/lufa/LUFA-git/LUFA/Drivers/USB/Core/AVR8/../AVR8/Endpoint_AVR8.h ****  *  \defgroup Group_EndpointPacketManagement_AVR8 Endpoint Packet Management (AVR8)
  56:../../tmk_core/protocol/lufa/LUFA-git/LUFA/Drivers/USB/Core/AVR8/../AVR8/Endpoint_AVR8.h ****  *  \brief Endpoint packet management definitions for the Atmel AVR8 architecture.
  57:../../tmk_core/protocol/lufa/LUFA-git/LUFA/Drivers/USB/Core/AVR8/../AVR8/Endpoint_AVR8.h ****  *
  58:../../tmk_core/protocol/lufa/LUFA-git/LUFA/Drivers/USB/Core/AVR8/../AVR8/Endpoint_AVR8.h ****  *  Functions, macros, variables, enums and types related to packet management of endpoints.
  59:../../tmk_core/protocol/lufa/LUFA-git/LUFA/Drivers/USB/Core/AVR8/../AVR8/Endpoint_AVR8.h ****  */
  60:../../tmk_core/protocol/lufa/LUFA-git/LUFA/Drivers/USB/Core/AVR8/../AVR8/Endpoint_AVR8.h **** 
  61:../../tmk_core/protocol/lufa/LUFA-git/LUFA/Drivers/USB/Core/AVR8/../AVR8/Endpoint_AVR8.h **** /** \ingroup Group_EndpointManagement
  62:../../tmk_core/protocol/lufa/LUFA-git/LUFA/Drivers/USB/Core/AVR8/../AVR8/Endpoint_AVR8.h ****  *  \defgroup Group_EndpointManagement_AVR8 Endpoint Management (AVR8)
  63:../../tmk_core/protocol/lufa/LUFA-git/LUFA/Drivers/USB/Core/AVR8/../AVR8/Endpoint_AVR8.h ****  *  \brief Endpoint management definitions for the Atmel AVR8 architecture.
  64:../../tmk_core/protocol/lufa/LUFA-git/LUFA/Drivers/USB/Core/AVR8/../AVR8/Endpoint_AVR8.h ****  *
  65:../../tmk_core/protocol/lufa/LUFA-git/LUFA/Drivers/USB/Core/AVR8/../AVR8/Endpoint_AVR8.h ****  *  Functions, macros and enums related to endpoint management when in USB Device mode. This
  66:../../tmk_core/protocol/lufa/LUFA-git/LUFA/Drivers/USB/Core/AVR8/../AVR8/Endpoint_AVR8.h ****  *  module contains the endpoint management macros, as well as endpoint interrupt and data
  67:../../tmk_core/protocol/lufa/LUFA-git/LUFA/Drivers/USB/Core/AVR8/../AVR8/Endpoint_AVR8.h ****  *  send/receive functions for various data types.
  68:../../tmk_core/protocol/lufa/LUFA-git/LUFA/Drivers/USB/Core/AVR8/../AVR8/Endpoint_AVR8.h ****  *
  69:../../tmk_core/protocol/lufa/LUFA-git/LUFA/Drivers/USB/Core/AVR8/../AVR8/Endpoint_AVR8.h ****  *  @{
  70:../../tmk_core/protocol/lufa/LUFA-git/LUFA/Drivers/USB/Core/AVR8/../AVR8/Endpoint_AVR8.h ****  */
  71:../../tmk_core/protocol/lufa/LUFA-git/LUFA/Drivers/USB/Core/AVR8/../AVR8/Endpoint_AVR8.h **** 
  72:../../tmk_core/protocol/lufa/LUFA-git/LUFA/Drivers/USB/Core/AVR8/../AVR8/Endpoint_AVR8.h **** #ifndef __ENDPOINT_AVR8_H__
  73:../../tmk_core/protocol/lufa/LUFA-git/LUFA/Drivers/USB/Core/AVR8/../AVR8/Endpoint_AVR8.h **** #define __ENDPOINT_AVR8_H__
  74:../../tmk_core/protocol/lufa/LUFA-git/LUFA/Drivers/USB/Core/AVR8/../AVR8/Endpoint_AVR8.h **** 
  75:../../tmk_core/protocol/lufa/LUFA-git/LUFA/Drivers/USB/Core/AVR8/../AVR8/Endpoint_AVR8.h **** 	/* Includes: */
  76:../../tmk_core/protocol/lufa/LUFA-git/LUFA/Drivers/USB/Core/AVR8/../AVR8/Endpoint_AVR8.h **** 		#include "../../../../Common/Common.h"
  77:../../tmk_core/protocol/lufa/LUFA-git/LUFA/Drivers/USB/Core/AVR8/../AVR8/Endpoint_AVR8.h **** 		#include "../USBTask.h"
  78:../../tmk_core/protocol/lufa/LUFA-git/LUFA/Drivers/USB/Core/AVR8/../AVR8/Endpoint_AVR8.h **** 		#include "../USBInterrupt.h"
  79:../../tmk_core/protocol/lufa/LUFA-git/LUFA/Drivers/USB/Core/AVR8/../AVR8/Endpoint_AVR8.h **** 
  80:../../tmk_core/protocol/lufa/LUFA-git/LUFA/Drivers/USB/Core/AVR8/../AVR8/Endpoint_AVR8.h **** 	/* Enable C linkage for C++ Compilers: */
  81:../../tmk_core/protocol/lufa/LUFA-git/LUFA/Drivers/USB/Core/AVR8/../AVR8/Endpoint_AVR8.h **** 		#if defined(__cplusplus)
  82:../../tmk_core/protocol/lufa/LUFA-git/LUFA/Drivers/USB/Core/AVR8/../AVR8/Endpoint_AVR8.h **** 			extern "C" {
  83:../../tmk_core/protocol/lufa/LUFA-git/LUFA/Drivers/USB/Core/AVR8/../AVR8/Endpoint_AVR8.h **** 		#endif
  84:../../tmk_core/protocol/lufa/LUFA-git/LUFA/Drivers/USB/Core/AVR8/../AVR8/Endpoint_AVR8.h **** 
  85:../../tmk_core/protocol/lufa/LUFA-git/LUFA/Drivers/USB/Core/AVR8/../AVR8/Endpoint_AVR8.h **** 	/* Preprocessor Checks: */
  86:../../tmk_core/protocol/lufa/LUFA-git/LUFA/Drivers/USB/Core/AVR8/../AVR8/Endpoint_AVR8.h **** 		#if !defined(__INCLUDE_FROM_USB_DRIVER)
  87:../../tmk_core/protocol/lufa/LUFA-git/LUFA/Drivers/USB/Core/AVR8/../AVR8/Endpoint_AVR8.h **** 			#error Do not include this file directly. Include LUFA/Drivers/USB/USB.h instead.
  88:../../tmk_core/protocol/lufa/LUFA-git/LUFA/Drivers/USB/Core/AVR8/../AVR8/Endpoint_AVR8.h **** 		#endif
  89:../../tmk_core/protocol/lufa/LUFA-git/LUFA/Drivers/USB/Core/AVR8/../AVR8/Endpoint_AVR8.h **** 
  90:../../tmk_core/protocol/lufa/LUFA-git/LUFA/Drivers/USB/Core/AVR8/../AVR8/Endpoint_AVR8.h **** 	/* Private Interface - For use in library only: */
  91:../../tmk_core/protocol/lufa/LUFA-git/LUFA/Drivers/USB/Core/AVR8/../AVR8/Endpoint_AVR8.h **** 	#if !defined(__DOXYGEN__)
  92:../../tmk_core/protocol/lufa/LUFA-git/LUFA/Drivers/USB/Core/AVR8/../AVR8/Endpoint_AVR8.h **** 		/* Inline Functions: */
  93:../../tmk_core/protocol/lufa/LUFA-git/LUFA/Drivers/USB/Core/AVR8/../AVR8/Endpoint_AVR8.h **** 			static inline uint8_t Endpoint_BytesToEPSizeMask(const uint16_t Bytes) ATTR_WARN_UNUSED_RESULT A
  94:../../tmk_core/protocol/lufa/LUFA-git/LUFA/Drivers/USB/Core/AVR8/../AVR8/Endpoint_AVR8.h **** 			                                                                       ATTR_ALWAYS_INLINE;
  95:../../tmk_core/protocol/lufa/LUFA-git/LUFA/Drivers/USB/Core/AVR8/../AVR8/Endpoint_AVR8.h **** 			static inline uint8_t Endpoint_BytesToEPSizeMask(const uint16_t Bytes)
  96:../../tmk_core/protocol/lufa/LUFA-git/LUFA/Drivers/USB/Core/AVR8/../AVR8/Endpoint_AVR8.h **** 			{
  97:../../tmk_core/protocol/lufa/LUFA-git/LUFA/Drivers/USB/Core/AVR8/../AVR8/Endpoint_AVR8.h **** 				uint8_t  MaskVal    = 0;
  98:../../tmk_core/protocol/lufa/LUFA-git/LUFA/Drivers/USB/Core/AVR8/../AVR8/Endpoint_AVR8.h **** 				uint16_t CheckBytes = 8;
  99:../../tmk_core/protocol/lufa/LUFA-git/LUFA/Drivers/USB/Core/AVR8/../AVR8/Endpoint_AVR8.h **** 
 100:../../tmk_core/protocol/lufa/LUFA-git/LUFA/Drivers/USB/Core/AVR8/../AVR8/Endpoint_AVR8.h **** 				while (CheckBytes < Bytes)
 101:../../tmk_core/protocol/lufa/LUFA-git/LUFA/Drivers/USB/Core/AVR8/../AVR8/Endpoint_AVR8.h **** 				{
 102:../../tmk_core/protocol/lufa/LUFA-git/LUFA/Drivers/USB/Core/AVR8/../AVR8/Endpoint_AVR8.h **** 					MaskVal++;
 103:../../tmk_core/protocol/lufa/LUFA-git/LUFA/Drivers/USB/Core/AVR8/../AVR8/Endpoint_AVR8.h **** 					CheckBytes <<= 1;
 104:../../tmk_core/protocol/lufa/LUFA-git/LUFA/Drivers/USB/Core/AVR8/../AVR8/Endpoint_AVR8.h **** 				}
 105:../../tmk_core/protocol/lufa/LUFA-git/LUFA/Drivers/USB/Core/AVR8/../AVR8/Endpoint_AVR8.h **** 
 106:../../tmk_core/protocol/lufa/LUFA-git/LUFA/Drivers/USB/Core/AVR8/../AVR8/Endpoint_AVR8.h **** 				return (MaskVal << EPSIZE0);
 107:../../tmk_core/protocol/lufa/LUFA-git/LUFA/Drivers/USB/Core/AVR8/../AVR8/Endpoint_AVR8.h **** 			}
 108:../../tmk_core/protocol/lufa/LUFA-git/LUFA/Drivers/USB/Core/AVR8/../AVR8/Endpoint_AVR8.h **** 
 109:../../tmk_core/protocol/lufa/LUFA-git/LUFA/Drivers/USB/Core/AVR8/../AVR8/Endpoint_AVR8.h **** 		/* Function Prototypes: */
 110:../../tmk_core/protocol/lufa/LUFA-git/LUFA/Drivers/USB/Core/AVR8/../AVR8/Endpoint_AVR8.h **** 			void Endpoint_ClearEndpoints(void);
 111:../../tmk_core/protocol/lufa/LUFA-git/LUFA/Drivers/USB/Core/AVR8/../AVR8/Endpoint_AVR8.h **** 			bool Endpoint_ConfigureEndpoint_Prv(const uint8_t Number,
 112:../../tmk_core/protocol/lufa/LUFA-git/LUFA/Drivers/USB/Core/AVR8/../AVR8/Endpoint_AVR8.h **** 			                                    const uint8_t UECFG0XData,
 113:../../tmk_core/protocol/lufa/LUFA-git/LUFA/Drivers/USB/Core/AVR8/../AVR8/Endpoint_AVR8.h **** 			                                    const uint8_t UECFG1XData);
 114:../../tmk_core/protocol/lufa/LUFA-git/LUFA/Drivers/USB/Core/AVR8/../AVR8/Endpoint_AVR8.h **** 
 115:../../tmk_core/protocol/lufa/LUFA-git/LUFA/Drivers/USB/Core/AVR8/../AVR8/Endpoint_AVR8.h **** 	#endif
 116:../../tmk_core/protocol/lufa/LUFA-git/LUFA/Drivers/USB/Core/AVR8/../AVR8/Endpoint_AVR8.h **** 
 117:../../tmk_core/protocol/lufa/LUFA-git/LUFA/Drivers/USB/Core/AVR8/../AVR8/Endpoint_AVR8.h **** 	/* Public Interface - May be used in end-application: */
 118:../../tmk_core/protocol/lufa/LUFA-git/LUFA/Drivers/USB/Core/AVR8/../AVR8/Endpoint_AVR8.h **** 		/* Macros: */
 119:../../tmk_core/protocol/lufa/LUFA-git/LUFA/Drivers/USB/Core/AVR8/../AVR8/Endpoint_AVR8.h **** 			#if (!defined(FIXED_CONTROL_ENDPOINT_SIZE) || defined(__DOXYGEN__))
 120:../../tmk_core/protocol/lufa/LUFA-git/LUFA/Drivers/USB/Core/AVR8/../AVR8/Endpoint_AVR8.h **** 				/** Default size of the default control endpoint's bank, until altered by the control endpoint 
 121:../../tmk_core/protocol/lufa/LUFA-git/LUFA/Drivers/USB/Core/AVR8/../AVR8/Endpoint_AVR8.h **** 				 *  value in the device descriptor. Not available if the \c FIXED_CONTROL_ENDPOINT_SIZE token i
 122:../../tmk_core/protocol/lufa/LUFA-git/LUFA/Drivers/USB/Core/AVR8/../AVR8/Endpoint_AVR8.h **** 				 */
 123:../../tmk_core/protocol/lufa/LUFA-git/LUFA/Drivers/USB/Core/AVR8/../AVR8/Endpoint_AVR8.h **** 				#define ENDPOINT_CONTROLEP_DEFAULT_SIZE     8
 124:../../tmk_core/protocol/lufa/LUFA-git/LUFA/Drivers/USB/Core/AVR8/../AVR8/Endpoint_AVR8.h **** 			#endif
 125:../../tmk_core/protocol/lufa/LUFA-git/LUFA/Drivers/USB/Core/AVR8/../AVR8/Endpoint_AVR8.h **** 
 126:../../tmk_core/protocol/lufa/LUFA-git/LUFA/Drivers/USB/Core/AVR8/../AVR8/Endpoint_AVR8.h **** 			#if !defined(CONTROL_ONLY_DEVICE) || defined(__DOXYGEN__)
 127:../../tmk_core/protocol/lufa/LUFA-git/LUFA/Drivers/USB/Core/AVR8/../AVR8/Endpoint_AVR8.h **** 				#if defined(USB_SERIES_4_AVR) || defined(USB_SERIES_6_AVR) || defined(USB_SERIES_7_AVR) || defi
 128:../../tmk_core/protocol/lufa/LUFA-git/LUFA/Drivers/USB/Core/AVR8/../AVR8/Endpoint_AVR8.h **** 					/** Total number of endpoints (including the default control endpoint at address 0) which may
 129:../../tmk_core/protocol/lufa/LUFA-git/LUFA/Drivers/USB/Core/AVR8/../AVR8/Endpoint_AVR8.h **** 					 *  be used in the device. Different USB AVR models support different amounts of endpoints,
 130:../../tmk_core/protocol/lufa/LUFA-git/LUFA/Drivers/USB/Core/AVR8/../AVR8/Endpoint_AVR8.h **** 					 *  this value reflects the maximum number of endpoints for the currently selected AVR model.
 131:../../tmk_core/protocol/lufa/LUFA-git/LUFA/Drivers/USB/Core/AVR8/../AVR8/Endpoint_AVR8.h **** 					 */
 132:../../tmk_core/protocol/lufa/LUFA-git/LUFA/Drivers/USB/Core/AVR8/../AVR8/Endpoint_AVR8.h **** 					#define ENDPOINT_TOTAL_ENDPOINTS        7
 133:../../tmk_core/protocol/lufa/LUFA-git/LUFA/Drivers/USB/Core/AVR8/../AVR8/Endpoint_AVR8.h **** 				#else
 134:../../tmk_core/protocol/lufa/LUFA-git/LUFA/Drivers/USB/Core/AVR8/../AVR8/Endpoint_AVR8.h **** 					#define ENDPOINT_TOTAL_ENDPOINTS        5
 135:../../tmk_core/protocol/lufa/LUFA-git/LUFA/Drivers/USB/Core/AVR8/../AVR8/Endpoint_AVR8.h **** 				#endif
 136:../../tmk_core/protocol/lufa/LUFA-git/LUFA/Drivers/USB/Core/AVR8/../AVR8/Endpoint_AVR8.h **** 			#else
 137:../../tmk_core/protocol/lufa/LUFA-git/LUFA/Drivers/USB/Core/AVR8/../AVR8/Endpoint_AVR8.h **** 				#define ENDPOINT_TOTAL_ENDPOINTS            1
 138:../../tmk_core/protocol/lufa/LUFA-git/LUFA/Drivers/USB/Core/AVR8/../AVR8/Endpoint_AVR8.h **** 			#endif
 139:../../tmk_core/protocol/lufa/LUFA-git/LUFA/Drivers/USB/Core/AVR8/../AVR8/Endpoint_AVR8.h **** 
 140:../../tmk_core/protocol/lufa/LUFA-git/LUFA/Drivers/USB/Core/AVR8/../AVR8/Endpoint_AVR8.h **** 		/* Enums: */
 141:../../tmk_core/protocol/lufa/LUFA-git/LUFA/Drivers/USB/Core/AVR8/../AVR8/Endpoint_AVR8.h **** 			/** Enum for the possible error return codes of the \ref Endpoint_WaitUntilReady() function.
 142:../../tmk_core/protocol/lufa/LUFA-git/LUFA/Drivers/USB/Core/AVR8/../AVR8/Endpoint_AVR8.h **** 			 *
 143:../../tmk_core/protocol/lufa/LUFA-git/LUFA/Drivers/USB/Core/AVR8/../AVR8/Endpoint_AVR8.h **** 			 *  \ingroup Group_EndpointRW_AVR8
 144:../../tmk_core/protocol/lufa/LUFA-git/LUFA/Drivers/USB/Core/AVR8/../AVR8/Endpoint_AVR8.h **** 			 */
 145:../../tmk_core/protocol/lufa/LUFA-git/LUFA/Drivers/USB/Core/AVR8/../AVR8/Endpoint_AVR8.h **** 			enum Endpoint_WaitUntilReady_ErrorCodes_t
 146:../../tmk_core/protocol/lufa/LUFA-git/LUFA/Drivers/USB/Core/AVR8/../AVR8/Endpoint_AVR8.h **** 			{
 147:../../tmk_core/protocol/lufa/LUFA-git/LUFA/Drivers/USB/Core/AVR8/../AVR8/Endpoint_AVR8.h **** 				ENDPOINT_READYWAIT_NoError                 = 0, /**< Endpoint is ready for next packet, no erro
 148:../../tmk_core/protocol/lufa/LUFA-git/LUFA/Drivers/USB/Core/AVR8/../AVR8/Endpoint_AVR8.h **** 				ENDPOINT_READYWAIT_EndpointStalled         = 1, /**< The endpoint was stalled during the stream
 149:../../tmk_core/protocol/lufa/LUFA-git/LUFA/Drivers/USB/Core/AVR8/../AVR8/Endpoint_AVR8.h **** 				                                                 *   transfer by the host or device.
 150:../../tmk_core/protocol/lufa/LUFA-git/LUFA/Drivers/USB/Core/AVR8/../AVR8/Endpoint_AVR8.h **** 				                                                 */
 151:../../tmk_core/protocol/lufa/LUFA-git/LUFA/Drivers/USB/Core/AVR8/../AVR8/Endpoint_AVR8.h **** 				ENDPOINT_READYWAIT_DeviceDisconnected      = 2,	/**< Device was disconnected from the host whil
 152:../../tmk_core/protocol/lufa/LUFA-git/LUFA/Drivers/USB/Core/AVR8/../AVR8/Endpoint_AVR8.h **** 				                                                 *   waiting for the endpoint to become ready.
 153:../../tmk_core/protocol/lufa/LUFA-git/LUFA/Drivers/USB/Core/AVR8/../AVR8/Endpoint_AVR8.h **** 				                                                 */
 154:../../tmk_core/protocol/lufa/LUFA-git/LUFA/Drivers/USB/Core/AVR8/../AVR8/Endpoint_AVR8.h **** 				ENDPOINT_READYWAIT_BusSuspended            = 3, /**< The USB bus has been suspended by the host
 155:../../tmk_core/protocol/lufa/LUFA-git/LUFA/Drivers/USB/Core/AVR8/../AVR8/Endpoint_AVR8.h **** 				                                                 *   no USB endpoint traffic can occur until th
 156:../../tmk_core/protocol/lufa/LUFA-git/LUFA/Drivers/USB/Core/AVR8/../AVR8/Endpoint_AVR8.h **** 				                                                 *   has resumed.
 157:../../tmk_core/protocol/lufa/LUFA-git/LUFA/Drivers/USB/Core/AVR8/../AVR8/Endpoint_AVR8.h **** 				                                                 */
 158:../../tmk_core/protocol/lufa/LUFA-git/LUFA/Drivers/USB/Core/AVR8/../AVR8/Endpoint_AVR8.h **** 				ENDPOINT_READYWAIT_Timeout                 = 4, /**< The host failed to accept or send the next
 159:../../tmk_core/protocol/lufa/LUFA-git/LUFA/Drivers/USB/Core/AVR8/../AVR8/Endpoint_AVR8.h **** 				                                                 *   within the software timeout period set by 
 160:../../tmk_core/protocol/lufa/LUFA-git/LUFA/Drivers/USB/Core/AVR8/../AVR8/Endpoint_AVR8.h **** 				                                                 *   \ref USB_STREAM_TIMEOUT_MS macro.
 161:../../tmk_core/protocol/lufa/LUFA-git/LUFA/Drivers/USB/Core/AVR8/../AVR8/Endpoint_AVR8.h **** 				                                                 */
 162:../../tmk_core/protocol/lufa/LUFA-git/LUFA/Drivers/USB/Core/AVR8/../AVR8/Endpoint_AVR8.h **** 			};
 163:../../tmk_core/protocol/lufa/LUFA-git/LUFA/Drivers/USB/Core/AVR8/../AVR8/Endpoint_AVR8.h **** 
 164:../../tmk_core/protocol/lufa/LUFA-git/LUFA/Drivers/USB/Core/AVR8/../AVR8/Endpoint_AVR8.h **** 		/* Inline Functions: */
 165:../../tmk_core/protocol/lufa/LUFA-git/LUFA/Drivers/USB/Core/AVR8/../AVR8/Endpoint_AVR8.h **** 			/** Configures the specified endpoint address with the given endpoint type, bank size and number
 166:../../tmk_core/protocol/lufa/LUFA-git/LUFA/Drivers/USB/Core/AVR8/../AVR8/Endpoint_AVR8.h **** 			 *  banks. Once configured, the endpoint may be read from or written to, depending on its direct
 167:../../tmk_core/protocol/lufa/LUFA-git/LUFA/Drivers/USB/Core/AVR8/../AVR8/Endpoint_AVR8.h **** 			 *
 168:../../tmk_core/protocol/lufa/LUFA-git/LUFA/Drivers/USB/Core/AVR8/../AVR8/Endpoint_AVR8.h **** 			 *  \param[in] Address    Endpoint address to configure.
 169:../../tmk_core/protocol/lufa/LUFA-git/LUFA/Drivers/USB/Core/AVR8/../AVR8/Endpoint_AVR8.h **** 			 *
 170:../../tmk_core/protocol/lufa/LUFA-git/LUFA/Drivers/USB/Core/AVR8/../AVR8/Endpoint_AVR8.h **** 			 *  \param[in] Type       Type of endpoint to configure, a \c EP_TYPE_* mask. Not all endpoint t
 171:../../tmk_core/protocol/lufa/LUFA-git/LUFA/Drivers/USB/Core/AVR8/../AVR8/Endpoint_AVR8.h **** 			 *                        are available on Low Speed USB devices - refer to the USB 2.0 specific
 172:../../tmk_core/protocol/lufa/LUFA-git/LUFA/Drivers/USB/Core/AVR8/../AVR8/Endpoint_AVR8.h **** 			 *
 173:../../tmk_core/protocol/lufa/LUFA-git/LUFA/Drivers/USB/Core/AVR8/../AVR8/Endpoint_AVR8.h **** 			 *  \param[in] Size       Size of the endpoint's bank, where packets are stored before they are 
 174:../../tmk_core/protocol/lufa/LUFA-git/LUFA/Drivers/USB/Core/AVR8/../AVR8/Endpoint_AVR8.h **** 			 *                        to the USB host, or after they have been received from the USB host (d
 175:../../tmk_core/protocol/lufa/LUFA-git/LUFA/Drivers/USB/Core/AVR8/../AVR8/Endpoint_AVR8.h **** 			 *                        the endpoint's data direction). The bank size must indicate the maximu
 176:../../tmk_core/protocol/lufa/LUFA-git/LUFA/Drivers/USB/Core/AVR8/../AVR8/Endpoint_AVR8.h **** 			 *                        that the endpoint can handle.
 177:../../tmk_core/protocol/lufa/LUFA-git/LUFA/Drivers/USB/Core/AVR8/../AVR8/Endpoint_AVR8.h **** 			 *
 178:../../tmk_core/protocol/lufa/LUFA-git/LUFA/Drivers/USB/Core/AVR8/../AVR8/Endpoint_AVR8.h **** 			 *  \param[in] Banks      Number of banks to use for the endpoint being configured.
 179:../../tmk_core/protocol/lufa/LUFA-git/LUFA/Drivers/USB/Core/AVR8/../AVR8/Endpoint_AVR8.h **** 			 *
 180:../../tmk_core/protocol/lufa/LUFA-git/LUFA/Drivers/USB/Core/AVR8/../AVR8/Endpoint_AVR8.h **** 			 *  \attention When the \c ORDERED_EP_CONFIG compile time option is used, Endpoints <b>must</b> 
 181:../../tmk_core/protocol/lufa/LUFA-git/LUFA/Drivers/USB/Core/AVR8/../AVR8/Endpoint_AVR8.h **** 			 *             ascending order, or bank corruption will occur.
 182:../../tmk_core/protocol/lufa/LUFA-git/LUFA/Drivers/USB/Core/AVR8/../AVR8/Endpoint_AVR8.h **** 			 *
 183:../../tmk_core/protocol/lufa/LUFA-git/LUFA/Drivers/USB/Core/AVR8/../AVR8/Endpoint_AVR8.h **** 			 *  \note Different endpoints may have different maximum packet sizes based on the endpoint's in
 184:../../tmk_core/protocol/lufa/LUFA-git/LUFA/Drivers/USB/Core/AVR8/../AVR8/Endpoint_AVR8.h **** 			 *        refer to the chosen microcontroller model's datasheet to determine the maximum bank si
 185:../../tmk_core/protocol/lufa/LUFA-git/LUFA/Drivers/USB/Core/AVR8/../AVR8/Endpoint_AVR8.h **** 			 *        \n\n
 186:../../tmk_core/protocol/lufa/LUFA-git/LUFA/Drivers/USB/Core/AVR8/../AVR8/Endpoint_AVR8.h **** 			 *
 187:../../tmk_core/protocol/lufa/LUFA-git/LUFA/Drivers/USB/Core/AVR8/../AVR8/Endpoint_AVR8.h **** 			 *  \note The default control endpoint should not be manually configured by the user application
 188:../../tmk_core/protocol/lufa/LUFA-git/LUFA/Drivers/USB/Core/AVR8/../AVR8/Endpoint_AVR8.h **** 			 *        it is automatically configured by the library internally.
 189:../../tmk_core/protocol/lufa/LUFA-git/LUFA/Drivers/USB/Core/AVR8/../AVR8/Endpoint_AVR8.h **** 			 *        \n\n
 190:../../tmk_core/protocol/lufa/LUFA-git/LUFA/Drivers/USB/Core/AVR8/../AVR8/Endpoint_AVR8.h **** 			 *
 191:../../tmk_core/protocol/lufa/LUFA-git/LUFA/Drivers/USB/Core/AVR8/../AVR8/Endpoint_AVR8.h **** 			 *  \note This routine will automatically select the specified endpoint upon success. Upon failu
 192:../../tmk_core/protocol/lufa/LUFA-git/LUFA/Drivers/USB/Core/AVR8/../AVR8/Endpoint_AVR8.h **** 			 *        which failed to reconfigure correctly will be selected.
 193:../../tmk_core/protocol/lufa/LUFA-git/LUFA/Drivers/USB/Core/AVR8/../AVR8/Endpoint_AVR8.h **** 			 *
 194:../../tmk_core/protocol/lufa/LUFA-git/LUFA/Drivers/USB/Core/AVR8/../AVR8/Endpoint_AVR8.h **** 			 *  \return Boolean \c true if the configuration succeeded, \c false otherwise.
 195:../../tmk_core/protocol/lufa/LUFA-git/LUFA/Drivers/USB/Core/AVR8/../AVR8/Endpoint_AVR8.h **** 			 */
 196:../../tmk_core/protocol/lufa/LUFA-git/LUFA/Drivers/USB/Core/AVR8/../AVR8/Endpoint_AVR8.h **** 			static inline bool Endpoint_ConfigureEndpoint(const uint8_t Address,
 197:../../tmk_core/protocol/lufa/LUFA-git/LUFA/Drivers/USB/Core/AVR8/../AVR8/Endpoint_AVR8.h **** 			                                              const uint8_t Type,
 198:../../tmk_core/protocol/lufa/LUFA-git/LUFA/Drivers/USB/Core/AVR8/../AVR8/Endpoint_AVR8.h **** 			                                              const uint16_t Size,
 199:../../tmk_core/protocol/lufa/LUFA-git/LUFA/Drivers/USB/Core/AVR8/../AVR8/Endpoint_AVR8.h **** 			                                              const uint8_t Banks) ATTR_ALWAYS_INLINE;
 200:../../tmk_core/protocol/lufa/LUFA-git/LUFA/Drivers/USB/Core/AVR8/../AVR8/Endpoint_AVR8.h **** 			static inline bool Endpoint_ConfigureEndpoint(const uint8_t Address,
 201:../../tmk_core/protocol/lufa/LUFA-git/LUFA/Drivers/USB/Core/AVR8/../AVR8/Endpoint_AVR8.h **** 			                                              const uint8_t Type,
 202:../../tmk_core/protocol/lufa/LUFA-git/LUFA/Drivers/USB/Core/AVR8/../AVR8/Endpoint_AVR8.h **** 			                                              const uint16_t Size,
 203:../../tmk_core/protocol/lufa/LUFA-git/LUFA/Drivers/USB/Core/AVR8/../AVR8/Endpoint_AVR8.h **** 			                                              const uint8_t Banks)
 204:../../tmk_core/protocol/lufa/LUFA-git/LUFA/Drivers/USB/Core/AVR8/../AVR8/Endpoint_AVR8.h **** 			{
 205:../../tmk_core/protocol/lufa/LUFA-git/LUFA/Drivers/USB/Core/AVR8/../AVR8/Endpoint_AVR8.h **** 				uint8_t Number = (Address & ENDPOINT_EPNUM_MASK);
 206:../../tmk_core/protocol/lufa/LUFA-git/LUFA/Drivers/USB/Core/AVR8/../AVR8/Endpoint_AVR8.h **** 
 207:../../tmk_core/protocol/lufa/LUFA-git/LUFA/Drivers/USB/Core/AVR8/../AVR8/Endpoint_AVR8.h **** 				if (Number >= ENDPOINT_TOTAL_ENDPOINTS)
 208:../../tmk_core/protocol/lufa/LUFA-git/LUFA/Drivers/USB/Core/AVR8/../AVR8/Endpoint_AVR8.h **** 				  return false;
 209:../../tmk_core/protocol/lufa/LUFA-git/LUFA/Drivers/USB/Core/AVR8/../AVR8/Endpoint_AVR8.h **** 
 210:../../tmk_core/protocol/lufa/LUFA-git/LUFA/Drivers/USB/Core/AVR8/../AVR8/Endpoint_AVR8.h **** 				return Endpoint_ConfigureEndpoint_Prv(Number,
 211:../../tmk_core/protocol/lufa/LUFA-git/LUFA/Drivers/USB/Core/AVR8/../AVR8/Endpoint_AVR8.h **** 				                                      ((Type << EPTYPE0) | ((Address & ENDPOINT_DIR_IN) ? (1 <<
 212:../../tmk_core/protocol/lufa/LUFA-git/LUFA/Drivers/USB/Core/AVR8/../AVR8/Endpoint_AVR8.h **** 				                                      ((1 << ALLOC) | ((Banks > 1) ? (1 << EPBK0) : 0) | Endpoi
 213:../../tmk_core/protocol/lufa/LUFA-git/LUFA/Drivers/USB/Core/AVR8/../AVR8/Endpoint_AVR8.h **** 			}
 214:../../tmk_core/protocol/lufa/LUFA-git/LUFA/Drivers/USB/Core/AVR8/../AVR8/Endpoint_AVR8.h **** 
 215:../../tmk_core/protocol/lufa/LUFA-git/LUFA/Drivers/USB/Core/AVR8/../AVR8/Endpoint_AVR8.h **** 			/** Indicates the number of bytes currently stored in the current endpoint's selected bank.
 216:../../tmk_core/protocol/lufa/LUFA-git/LUFA/Drivers/USB/Core/AVR8/../AVR8/Endpoint_AVR8.h **** 			 *
 217:../../tmk_core/protocol/lufa/LUFA-git/LUFA/Drivers/USB/Core/AVR8/../AVR8/Endpoint_AVR8.h **** 			 *  \ingroup Group_EndpointRW_AVR8
 218:../../tmk_core/protocol/lufa/LUFA-git/LUFA/Drivers/USB/Core/AVR8/../AVR8/Endpoint_AVR8.h **** 			 *
 219:../../tmk_core/protocol/lufa/LUFA-git/LUFA/Drivers/USB/Core/AVR8/../AVR8/Endpoint_AVR8.h **** 			 *  \return Total number of bytes in the currently selected Endpoint's FIFO buffer.
 220:../../tmk_core/protocol/lufa/LUFA-git/LUFA/Drivers/USB/Core/AVR8/../AVR8/Endpoint_AVR8.h **** 			 */
 221:../../tmk_core/protocol/lufa/LUFA-git/LUFA/Drivers/USB/Core/AVR8/../AVR8/Endpoint_AVR8.h **** 			static inline uint16_t Endpoint_BytesInEndpoint(void) ATTR_WARN_UNUSED_RESULT ATTR_ALWAYS_INLINE
 222:../../tmk_core/protocol/lufa/LUFA-git/LUFA/Drivers/USB/Core/AVR8/../AVR8/Endpoint_AVR8.h **** 			static inline uint16_t Endpoint_BytesInEndpoint(void)
 223:../../tmk_core/protocol/lufa/LUFA-git/LUFA/Drivers/USB/Core/AVR8/../AVR8/Endpoint_AVR8.h **** 			{
 224:../../tmk_core/protocol/lufa/LUFA-git/LUFA/Drivers/USB/Core/AVR8/../AVR8/Endpoint_AVR8.h **** 				#if (defined(USB_SERIES_6_AVR) || defined(USB_SERIES_7_AVR))
 225:../../tmk_core/protocol/lufa/LUFA-git/LUFA/Drivers/USB/Core/AVR8/../AVR8/Endpoint_AVR8.h **** 					return UEBCX;
 226:../../tmk_core/protocol/lufa/LUFA-git/LUFA/Drivers/USB/Core/AVR8/../AVR8/Endpoint_AVR8.h **** 				#elif defined(USB_SERIES_4_AVR)
 227:../../tmk_core/protocol/lufa/LUFA-git/LUFA/Drivers/USB/Core/AVR8/../AVR8/Endpoint_AVR8.h **** 					return (((uint16_t)UEBCHX << 8) | UEBCLX);
 228:../../tmk_core/protocol/lufa/LUFA-git/LUFA/Drivers/USB/Core/AVR8/../AVR8/Endpoint_AVR8.h **** 				#elif defined(USB_SERIES_2_AVR)
 229:../../tmk_core/protocol/lufa/LUFA-git/LUFA/Drivers/USB/Core/AVR8/../AVR8/Endpoint_AVR8.h **** 					return UEBCLX;
 230:../../tmk_core/protocol/lufa/LUFA-git/LUFA/Drivers/USB/Core/AVR8/../AVR8/Endpoint_AVR8.h **** 				#endif
 231:../../tmk_core/protocol/lufa/LUFA-git/LUFA/Drivers/USB/Core/AVR8/../AVR8/Endpoint_AVR8.h **** 			}
 232:../../tmk_core/protocol/lufa/LUFA-git/LUFA/Drivers/USB/Core/AVR8/../AVR8/Endpoint_AVR8.h **** 
 233:../../tmk_core/protocol/lufa/LUFA-git/LUFA/Drivers/USB/Core/AVR8/../AVR8/Endpoint_AVR8.h **** 			/** Determines the currently selected endpoint's direction.
 234:../../tmk_core/protocol/lufa/LUFA-git/LUFA/Drivers/USB/Core/AVR8/../AVR8/Endpoint_AVR8.h **** 			 *
 235:../../tmk_core/protocol/lufa/LUFA-git/LUFA/Drivers/USB/Core/AVR8/../AVR8/Endpoint_AVR8.h **** 			 *  \return The currently selected endpoint's direction, as a \c ENDPOINT_DIR_* mask.
 236:../../tmk_core/protocol/lufa/LUFA-git/LUFA/Drivers/USB/Core/AVR8/../AVR8/Endpoint_AVR8.h **** 			 */
 237:../../tmk_core/protocol/lufa/LUFA-git/LUFA/Drivers/USB/Core/AVR8/../AVR8/Endpoint_AVR8.h **** 			static inline uint8_t Endpoint_GetEndpointDirection(void) ATTR_WARN_UNUSED_RESULT ATTR_ALWAYS_IN
 238:../../tmk_core/protocol/lufa/LUFA-git/LUFA/Drivers/USB/Core/AVR8/../AVR8/Endpoint_AVR8.h **** 			static inline uint8_t Endpoint_GetEndpointDirection(void)
 239:../../tmk_core/protocol/lufa/LUFA-git/LUFA/Drivers/USB/Core/AVR8/../AVR8/Endpoint_AVR8.h **** 			{
 240:../../tmk_core/protocol/lufa/LUFA-git/LUFA/Drivers/USB/Core/AVR8/../AVR8/Endpoint_AVR8.h **** 				return (UECFG0X & (1 << EPDIR)) ? ENDPOINT_DIR_IN : ENDPOINT_DIR_OUT;
 241:../../tmk_core/protocol/lufa/LUFA-git/LUFA/Drivers/USB/Core/AVR8/../AVR8/Endpoint_AVR8.h **** 			}
 242:../../tmk_core/protocol/lufa/LUFA-git/LUFA/Drivers/USB/Core/AVR8/../AVR8/Endpoint_AVR8.h **** 
 243:../../tmk_core/protocol/lufa/LUFA-git/LUFA/Drivers/USB/Core/AVR8/../AVR8/Endpoint_AVR8.h **** 			/** Get the endpoint address of the currently selected endpoint. This is typically used to save
 244:../../tmk_core/protocol/lufa/LUFA-git/LUFA/Drivers/USB/Core/AVR8/../AVR8/Endpoint_AVR8.h **** 			 *  the currently selected endpoint so that it can be restored after another endpoint has been
 245:../../tmk_core/protocol/lufa/LUFA-git/LUFA/Drivers/USB/Core/AVR8/../AVR8/Endpoint_AVR8.h **** 			 *  manipulated.
 246:../../tmk_core/protocol/lufa/LUFA-git/LUFA/Drivers/USB/Core/AVR8/../AVR8/Endpoint_AVR8.h **** 			 *
 247:../../tmk_core/protocol/lufa/LUFA-git/LUFA/Drivers/USB/Core/AVR8/../AVR8/Endpoint_AVR8.h **** 			 *  \return Index of the currently selected endpoint.
 248:../../tmk_core/protocol/lufa/LUFA-git/LUFA/Drivers/USB/Core/AVR8/../AVR8/Endpoint_AVR8.h **** 			 */
 249:../../tmk_core/protocol/lufa/LUFA-git/LUFA/Drivers/USB/Core/AVR8/../AVR8/Endpoint_AVR8.h **** 			static inline uint8_t Endpoint_GetCurrentEndpoint(void) ATTR_WARN_UNUSED_RESULT ATTR_ALWAYS_INLI
 250:../../tmk_core/protocol/lufa/LUFA-git/LUFA/Drivers/USB/Core/AVR8/../AVR8/Endpoint_AVR8.h **** 			static inline uint8_t Endpoint_GetCurrentEndpoint(void)
 251:../../tmk_core/protocol/lufa/LUFA-git/LUFA/Drivers/USB/Core/AVR8/../AVR8/Endpoint_AVR8.h **** 			{
 252:../../tmk_core/protocol/lufa/LUFA-git/LUFA/Drivers/USB/Core/AVR8/../AVR8/Endpoint_AVR8.h **** 				#if !defined(CONTROL_ONLY_DEVICE)
 253:../../tmk_core/protocol/lufa/LUFA-git/LUFA/Drivers/USB/Core/AVR8/../AVR8/Endpoint_AVR8.h **** 					return ((UENUM & ENDPOINT_EPNUM_MASK) | Endpoint_GetEndpointDirection());
 254:../../tmk_core/protocol/lufa/LUFA-git/LUFA/Drivers/USB/Core/AVR8/../AVR8/Endpoint_AVR8.h **** 				#else
 255:../../tmk_core/protocol/lufa/LUFA-git/LUFA/Drivers/USB/Core/AVR8/../AVR8/Endpoint_AVR8.h **** 					return ENDPOINT_CONTROLEP;
 256:../../tmk_core/protocol/lufa/LUFA-git/LUFA/Drivers/USB/Core/AVR8/../AVR8/Endpoint_AVR8.h **** 				#endif
 257:../../tmk_core/protocol/lufa/LUFA-git/LUFA/Drivers/USB/Core/AVR8/../AVR8/Endpoint_AVR8.h **** 			}
 258:../../tmk_core/protocol/lufa/LUFA-git/LUFA/Drivers/USB/Core/AVR8/../AVR8/Endpoint_AVR8.h **** 
 259:../../tmk_core/protocol/lufa/LUFA-git/LUFA/Drivers/USB/Core/AVR8/../AVR8/Endpoint_AVR8.h **** 			/** Selects the given endpoint address.
 260:../../tmk_core/protocol/lufa/LUFA-git/LUFA/Drivers/USB/Core/AVR8/../AVR8/Endpoint_AVR8.h **** 			 *
 261:../../tmk_core/protocol/lufa/LUFA-git/LUFA/Drivers/USB/Core/AVR8/../AVR8/Endpoint_AVR8.h **** 			 *  Any endpoint operations which do not require the endpoint address to be indicated will opera
 262:../../tmk_core/protocol/lufa/LUFA-git/LUFA/Drivers/USB/Core/AVR8/../AVR8/Endpoint_AVR8.h **** 			 *  the currently selected endpoint.
 263:../../tmk_core/protocol/lufa/LUFA-git/LUFA/Drivers/USB/Core/AVR8/../AVR8/Endpoint_AVR8.h **** 			 *
 264:../../tmk_core/protocol/lufa/LUFA-git/LUFA/Drivers/USB/Core/AVR8/../AVR8/Endpoint_AVR8.h **** 			 *  \param[in] Address Endpoint address to select.
 265:../../tmk_core/protocol/lufa/LUFA-git/LUFA/Drivers/USB/Core/AVR8/../AVR8/Endpoint_AVR8.h **** 			 */
 266:../../tmk_core/protocol/lufa/LUFA-git/LUFA/Drivers/USB/Core/AVR8/../AVR8/Endpoint_AVR8.h **** 			static inline void Endpoint_SelectEndpoint(const uint8_t Address) ATTR_ALWAYS_INLINE;
 267:../../tmk_core/protocol/lufa/LUFA-git/LUFA/Drivers/USB/Core/AVR8/../AVR8/Endpoint_AVR8.h **** 			static inline void Endpoint_SelectEndpoint(const uint8_t Address)
  76               		.loc 2 267 23 view .LVU12
  77               	.LBB248:
 268:../../tmk_core/protocol/lufa/LUFA-git/LUFA/Drivers/USB/Core/AVR8/../AVR8/Endpoint_AVR8.h **** 			{
 269:../../tmk_core/protocol/lufa/LUFA-git/LUFA/Drivers/USB/Core/AVR8/../AVR8/Endpoint_AVR8.h **** 				#if !defined(CONTROL_ONLY_DEVICE)
 270:../../tmk_core/protocol/lufa/LUFA-git/LUFA/Drivers/USB/Core/AVR8/../AVR8/Endpoint_AVR8.h **** 					UENUM = (Address & ENDPOINT_EPNUM_MASK);
  78               		.loc 2 270 6 view .LVU13
  79               		.loc 2 270 12 is_stmt 0 view .LVU14
  80 001c 2093 E900 		sts 233,r18
  81               	.LVL3:
  82               		.loc 2 270 12 view .LVU15
  83 0020 8FEF      		ldi r24,lo8(-1)
  84               	.LVL4:
  85               	.L4:
  86               		.loc 2 270 12 view .LVU16
  87               	.LBE248:
  88               	.LBE247:
  89               	.LBB249:
  90               	.LBI249:
 271:../../tmk_core/protocol/lufa/LUFA-git/LUFA/Drivers/USB/Core/AVR8/../AVR8/Endpoint_AVR8.h **** 				#endif
 272:../../tmk_core/protocol/lufa/LUFA-git/LUFA/Drivers/USB/Core/AVR8/../AVR8/Endpoint_AVR8.h **** 			}
 273:../../tmk_core/protocol/lufa/LUFA-git/LUFA/Drivers/USB/Core/AVR8/../AVR8/Endpoint_AVR8.h **** 
 274:../../tmk_core/protocol/lufa/LUFA-git/LUFA/Drivers/USB/Core/AVR8/../AVR8/Endpoint_AVR8.h **** 			/** Resets the endpoint bank FIFO. This clears all the endpoint banks and resets the USB control
 275:../../tmk_core/protocol/lufa/LUFA-git/LUFA/Drivers/USB/Core/AVR8/../AVR8/Endpoint_AVR8.h **** 			 *  data In and Out pointers to the bank's contents.
 276:../../tmk_core/protocol/lufa/LUFA-git/LUFA/Drivers/USB/Core/AVR8/../AVR8/Endpoint_AVR8.h **** 			 *
 277:../../tmk_core/protocol/lufa/LUFA-git/LUFA/Drivers/USB/Core/AVR8/../AVR8/Endpoint_AVR8.h **** 			 *  \param[in] Address  Endpoint address whose FIFO buffers are to be reset.
 278:../../tmk_core/protocol/lufa/LUFA-git/LUFA/Drivers/USB/Core/AVR8/../AVR8/Endpoint_AVR8.h **** 			 */
 279:../../tmk_core/protocol/lufa/LUFA-git/LUFA/Drivers/USB/Core/AVR8/../AVR8/Endpoint_AVR8.h **** 			static inline void Endpoint_ResetEndpoint(const uint8_t Address) ATTR_ALWAYS_INLINE;
 280:../../tmk_core/protocol/lufa/LUFA-git/LUFA/Drivers/USB/Core/AVR8/../AVR8/Endpoint_AVR8.h **** 			static inline void Endpoint_ResetEndpoint(const uint8_t Address)
 281:../../tmk_core/protocol/lufa/LUFA-git/LUFA/Drivers/USB/Core/AVR8/../AVR8/Endpoint_AVR8.h **** 			{
 282:../../tmk_core/protocol/lufa/LUFA-git/LUFA/Drivers/USB/Core/AVR8/../AVR8/Endpoint_AVR8.h **** 				UERST = (1 << (Address & ENDPOINT_EPNUM_MASK));
 283:../../tmk_core/protocol/lufa/LUFA-git/LUFA/Drivers/USB/Core/AVR8/../AVR8/Endpoint_AVR8.h **** 				UERST = 0;
 284:../../tmk_core/protocol/lufa/LUFA-git/LUFA/Drivers/USB/Core/AVR8/../AVR8/Endpoint_AVR8.h **** 			}
 285:../../tmk_core/protocol/lufa/LUFA-git/LUFA/Drivers/USB/Core/AVR8/../AVR8/Endpoint_AVR8.h **** 
 286:../../tmk_core/protocol/lufa/LUFA-git/LUFA/Drivers/USB/Core/AVR8/../AVR8/Endpoint_AVR8.h **** 			/** Enables the currently selected endpoint so that data can be sent and received through it to
 287:../../tmk_core/protocol/lufa/LUFA-git/LUFA/Drivers/USB/Core/AVR8/../AVR8/Endpoint_AVR8.h **** 			 *  and from a host.
 288:../../tmk_core/protocol/lufa/LUFA-git/LUFA/Drivers/USB/Core/AVR8/../AVR8/Endpoint_AVR8.h **** 			 *
 289:../../tmk_core/protocol/lufa/LUFA-git/LUFA/Drivers/USB/Core/AVR8/../AVR8/Endpoint_AVR8.h **** 			 *  \note Endpoints must first be configured properly via \ref Endpoint_ConfigureEndpoint().
 290:../../tmk_core/protocol/lufa/LUFA-git/LUFA/Drivers/USB/Core/AVR8/../AVR8/Endpoint_AVR8.h **** 			 */
 291:../../tmk_core/protocol/lufa/LUFA-git/LUFA/Drivers/USB/Core/AVR8/../AVR8/Endpoint_AVR8.h **** 			static inline void Endpoint_EnableEndpoint(void) ATTR_ALWAYS_INLINE;
 292:../../tmk_core/protocol/lufa/LUFA-git/LUFA/Drivers/USB/Core/AVR8/../AVR8/Endpoint_AVR8.h **** 			static inline void Endpoint_EnableEndpoint(void)
 293:../../tmk_core/protocol/lufa/LUFA-git/LUFA/Drivers/USB/Core/AVR8/../AVR8/Endpoint_AVR8.h **** 			{
 294:../../tmk_core/protocol/lufa/LUFA-git/LUFA/Drivers/USB/Core/AVR8/../AVR8/Endpoint_AVR8.h **** 				UECONX |= (1 << EPEN);
 295:../../tmk_core/protocol/lufa/LUFA-git/LUFA/Drivers/USB/Core/AVR8/../AVR8/Endpoint_AVR8.h **** 			}
 296:../../tmk_core/protocol/lufa/LUFA-git/LUFA/Drivers/USB/Core/AVR8/../AVR8/Endpoint_AVR8.h **** 
 297:../../tmk_core/protocol/lufa/LUFA-git/LUFA/Drivers/USB/Core/AVR8/../AVR8/Endpoint_AVR8.h **** 			/** Disables the currently selected endpoint so that data cannot be sent and received through it
 298:../../tmk_core/protocol/lufa/LUFA-git/LUFA/Drivers/USB/Core/AVR8/../AVR8/Endpoint_AVR8.h **** 			 *  to and from a host.
 299:../../tmk_core/protocol/lufa/LUFA-git/LUFA/Drivers/USB/Core/AVR8/../AVR8/Endpoint_AVR8.h **** 			 */
 300:../../tmk_core/protocol/lufa/LUFA-git/LUFA/Drivers/USB/Core/AVR8/../AVR8/Endpoint_AVR8.h **** 			static inline void Endpoint_DisableEndpoint(void) ATTR_ALWAYS_INLINE;
 301:../../tmk_core/protocol/lufa/LUFA-git/LUFA/Drivers/USB/Core/AVR8/../AVR8/Endpoint_AVR8.h **** 			static inline void Endpoint_DisableEndpoint(void)
 302:../../tmk_core/protocol/lufa/LUFA-git/LUFA/Drivers/USB/Core/AVR8/../AVR8/Endpoint_AVR8.h **** 			{
 303:../../tmk_core/protocol/lufa/LUFA-git/LUFA/Drivers/USB/Core/AVR8/../AVR8/Endpoint_AVR8.h **** 				UECONX &= ~(1 << EPEN);
 304:../../tmk_core/protocol/lufa/LUFA-git/LUFA/Drivers/USB/Core/AVR8/../AVR8/Endpoint_AVR8.h **** 			}
 305:../../tmk_core/protocol/lufa/LUFA-git/LUFA/Drivers/USB/Core/AVR8/../AVR8/Endpoint_AVR8.h **** 
 306:../../tmk_core/protocol/lufa/LUFA-git/LUFA/Drivers/USB/Core/AVR8/../AVR8/Endpoint_AVR8.h **** 			/** Determines if the currently selected endpoint is enabled, but not necessarily configured.
 307:../../tmk_core/protocol/lufa/LUFA-git/LUFA/Drivers/USB/Core/AVR8/../AVR8/Endpoint_AVR8.h **** 			 *
 308:../../tmk_core/protocol/lufa/LUFA-git/LUFA/Drivers/USB/Core/AVR8/../AVR8/Endpoint_AVR8.h **** 			 * \return Boolean \c true if the currently selected endpoint is enabled, \c false otherwise.
 309:../../tmk_core/protocol/lufa/LUFA-git/LUFA/Drivers/USB/Core/AVR8/../AVR8/Endpoint_AVR8.h **** 			 */
 310:../../tmk_core/protocol/lufa/LUFA-git/LUFA/Drivers/USB/Core/AVR8/../AVR8/Endpoint_AVR8.h **** 			static inline bool Endpoint_IsEnabled(void) ATTR_WARN_UNUSED_RESULT ATTR_ALWAYS_INLINE;
 311:../../tmk_core/protocol/lufa/LUFA-git/LUFA/Drivers/USB/Core/AVR8/../AVR8/Endpoint_AVR8.h **** 			static inline bool Endpoint_IsEnabled(void)
 312:../../tmk_core/protocol/lufa/LUFA-git/LUFA/Drivers/USB/Core/AVR8/../AVR8/Endpoint_AVR8.h **** 			{
 313:../../tmk_core/protocol/lufa/LUFA-git/LUFA/Drivers/USB/Core/AVR8/../AVR8/Endpoint_AVR8.h **** 				return ((UECONX & (1 << EPEN)) ? true : false);
 314:../../tmk_core/protocol/lufa/LUFA-git/LUFA/Drivers/USB/Core/AVR8/../AVR8/Endpoint_AVR8.h **** 			}
 315:../../tmk_core/protocol/lufa/LUFA-git/LUFA/Drivers/USB/Core/AVR8/../AVR8/Endpoint_AVR8.h **** 
 316:../../tmk_core/protocol/lufa/LUFA-git/LUFA/Drivers/USB/Core/AVR8/../AVR8/Endpoint_AVR8.h **** 			/** Retrieves the number of busy banks in the currently selected endpoint, which have been queue
 317:../../tmk_core/protocol/lufa/LUFA-git/LUFA/Drivers/USB/Core/AVR8/../AVR8/Endpoint_AVR8.h **** 			 *  transmission via the \ref Endpoint_ClearIN() command, or are awaiting acknowledgment via the
 318:../../tmk_core/protocol/lufa/LUFA-git/LUFA/Drivers/USB/Core/AVR8/../AVR8/Endpoint_AVR8.h **** 			 *  \ref Endpoint_ClearOUT() command.
 319:../../tmk_core/protocol/lufa/LUFA-git/LUFA/Drivers/USB/Core/AVR8/../AVR8/Endpoint_AVR8.h **** 			 *
 320:../../tmk_core/protocol/lufa/LUFA-git/LUFA/Drivers/USB/Core/AVR8/../AVR8/Endpoint_AVR8.h **** 			 *  \ingroup Group_EndpointPacketManagement_AVR8
 321:../../tmk_core/protocol/lufa/LUFA-git/LUFA/Drivers/USB/Core/AVR8/../AVR8/Endpoint_AVR8.h **** 			 *
 322:../../tmk_core/protocol/lufa/LUFA-git/LUFA/Drivers/USB/Core/AVR8/../AVR8/Endpoint_AVR8.h **** 			 *  \return Total number of busy banks in the selected endpoint.
 323:../../tmk_core/protocol/lufa/LUFA-git/LUFA/Drivers/USB/Core/AVR8/../AVR8/Endpoint_AVR8.h **** 			 */
 324:../../tmk_core/protocol/lufa/LUFA-git/LUFA/Drivers/USB/Core/AVR8/../AVR8/Endpoint_AVR8.h **** 			static inline uint8_t Endpoint_GetBusyBanks(void) ATTR_ALWAYS_INLINE ATTR_WARN_UNUSED_RESULT;
 325:../../tmk_core/protocol/lufa/LUFA-git/LUFA/Drivers/USB/Core/AVR8/../AVR8/Endpoint_AVR8.h **** 			static inline uint8_t Endpoint_GetBusyBanks(void)
 326:../../tmk_core/protocol/lufa/LUFA-git/LUFA/Drivers/USB/Core/AVR8/../AVR8/Endpoint_AVR8.h **** 			{
 327:../../tmk_core/protocol/lufa/LUFA-git/LUFA/Drivers/USB/Core/AVR8/../AVR8/Endpoint_AVR8.h **** 				return (UESTA0X & (0x03 << NBUSYBK0));
 328:../../tmk_core/protocol/lufa/LUFA-git/LUFA/Drivers/USB/Core/AVR8/../AVR8/Endpoint_AVR8.h **** 			}
 329:../../tmk_core/protocol/lufa/LUFA-git/LUFA/Drivers/USB/Core/AVR8/../AVR8/Endpoint_AVR8.h **** 
 330:../../tmk_core/protocol/lufa/LUFA-git/LUFA/Drivers/USB/Core/AVR8/../AVR8/Endpoint_AVR8.h **** 			/** Aborts all pending IN transactions on the currently selected endpoint, once the bank
 331:../../tmk_core/protocol/lufa/LUFA-git/LUFA/Drivers/USB/Core/AVR8/../AVR8/Endpoint_AVR8.h **** 			 *  has been queued for transmission to the host via \ref Endpoint_ClearIN(). This function
 332:../../tmk_core/protocol/lufa/LUFA-git/LUFA/Drivers/USB/Core/AVR8/../AVR8/Endpoint_AVR8.h **** 			 *  will terminate all queued transactions, resetting the endpoint banks ready for a new
 333:../../tmk_core/protocol/lufa/LUFA-git/LUFA/Drivers/USB/Core/AVR8/../AVR8/Endpoint_AVR8.h **** 			 *  packet.
 334:../../tmk_core/protocol/lufa/LUFA-git/LUFA/Drivers/USB/Core/AVR8/../AVR8/Endpoint_AVR8.h **** 			 *
 335:../../tmk_core/protocol/lufa/LUFA-git/LUFA/Drivers/USB/Core/AVR8/../AVR8/Endpoint_AVR8.h **** 			 *  \ingroup Group_EndpointPacketManagement_AVR8
 336:../../tmk_core/protocol/lufa/LUFA-git/LUFA/Drivers/USB/Core/AVR8/../AVR8/Endpoint_AVR8.h **** 			 */
 337:../../tmk_core/protocol/lufa/LUFA-git/LUFA/Drivers/USB/Core/AVR8/../AVR8/Endpoint_AVR8.h **** 			static inline void Endpoint_AbortPendingIN(void)
 338:../../tmk_core/protocol/lufa/LUFA-git/LUFA/Drivers/USB/Core/AVR8/../AVR8/Endpoint_AVR8.h **** 			{
 339:../../tmk_core/protocol/lufa/LUFA-git/LUFA/Drivers/USB/Core/AVR8/../AVR8/Endpoint_AVR8.h **** 				while (Endpoint_GetBusyBanks() != 0)
 340:../../tmk_core/protocol/lufa/LUFA-git/LUFA/Drivers/USB/Core/AVR8/../AVR8/Endpoint_AVR8.h **** 				{
 341:../../tmk_core/protocol/lufa/LUFA-git/LUFA/Drivers/USB/Core/AVR8/../AVR8/Endpoint_AVR8.h **** 					UEINTX |= (1 << RXOUTI);
 342:../../tmk_core/protocol/lufa/LUFA-git/LUFA/Drivers/USB/Core/AVR8/../AVR8/Endpoint_AVR8.h **** 					while (UEINTX & (1 << RXOUTI));
 343:../../tmk_core/protocol/lufa/LUFA-git/LUFA/Drivers/USB/Core/AVR8/../AVR8/Endpoint_AVR8.h **** 				}
 344:../../tmk_core/protocol/lufa/LUFA-git/LUFA/Drivers/USB/Core/AVR8/../AVR8/Endpoint_AVR8.h **** 			}
 345:../../tmk_core/protocol/lufa/LUFA-git/LUFA/Drivers/USB/Core/AVR8/../AVR8/Endpoint_AVR8.h **** 
 346:../../tmk_core/protocol/lufa/LUFA-git/LUFA/Drivers/USB/Core/AVR8/../AVR8/Endpoint_AVR8.h **** 			/** Determines if the currently selected endpoint may be read from (if data is waiting in the en
 347:../../tmk_core/protocol/lufa/LUFA-git/LUFA/Drivers/USB/Core/AVR8/../AVR8/Endpoint_AVR8.h **** 			 *  bank and the endpoint is an OUT direction, or if the bank is not yet full if the endpoint is
 348:../../tmk_core/protocol/lufa/LUFA-git/LUFA/Drivers/USB/Core/AVR8/../AVR8/Endpoint_AVR8.h **** 			 *  direction). This function will return false if an error has occurred in the endpoint, if the
 349:../../tmk_core/protocol/lufa/LUFA-git/LUFA/Drivers/USB/Core/AVR8/../AVR8/Endpoint_AVR8.h **** 			 *  is an OUT direction and no packet (or an empty packet) has been received, or if the endpoint
 350:../../tmk_core/protocol/lufa/LUFA-git/LUFA/Drivers/USB/Core/AVR8/../AVR8/Endpoint_AVR8.h **** 			 *  direction and the endpoint bank is full.
 351:../../tmk_core/protocol/lufa/LUFA-git/LUFA/Drivers/USB/Core/AVR8/../AVR8/Endpoint_AVR8.h **** 			 *
 352:../../tmk_core/protocol/lufa/LUFA-git/LUFA/Drivers/USB/Core/AVR8/../AVR8/Endpoint_AVR8.h **** 			 *  \ingroup Group_EndpointPacketManagement_AVR8
 353:../../tmk_core/protocol/lufa/LUFA-git/LUFA/Drivers/USB/Core/AVR8/../AVR8/Endpoint_AVR8.h **** 			 *
 354:../../tmk_core/protocol/lufa/LUFA-git/LUFA/Drivers/USB/Core/AVR8/../AVR8/Endpoint_AVR8.h **** 			 *  \return Boolean \c true if the currently selected endpoint may be read from or written to, d
 355:../../tmk_core/protocol/lufa/LUFA-git/LUFA/Drivers/USB/Core/AVR8/../AVR8/Endpoint_AVR8.h **** 			 *          on its direction.
 356:../../tmk_core/protocol/lufa/LUFA-git/LUFA/Drivers/USB/Core/AVR8/../AVR8/Endpoint_AVR8.h **** 			 */
 357:../../tmk_core/protocol/lufa/LUFA-git/LUFA/Drivers/USB/Core/AVR8/../AVR8/Endpoint_AVR8.h **** 			static inline bool Endpoint_IsReadWriteAllowed(void) ATTR_WARN_UNUSED_RESULT ATTR_ALWAYS_INLINE;
 358:../../tmk_core/protocol/lufa/LUFA-git/LUFA/Drivers/USB/Core/AVR8/../AVR8/Endpoint_AVR8.h **** 			static inline bool Endpoint_IsReadWriteAllowed(void)
  91               		.loc 2 358 23 is_stmt 1 view .LVU17
  92               	.LBB250:
 359:../../tmk_core/protocol/lufa/LUFA-git/LUFA/Drivers/USB/Core/AVR8/../AVR8/Endpoint_AVR8.h **** 			{
 360:../../tmk_core/protocol/lufa/LUFA-git/LUFA/Drivers/USB/Core/AVR8/../AVR8/Endpoint_AVR8.h **** 				return ((UEINTX & (1 << RWAL)) ? true : false);
  93               		.loc 2 360 5 view .LVU18
  94               		.loc 2 360 14 is_stmt 0 view .LVU19
  95 0022 9091 E800 		lds r25,232
  96 0026 8150      		subi r24,lo8(-(-1))
  97               	.LVL5:
  98               		.loc 2 360 14 view .LVU20
  99               	.LBE250:
 100               	.LBE249:
 572:../../tmk_core/protocol/lufa/lufa.c **** 
 573:../../tmk_core/protocol/lufa/lufa.c ****     /* Check if write ready for a polling interval around 10ms */
 574:../../tmk_core/protocol/lufa/lufa.c ****     while (timeout-- && !Endpoint_IsReadWriteAllowed()) _delay_us(40);
 101               		.loc 1 574 22 view .LVU21
 102 0028 95FD      		sbrc r25,5
 103 002a 00C0      		rjmp .L5
 104               		.loc 1 574 57 is_stmt 1 view .LVU22
 105               	.LVL6:
 106               	.LBB251:
 107               	.LBI251:
 108               		.file 3 "/usr/local/Cellar/avr-gcc/9.1.0/avr/include/util/delay.h"
   1:/usr/local/Cellar/avr-gcc/9.1.0/avr/include/util/delay.h **** /* Copyright (c) 2002, Marek Michalkiewicz
   2:/usr/local/Cellar/avr-gcc/9.1.0/avr/include/util/delay.h ****    Copyright (c) 2004,2005,2007 Joerg Wunsch
   3:/usr/local/Cellar/avr-gcc/9.1.0/avr/include/util/delay.h ****    Copyright (c) 2007  Florin-Viorel Petrov
   4:/usr/local/Cellar/avr-gcc/9.1.0/avr/include/util/delay.h ****    All rights reserved.
   5:/usr/local/Cellar/avr-gcc/9.1.0/avr/include/util/delay.h **** 
   6:/usr/local/Cellar/avr-gcc/9.1.0/avr/include/util/delay.h ****    Redistribution and use in source and binary forms, with or without
   7:/usr/local/Cellar/avr-gcc/9.1.0/avr/include/util/delay.h ****    modification, are permitted provided that the following conditions are met:
   8:/usr/local/Cellar/avr-gcc/9.1.0/avr/include/util/delay.h **** 
   9:/usr/local/Cellar/avr-gcc/9.1.0/avr/include/util/delay.h ****    * Redistributions of source code must retain the above copyright
  10:/usr/local/Cellar/avr-gcc/9.1.0/avr/include/util/delay.h ****      notice, this list of conditions and the following disclaimer.
  11:/usr/local/Cellar/avr-gcc/9.1.0/avr/include/util/delay.h **** 
  12:/usr/local/Cellar/avr-gcc/9.1.0/avr/include/util/delay.h ****    * Redistributions in binary form must reproduce the above copyright
  13:/usr/local/Cellar/avr-gcc/9.1.0/avr/include/util/delay.h ****      notice, this list of conditions and the following disclaimer in
  14:/usr/local/Cellar/avr-gcc/9.1.0/avr/include/util/delay.h ****      the documentation and/or other materials provided with the
  15:/usr/local/Cellar/avr-gcc/9.1.0/avr/include/util/delay.h ****      distribution.
  16:/usr/local/Cellar/avr-gcc/9.1.0/avr/include/util/delay.h **** 
  17:/usr/local/Cellar/avr-gcc/9.1.0/avr/include/util/delay.h ****    * Neither the name of the copyright holders nor the names of
  18:/usr/local/Cellar/avr-gcc/9.1.0/avr/include/util/delay.h ****      contributors may be used to endorse or promote products derived
  19:/usr/local/Cellar/avr-gcc/9.1.0/avr/include/util/delay.h ****      from this software without specific prior written permission.
  20:/usr/local/Cellar/avr-gcc/9.1.0/avr/include/util/delay.h **** 
  21:/usr/local/Cellar/avr-gcc/9.1.0/avr/include/util/delay.h ****   THIS SOFTWARE IS PROVIDED BY THE COPYRIGHT HOLDERS AND CONTRIBUTORS "AS IS"
  22:/usr/local/Cellar/avr-gcc/9.1.0/avr/include/util/delay.h ****   AND ANY EXPRESS OR IMPLIED WARRANTIES, INCLUDING, BUT NOT LIMITED TO, THE
  23:/usr/local/Cellar/avr-gcc/9.1.0/avr/include/util/delay.h ****   IMPLIED WARRANTIES OF MERCHANTABILITY AND FITNESS FOR A PARTICULAR PURPOSE
  24:/usr/local/Cellar/avr-gcc/9.1.0/avr/include/util/delay.h ****   ARE DISCLAIMED. IN NO EVENT SHALL THE COPYRIGHT OWNER OR CONTRIBUTORS BE
  25:/usr/local/Cellar/avr-gcc/9.1.0/avr/include/util/delay.h ****   LIABLE FOR ANY DIRECT, INDIRECT, INCIDENTAL, SPECIAL, EXEMPLARY, OR
  26:/usr/local/Cellar/avr-gcc/9.1.0/avr/include/util/delay.h ****   CONSEQUENTIAL DAMAGES (INCLUDING, BUT NOT LIMITED TO, PROCUREMENT OF
  27:/usr/local/Cellar/avr-gcc/9.1.0/avr/include/util/delay.h ****   SUBSTITUTE GOODS OR SERVICES; LOSS OF USE, DATA, OR PROFITS; OR BUSINESS
  28:/usr/local/Cellar/avr-gcc/9.1.0/avr/include/util/delay.h ****   INTERRUPTION) HOWEVER CAUSED AND ON ANY THEORY OF LIABILITY, WHETHER IN
  29:/usr/local/Cellar/avr-gcc/9.1.0/avr/include/util/delay.h ****   CONTRACT, STRICT LIABILITY, OR TORT (INCLUDING NEGLIGENCE OR OTHERWISE)
  30:/usr/local/Cellar/avr-gcc/9.1.0/avr/include/util/delay.h ****   ARISING IN ANY WAY OUT OF THE USE OF THIS SOFTWARE, EVEN IF ADVISED OF THE
  31:/usr/local/Cellar/avr-gcc/9.1.0/avr/include/util/delay.h ****   POSSIBILITY OF SUCH DAMAGE. */
  32:/usr/local/Cellar/avr-gcc/9.1.0/avr/include/util/delay.h **** 
  33:/usr/local/Cellar/avr-gcc/9.1.0/avr/include/util/delay.h **** /* $Id: delay.h.in 2506 2016-02-08 10:05:45Z joerg_wunsch $ */
  34:/usr/local/Cellar/avr-gcc/9.1.0/avr/include/util/delay.h **** 
  35:/usr/local/Cellar/avr-gcc/9.1.0/avr/include/util/delay.h **** #ifndef _UTIL_DELAY_H_
  36:/usr/local/Cellar/avr-gcc/9.1.0/avr/include/util/delay.h **** #define _UTIL_DELAY_H_ 1
  37:/usr/local/Cellar/avr-gcc/9.1.0/avr/include/util/delay.h **** 
  38:/usr/local/Cellar/avr-gcc/9.1.0/avr/include/util/delay.h **** #ifndef __DOXYGEN__
  39:/usr/local/Cellar/avr-gcc/9.1.0/avr/include/util/delay.h **** #  ifndef __HAS_DELAY_CYCLES
  40:/usr/local/Cellar/avr-gcc/9.1.0/avr/include/util/delay.h **** #    define __HAS_DELAY_CYCLES 1
  41:/usr/local/Cellar/avr-gcc/9.1.0/avr/include/util/delay.h **** #  endif
  42:/usr/local/Cellar/avr-gcc/9.1.0/avr/include/util/delay.h **** #endif  /* __DOXYGEN__ */
  43:/usr/local/Cellar/avr-gcc/9.1.0/avr/include/util/delay.h **** 
  44:/usr/local/Cellar/avr-gcc/9.1.0/avr/include/util/delay.h **** #include <inttypes.h>
  45:/usr/local/Cellar/avr-gcc/9.1.0/avr/include/util/delay.h **** #include <util/delay_basic.h>
  46:/usr/local/Cellar/avr-gcc/9.1.0/avr/include/util/delay.h **** #include <math.h>
  47:/usr/local/Cellar/avr-gcc/9.1.0/avr/include/util/delay.h **** 
  48:/usr/local/Cellar/avr-gcc/9.1.0/avr/include/util/delay.h **** /** \file */
  49:/usr/local/Cellar/avr-gcc/9.1.0/avr/include/util/delay.h **** /** \defgroup util_delay <util/delay.h>: Convenience functions for busy-wait delay loops
  50:/usr/local/Cellar/avr-gcc/9.1.0/avr/include/util/delay.h ****     \code
  51:/usr/local/Cellar/avr-gcc/9.1.0/avr/include/util/delay.h ****     #define F_CPU 1000000UL  // 1 MHz
  52:/usr/local/Cellar/avr-gcc/9.1.0/avr/include/util/delay.h ****     //#define F_CPU 14.7456E6
  53:/usr/local/Cellar/avr-gcc/9.1.0/avr/include/util/delay.h ****     #include <util/delay.h>
  54:/usr/local/Cellar/avr-gcc/9.1.0/avr/include/util/delay.h ****     \endcode
  55:/usr/local/Cellar/avr-gcc/9.1.0/avr/include/util/delay.h **** 
  56:/usr/local/Cellar/avr-gcc/9.1.0/avr/include/util/delay.h ****     \note As an alternative method, it is possible to pass the
  57:/usr/local/Cellar/avr-gcc/9.1.0/avr/include/util/delay.h ****     F_CPU macro down to the compiler from the Makefile.
  58:/usr/local/Cellar/avr-gcc/9.1.0/avr/include/util/delay.h ****     Obviously, in that case, no \c \#define statement should be
  59:/usr/local/Cellar/avr-gcc/9.1.0/avr/include/util/delay.h ****     used.
  60:/usr/local/Cellar/avr-gcc/9.1.0/avr/include/util/delay.h **** 
  61:/usr/local/Cellar/avr-gcc/9.1.0/avr/include/util/delay.h ****     The functions in this header file are wrappers around the basic
  62:/usr/local/Cellar/avr-gcc/9.1.0/avr/include/util/delay.h ****     busy-wait functions from <util/delay_basic.h>.  They are meant as
  63:/usr/local/Cellar/avr-gcc/9.1.0/avr/include/util/delay.h ****     convenience functions where actual time values can be specified
  64:/usr/local/Cellar/avr-gcc/9.1.0/avr/include/util/delay.h ****     rather than a number of cycles to wait for.  The idea behind is
  65:/usr/local/Cellar/avr-gcc/9.1.0/avr/include/util/delay.h ****     that compile-time constant expressions will be eliminated by
  66:/usr/local/Cellar/avr-gcc/9.1.0/avr/include/util/delay.h ****     compiler optimization so floating-point expressions can be used
  67:/usr/local/Cellar/avr-gcc/9.1.0/avr/include/util/delay.h ****     to calculate the number of delay cycles needed based on the CPU
  68:/usr/local/Cellar/avr-gcc/9.1.0/avr/include/util/delay.h ****     frequency passed by the macro F_CPU.
  69:/usr/local/Cellar/avr-gcc/9.1.0/avr/include/util/delay.h **** 
  70:/usr/local/Cellar/avr-gcc/9.1.0/avr/include/util/delay.h ****     \note In order for these functions to work as intended, compiler
  71:/usr/local/Cellar/avr-gcc/9.1.0/avr/include/util/delay.h ****     optimizations <em>must</em> be enabled, and the delay time
  72:/usr/local/Cellar/avr-gcc/9.1.0/avr/include/util/delay.h ****     <em>must</em> be an expression that is a known constant at
  73:/usr/local/Cellar/avr-gcc/9.1.0/avr/include/util/delay.h ****     compile-time.  If these requirements are not met, the resulting
  74:/usr/local/Cellar/avr-gcc/9.1.0/avr/include/util/delay.h ****     delay will be much longer (and basically unpredictable), and
  75:/usr/local/Cellar/avr-gcc/9.1.0/avr/include/util/delay.h ****     applications that otherwise do not use floating-point calculations
  76:/usr/local/Cellar/avr-gcc/9.1.0/avr/include/util/delay.h ****     will experience severe code bloat by the floating-point library
  77:/usr/local/Cellar/avr-gcc/9.1.0/avr/include/util/delay.h ****     routines linked into the application.
  78:/usr/local/Cellar/avr-gcc/9.1.0/avr/include/util/delay.h **** 
  79:/usr/local/Cellar/avr-gcc/9.1.0/avr/include/util/delay.h ****     The functions available allow the specification of microsecond, and
  80:/usr/local/Cellar/avr-gcc/9.1.0/avr/include/util/delay.h ****     millisecond delays directly, using the application-supplied macro
  81:/usr/local/Cellar/avr-gcc/9.1.0/avr/include/util/delay.h ****     F_CPU as the CPU clock frequency (in Hertz).
  82:/usr/local/Cellar/avr-gcc/9.1.0/avr/include/util/delay.h **** 
  83:/usr/local/Cellar/avr-gcc/9.1.0/avr/include/util/delay.h **** */
  84:/usr/local/Cellar/avr-gcc/9.1.0/avr/include/util/delay.h **** 
  85:/usr/local/Cellar/avr-gcc/9.1.0/avr/include/util/delay.h **** #if !defined(__DOXYGEN__)
  86:/usr/local/Cellar/avr-gcc/9.1.0/avr/include/util/delay.h **** static __inline__ void _delay_us(double __us) __attribute__((__always_inline__));
  87:/usr/local/Cellar/avr-gcc/9.1.0/avr/include/util/delay.h **** static __inline__ void _delay_ms(double __ms) __attribute__((__always_inline__));
  88:/usr/local/Cellar/avr-gcc/9.1.0/avr/include/util/delay.h **** #endif
  89:/usr/local/Cellar/avr-gcc/9.1.0/avr/include/util/delay.h **** 
  90:/usr/local/Cellar/avr-gcc/9.1.0/avr/include/util/delay.h **** #ifndef F_CPU
  91:/usr/local/Cellar/avr-gcc/9.1.0/avr/include/util/delay.h **** /* prevent compiler error by supplying a default */
  92:/usr/local/Cellar/avr-gcc/9.1.0/avr/include/util/delay.h **** # warning "F_CPU not defined for <util/delay.h>"
  93:/usr/local/Cellar/avr-gcc/9.1.0/avr/include/util/delay.h **** /** \ingroup util_delay
  94:/usr/local/Cellar/avr-gcc/9.1.0/avr/include/util/delay.h ****     \def F_CPU
  95:/usr/local/Cellar/avr-gcc/9.1.0/avr/include/util/delay.h ****     \brief CPU frequency in Hz
  96:/usr/local/Cellar/avr-gcc/9.1.0/avr/include/util/delay.h **** 
  97:/usr/local/Cellar/avr-gcc/9.1.0/avr/include/util/delay.h ****     The macro F_CPU specifies the CPU frequency to be considered by
  98:/usr/local/Cellar/avr-gcc/9.1.0/avr/include/util/delay.h ****     the delay macros.  This macro is normally supplied by the
  99:/usr/local/Cellar/avr-gcc/9.1.0/avr/include/util/delay.h ****     environment (e.g. from within a project header, or the project's
 100:/usr/local/Cellar/avr-gcc/9.1.0/avr/include/util/delay.h ****     Makefile).  The value 1 MHz here is only provided as a "vanilla"
 101:/usr/local/Cellar/avr-gcc/9.1.0/avr/include/util/delay.h ****     fallback if no such user-provided definition could be found.
 102:/usr/local/Cellar/avr-gcc/9.1.0/avr/include/util/delay.h **** 
 103:/usr/local/Cellar/avr-gcc/9.1.0/avr/include/util/delay.h ****     In terms of the delay functions, the CPU frequency can be given as
 104:/usr/local/Cellar/avr-gcc/9.1.0/avr/include/util/delay.h ****     a floating-point constant (e.g. 3.6864E6 for 3.6864 MHz).
 105:/usr/local/Cellar/avr-gcc/9.1.0/avr/include/util/delay.h ****     However, the macros in <util/setbaud.h> require it to be an
 106:/usr/local/Cellar/avr-gcc/9.1.0/avr/include/util/delay.h ****     integer value.
 107:/usr/local/Cellar/avr-gcc/9.1.0/avr/include/util/delay.h ****  */
 108:/usr/local/Cellar/avr-gcc/9.1.0/avr/include/util/delay.h **** # define F_CPU 1000000UL
 109:/usr/local/Cellar/avr-gcc/9.1.0/avr/include/util/delay.h **** #endif
 110:/usr/local/Cellar/avr-gcc/9.1.0/avr/include/util/delay.h **** 
 111:/usr/local/Cellar/avr-gcc/9.1.0/avr/include/util/delay.h **** #ifndef __OPTIMIZE__
 112:/usr/local/Cellar/avr-gcc/9.1.0/avr/include/util/delay.h **** # warning "Compiler optimizations disabled; functions from <util/delay.h> won't work as designed"
 113:/usr/local/Cellar/avr-gcc/9.1.0/avr/include/util/delay.h **** #endif
 114:/usr/local/Cellar/avr-gcc/9.1.0/avr/include/util/delay.h **** 
 115:/usr/local/Cellar/avr-gcc/9.1.0/avr/include/util/delay.h **** #if __HAS_DELAY_CYCLES && defined(__OPTIMIZE__) && \
 116:/usr/local/Cellar/avr-gcc/9.1.0/avr/include/util/delay.h ****   !defined(__DELAY_BACKWARD_COMPATIBLE__) &&	   \
 117:/usr/local/Cellar/avr-gcc/9.1.0/avr/include/util/delay.h ****   __STDC_HOSTED__
 118:/usr/local/Cellar/avr-gcc/9.1.0/avr/include/util/delay.h **** #  include <math.h>
 119:/usr/local/Cellar/avr-gcc/9.1.0/avr/include/util/delay.h **** #endif
 120:/usr/local/Cellar/avr-gcc/9.1.0/avr/include/util/delay.h **** 
 121:/usr/local/Cellar/avr-gcc/9.1.0/avr/include/util/delay.h **** /**
 122:/usr/local/Cellar/avr-gcc/9.1.0/avr/include/util/delay.h ****    \ingroup util_delay
 123:/usr/local/Cellar/avr-gcc/9.1.0/avr/include/util/delay.h **** 
 124:/usr/local/Cellar/avr-gcc/9.1.0/avr/include/util/delay.h ****    Perform a delay of \c __ms milliseconds, using _delay_loop_2().
 125:/usr/local/Cellar/avr-gcc/9.1.0/avr/include/util/delay.h **** 
 126:/usr/local/Cellar/avr-gcc/9.1.0/avr/include/util/delay.h ****    The macro F_CPU is supposed to be defined to a
 127:/usr/local/Cellar/avr-gcc/9.1.0/avr/include/util/delay.h ****    constant defining the CPU clock frequency (in Hertz).
 128:/usr/local/Cellar/avr-gcc/9.1.0/avr/include/util/delay.h **** 
 129:/usr/local/Cellar/avr-gcc/9.1.0/avr/include/util/delay.h ****    The maximal possible delay is 262.14 ms / F_CPU in MHz.
 130:/usr/local/Cellar/avr-gcc/9.1.0/avr/include/util/delay.h **** 
 131:/usr/local/Cellar/avr-gcc/9.1.0/avr/include/util/delay.h ****    When the user request delay which exceed the maximum possible one,
 132:/usr/local/Cellar/avr-gcc/9.1.0/avr/include/util/delay.h ****    _delay_ms() provides a decreased resolution functionality. In this
 133:/usr/local/Cellar/avr-gcc/9.1.0/avr/include/util/delay.h ****    mode _delay_ms() will work with a resolution of 1/10 ms, providing
 134:/usr/local/Cellar/avr-gcc/9.1.0/avr/include/util/delay.h ****    delays up to 6.5535 seconds (independent from CPU frequency).  The
 135:/usr/local/Cellar/avr-gcc/9.1.0/avr/include/util/delay.h ****    user will not be informed about decreased resolution.
 136:/usr/local/Cellar/avr-gcc/9.1.0/avr/include/util/delay.h **** 
 137:/usr/local/Cellar/avr-gcc/9.1.0/avr/include/util/delay.h ****    If the avr-gcc toolchain has __builtin_avr_delay_cycles()
 138:/usr/local/Cellar/avr-gcc/9.1.0/avr/include/util/delay.h ****    support, maximal possible delay is 4294967.295 ms/ F_CPU in MHz. For
 139:/usr/local/Cellar/avr-gcc/9.1.0/avr/include/util/delay.h ****    values greater than the maximal possible delay, overflows results in
 140:/usr/local/Cellar/avr-gcc/9.1.0/avr/include/util/delay.h ****    no delay i.e., 0ms.
 141:/usr/local/Cellar/avr-gcc/9.1.0/avr/include/util/delay.h **** 
 142:/usr/local/Cellar/avr-gcc/9.1.0/avr/include/util/delay.h ****    Conversion of \c __ms into clock cycles may not always result in
 143:/usr/local/Cellar/avr-gcc/9.1.0/avr/include/util/delay.h ****    integer.  By default, the clock cycles rounded up to next
 144:/usr/local/Cellar/avr-gcc/9.1.0/avr/include/util/delay.h ****    integer. This ensures that the user gets at least \c __ms
 145:/usr/local/Cellar/avr-gcc/9.1.0/avr/include/util/delay.h ****    microseconds of delay.
 146:/usr/local/Cellar/avr-gcc/9.1.0/avr/include/util/delay.h **** 
 147:/usr/local/Cellar/avr-gcc/9.1.0/avr/include/util/delay.h ****    Alternatively, by defining the macro \c __DELAY_ROUND_DOWN__, or
 148:/usr/local/Cellar/avr-gcc/9.1.0/avr/include/util/delay.h ****    \c __DELAY_ROUND_CLOSEST__, before including this header file, the
 149:/usr/local/Cellar/avr-gcc/9.1.0/avr/include/util/delay.h ****    algorithm can be made to round down, or round to closest integer,
 150:/usr/local/Cellar/avr-gcc/9.1.0/avr/include/util/delay.h ****    respectively.
 151:/usr/local/Cellar/avr-gcc/9.1.0/avr/include/util/delay.h **** 
 152:/usr/local/Cellar/avr-gcc/9.1.0/avr/include/util/delay.h ****    \note
 153:/usr/local/Cellar/avr-gcc/9.1.0/avr/include/util/delay.h **** 
 154:/usr/local/Cellar/avr-gcc/9.1.0/avr/include/util/delay.h ****    The implementation of _delay_ms() based on
 155:/usr/local/Cellar/avr-gcc/9.1.0/avr/include/util/delay.h ****    __builtin_avr_delay_cycles() is not backward compatible with older
 156:/usr/local/Cellar/avr-gcc/9.1.0/avr/include/util/delay.h ****    implementations.  In order to get functionality backward compatible
 157:/usr/local/Cellar/avr-gcc/9.1.0/avr/include/util/delay.h ****    with previous versions, the macro \c "__DELAY_BACKWARD_COMPATIBLE__"
 158:/usr/local/Cellar/avr-gcc/9.1.0/avr/include/util/delay.h ****    must be defined before including this header file. Also, the
 159:/usr/local/Cellar/avr-gcc/9.1.0/avr/include/util/delay.h ****    backward compatible algorithm will be chosen if the code is
 160:/usr/local/Cellar/avr-gcc/9.1.0/avr/include/util/delay.h ****    compiled in a <em>freestanding environment</em> (GCC option
 161:/usr/local/Cellar/avr-gcc/9.1.0/avr/include/util/delay.h ****    \c -ffreestanding), as the math functions required for rounding are
 162:/usr/local/Cellar/avr-gcc/9.1.0/avr/include/util/delay.h ****    not available to the compiler then.
 163:/usr/local/Cellar/avr-gcc/9.1.0/avr/include/util/delay.h **** 
 164:/usr/local/Cellar/avr-gcc/9.1.0/avr/include/util/delay.h ****  */
 165:/usr/local/Cellar/avr-gcc/9.1.0/avr/include/util/delay.h **** void
 166:/usr/local/Cellar/avr-gcc/9.1.0/avr/include/util/delay.h **** _delay_ms(double __ms)
 167:/usr/local/Cellar/avr-gcc/9.1.0/avr/include/util/delay.h **** {
 168:/usr/local/Cellar/avr-gcc/9.1.0/avr/include/util/delay.h **** 	double __tmp ;
 169:/usr/local/Cellar/avr-gcc/9.1.0/avr/include/util/delay.h **** #if __HAS_DELAY_CYCLES && defined(__OPTIMIZE__) && \
 170:/usr/local/Cellar/avr-gcc/9.1.0/avr/include/util/delay.h ****   !defined(__DELAY_BACKWARD_COMPATIBLE__) &&	   \
 171:/usr/local/Cellar/avr-gcc/9.1.0/avr/include/util/delay.h ****   __STDC_HOSTED__
 172:/usr/local/Cellar/avr-gcc/9.1.0/avr/include/util/delay.h **** 	uint32_t __ticks_dc;
 173:/usr/local/Cellar/avr-gcc/9.1.0/avr/include/util/delay.h **** 	extern void __builtin_avr_delay_cycles(unsigned long);
 174:/usr/local/Cellar/avr-gcc/9.1.0/avr/include/util/delay.h **** 	__tmp = ((F_CPU) / 1e3) * __ms;
 175:/usr/local/Cellar/avr-gcc/9.1.0/avr/include/util/delay.h **** 
 176:/usr/local/Cellar/avr-gcc/9.1.0/avr/include/util/delay.h **** 	#if defined(__DELAY_ROUND_DOWN__)
 177:/usr/local/Cellar/avr-gcc/9.1.0/avr/include/util/delay.h **** 		__ticks_dc = (uint32_t)fabs(__tmp);
 178:/usr/local/Cellar/avr-gcc/9.1.0/avr/include/util/delay.h **** 
 179:/usr/local/Cellar/avr-gcc/9.1.0/avr/include/util/delay.h **** 	#elif defined(__DELAY_ROUND_CLOSEST__)
 180:/usr/local/Cellar/avr-gcc/9.1.0/avr/include/util/delay.h **** 		__ticks_dc = (uint32_t)(fabs(__tmp)+0.5);
 181:/usr/local/Cellar/avr-gcc/9.1.0/avr/include/util/delay.h **** 
 182:/usr/local/Cellar/avr-gcc/9.1.0/avr/include/util/delay.h **** 	#else
 183:/usr/local/Cellar/avr-gcc/9.1.0/avr/include/util/delay.h **** 		//round up by default
 184:/usr/local/Cellar/avr-gcc/9.1.0/avr/include/util/delay.h **** 		__ticks_dc = (uint32_t)(ceil(fabs(__tmp)));
 185:/usr/local/Cellar/avr-gcc/9.1.0/avr/include/util/delay.h **** 	#endif
 186:/usr/local/Cellar/avr-gcc/9.1.0/avr/include/util/delay.h **** 
 187:/usr/local/Cellar/avr-gcc/9.1.0/avr/include/util/delay.h **** 	__builtin_avr_delay_cycles(__ticks_dc);
 188:/usr/local/Cellar/avr-gcc/9.1.0/avr/include/util/delay.h **** 
 189:/usr/local/Cellar/avr-gcc/9.1.0/avr/include/util/delay.h **** #else
 190:/usr/local/Cellar/avr-gcc/9.1.0/avr/include/util/delay.h **** 	uint16_t __ticks;
 191:/usr/local/Cellar/avr-gcc/9.1.0/avr/include/util/delay.h **** 	__tmp = ((F_CPU) / 4e3) * __ms;
 192:/usr/local/Cellar/avr-gcc/9.1.0/avr/include/util/delay.h **** 	if (__tmp < 1.0)
 193:/usr/local/Cellar/avr-gcc/9.1.0/avr/include/util/delay.h **** 		__ticks = 1;
 194:/usr/local/Cellar/avr-gcc/9.1.0/avr/include/util/delay.h **** 	else if (__tmp > 65535)
 195:/usr/local/Cellar/avr-gcc/9.1.0/avr/include/util/delay.h **** 	{
 196:/usr/local/Cellar/avr-gcc/9.1.0/avr/include/util/delay.h **** 		//	__ticks = requested delay in 1/10 ms
 197:/usr/local/Cellar/avr-gcc/9.1.0/avr/include/util/delay.h **** 		__ticks = (uint16_t) (__ms * 10.0);
 198:/usr/local/Cellar/avr-gcc/9.1.0/avr/include/util/delay.h **** 		while(__ticks)
 199:/usr/local/Cellar/avr-gcc/9.1.0/avr/include/util/delay.h **** 		{
 200:/usr/local/Cellar/avr-gcc/9.1.0/avr/include/util/delay.h **** 			// wait 1/10 ms
 201:/usr/local/Cellar/avr-gcc/9.1.0/avr/include/util/delay.h **** 			_delay_loop_2(((F_CPU) / 4e3) / 10);
 202:/usr/local/Cellar/avr-gcc/9.1.0/avr/include/util/delay.h **** 			__ticks --;
 203:/usr/local/Cellar/avr-gcc/9.1.0/avr/include/util/delay.h **** 		}
 204:/usr/local/Cellar/avr-gcc/9.1.0/avr/include/util/delay.h **** 		return;
 205:/usr/local/Cellar/avr-gcc/9.1.0/avr/include/util/delay.h **** 	}
 206:/usr/local/Cellar/avr-gcc/9.1.0/avr/include/util/delay.h **** 	else
 207:/usr/local/Cellar/avr-gcc/9.1.0/avr/include/util/delay.h **** 		__ticks = (uint16_t)__tmp;
 208:/usr/local/Cellar/avr-gcc/9.1.0/avr/include/util/delay.h **** 	_delay_loop_2(__ticks);
 209:/usr/local/Cellar/avr-gcc/9.1.0/avr/include/util/delay.h **** #endif
 210:/usr/local/Cellar/avr-gcc/9.1.0/avr/include/util/delay.h **** }
 211:/usr/local/Cellar/avr-gcc/9.1.0/avr/include/util/delay.h **** 
 212:/usr/local/Cellar/avr-gcc/9.1.0/avr/include/util/delay.h **** /**
 213:/usr/local/Cellar/avr-gcc/9.1.0/avr/include/util/delay.h ****    \ingroup util_delay
 214:/usr/local/Cellar/avr-gcc/9.1.0/avr/include/util/delay.h **** 
 215:/usr/local/Cellar/avr-gcc/9.1.0/avr/include/util/delay.h ****    Perform a delay of \c __us microseconds, using _delay_loop_1().
 216:/usr/local/Cellar/avr-gcc/9.1.0/avr/include/util/delay.h **** 
 217:/usr/local/Cellar/avr-gcc/9.1.0/avr/include/util/delay.h ****    The macro F_CPU is supposed to be defined to a
 218:/usr/local/Cellar/avr-gcc/9.1.0/avr/include/util/delay.h ****    constant defining the CPU clock frequency (in Hertz).
 219:/usr/local/Cellar/avr-gcc/9.1.0/avr/include/util/delay.h **** 
 220:/usr/local/Cellar/avr-gcc/9.1.0/avr/include/util/delay.h ****    The maximal possible delay is 768 us / F_CPU in MHz.
 221:/usr/local/Cellar/avr-gcc/9.1.0/avr/include/util/delay.h **** 
 222:/usr/local/Cellar/avr-gcc/9.1.0/avr/include/util/delay.h ****    If the user requests a delay greater than the maximal possible one,
 223:/usr/local/Cellar/avr-gcc/9.1.0/avr/include/util/delay.h ****    _delay_us() will automatically call _delay_ms() instead.  The user
 224:/usr/local/Cellar/avr-gcc/9.1.0/avr/include/util/delay.h ****    will not be informed about this case.
 225:/usr/local/Cellar/avr-gcc/9.1.0/avr/include/util/delay.h **** 
 226:/usr/local/Cellar/avr-gcc/9.1.0/avr/include/util/delay.h ****    If the avr-gcc toolchain has __builtin_avr_delay_cycles()
 227:/usr/local/Cellar/avr-gcc/9.1.0/avr/include/util/delay.h ****    support, maximal possible delay is 4294967.295 us/ F_CPU in MHz. For
 228:/usr/local/Cellar/avr-gcc/9.1.0/avr/include/util/delay.h ****    values greater than the maximal possible delay, overflow results in
 229:/usr/local/Cellar/avr-gcc/9.1.0/avr/include/util/delay.h ****    no delay i.e., 0us.
 230:/usr/local/Cellar/avr-gcc/9.1.0/avr/include/util/delay.h **** 
 231:/usr/local/Cellar/avr-gcc/9.1.0/avr/include/util/delay.h ****    Conversion of \c __us into clock cycles may not always result in
 232:/usr/local/Cellar/avr-gcc/9.1.0/avr/include/util/delay.h ****    integer.  By default, the clock cycles rounded up to next
 233:/usr/local/Cellar/avr-gcc/9.1.0/avr/include/util/delay.h ****    integer. This ensures that the user gets at least \c __us
 234:/usr/local/Cellar/avr-gcc/9.1.0/avr/include/util/delay.h ****    microseconds of delay.
 235:/usr/local/Cellar/avr-gcc/9.1.0/avr/include/util/delay.h **** 
 236:/usr/local/Cellar/avr-gcc/9.1.0/avr/include/util/delay.h ****    Alternatively, by defining the macro \c __DELAY_ROUND_DOWN__, or
 237:/usr/local/Cellar/avr-gcc/9.1.0/avr/include/util/delay.h ****    \c __DELAY_ROUND_CLOSEST__, before including this header file, the
 238:/usr/local/Cellar/avr-gcc/9.1.0/avr/include/util/delay.h ****    algorithm can be made to round down, or round to closest integer,
 239:/usr/local/Cellar/avr-gcc/9.1.0/avr/include/util/delay.h ****    respectively.
 240:/usr/local/Cellar/avr-gcc/9.1.0/avr/include/util/delay.h **** 
 241:/usr/local/Cellar/avr-gcc/9.1.0/avr/include/util/delay.h ****    \note
 242:/usr/local/Cellar/avr-gcc/9.1.0/avr/include/util/delay.h **** 
 243:/usr/local/Cellar/avr-gcc/9.1.0/avr/include/util/delay.h ****    The implementation of _delay_ms() based on
 244:/usr/local/Cellar/avr-gcc/9.1.0/avr/include/util/delay.h ****    __builtin_avr_delay_cycles() is not backward compatible with older
 245:/usr/local/Cellar/avr-gcc/9.1.0/avr/include/util/delay.h ****    implementations.  In order to get functionality backward compatible
 246:/usr/local/Cellar/avr-gcc/9.1.0/avr/include/util/delay.h ****    with previous versions, the macro \c __DELAY_BACKWARD_COMPATIBLE__
 247:/usr/local/Cellar/avr-gcc/9.1.0/avr/include/util/delay.h ****    must be defined before including this header file. Also, the
 248:/usr/local/Cellar/avr-gcc/9.1.0/avr/include/util/delay.h ****    backward compatible algorithm will be chosen if the code is
 249:/usr/local/Cellar/avr-gcc/9.1.0/avr/include/util/delay.h ****    compiled in a <em>freestanding environment</em> (GCC option
 250:/usr/local/Cellar/avr-gcc/9.1.0/avr/include/util/delay.h ****    \c -ffreestanding), as the math functions required for rounding are
 251:/usr/local/Cellar/avr-gcc/9.1.0/avr/include/util/delay.h ****    not available to the compiler then.
 252:/usr/local/Cellar/avr-gcc/9.1.0/avr/include/util/delay.h **** 
 253:/usr/local/Cellar/avr-gcc/9.1.0/avr/include/util/delay.h ****  */
 254:/usr/local/Cellar/avr-gcc/9.1.0/avr/include/util/delay.h **** void
 255:/usr/local/Cellar/avr-gcc/9.1.0/avr/include/util/delay.h **** _delay_us(double __us)
 109               		.loc 3 255 1 view .LVU23
 110               	.LBB252:
 256:/usr/local/Cellar/avr-gcc/9.1.0/avr/include/util/delay.h **** {
 257:/usr/local/Cellar/avr-gcc/9.1.0/avr/include/util/delay.h **** 	double __tmp ;
 111               		.loc 3 257 2 view .LVU24
 258:/usr/local/Cellar/avr-gcc/9.1.0/avr/include/util/delay.h **** #if __HAS_DELAY_CYCLES && defined(__OPTIMIZE__) && \
 259:/usr/local/Cellar/avr-gcc/9.1.0/avr/include/util/delay.h ****   !defined(__DELAY_BACKWARD_COMPATIBLE__) &&	   \
 260:/usr/local/Cellar/avr-gcc/9.1.0/avr/include/util/delay.h ****   __STDC_HOSTED__
 261:/usr/local/Cellar/avr-gcc/9.1.0/avr/include/util/delay.h **** 	uint32_t __ticks_dc;
 112               		.loc 3 261 2 view .LVU25
 262:/usr/local/Cellar/avr-gcc/9.1.0/avr/include/util/delay.h **** 	extern void __builtin_avr_delay_cycles(unsigned long);
 113               		.loc 3 262 2 view .LVU26
 263:/usr/local/Cellar/avr-gcc/9.1.0/avr/include/util/delay.h **** 	__tmp = ((F_CPU) / 1e6) * __us;
 114               		.loc 3 263 2 view .LVU27
 264:/usr/local/Cellar/avr-gcc/9.1.0/avr/include/util/delay.h **** 
 265:/usr/local/Cellar/avr-gcc/9.1.0/avr/include/util/delay.h **** 	#if defined(__DELAY_ROUND_DOWN__)
 266:/usr/local/Cellar/avr-gcc/9.1.0/avr/include/util/delay.h **** 		__ticks_dc = (uint32_t)fabs(__tmp);
 267:/usr/local/Cellar/avr-gcc/9.1.0/avr/include/util/delay.h **** 
 268:/usr/local/Cellar/avr-gcc/9.1.0/avr/include/util/delay.h **** 	#elif defined(__DELAY_ROUND_CLOSEST__)
 269:/usr/local/Cellar/avr-gcc/9.1.0/avr/include/util/delay.h **** 		__ticks_dc = (uint32_t)(fabs(__tmp)+0.5);
 270:/usr/local/Cellar/avr-gcc/9.1.0/avr/include/util/delay.h **** 
 271:/usr/local/Cellar/avr-gcc/9.1.0/avr/include/util/delay.h **** 	#else
 272:/usr/local/Cellar/avr-gcc/9.1.0/avr/include/util/delay.h **** 		//round up by default
 273:/usr/local/Cellar/avr-gcc/9.1.0/avr/include/util/delay.h **** 		__ticks_dc = (uint32_t)(ceil(fabs(__tmp)));
 115               		.loc 3 273 3 view .LVU28
 274:/usr/local/Cellar/avr-gcc/9.1.0/avr/include/util/delay.h **** 	#endif
 275:/usr/local/Cellar/avr-gcc/9.1.0/avr/include/util/delay.h **** 
 276:/usr/local/Cellar/avr-gcc/9.1.0/avr/include/util/delay.h **** 	__builtin_avr_delay_cycles(__ticks_dc);
 116               		.loc 3 276 2 view .LVU29
 117 002c 95ED      		ldi r25,lo8(-43)
 118 002e 9A95      	1:	dec r25
 119 0030 01F4      		brne 1b
 120 0032 0000      		nop
 121               	.LVL7:
 122               		.loc 3 276 2 is_stmt 0 view .LVU30
 123               	.LBE252:
 124               	.LBE251:
 125               		.loc 1 574 11 view .LVU31
 126 0034 8111      		cpse r24,__zero_reg__
 127 0036 00C0      		rjmp .L4
 128               	.LVL8:
 129               	.L5:
 575:../../tmk_core/protocol/lufa/lufa.c ****     if (!Endpoint_IsReadWriteAllowed()) return;
 130               		.loc 1 575 5 is_stmt 1 view .LVU32
 131               	.LBB253:
 132               	.LBI253:
 358:../../tmk_core/protocol/lufa/LUFA-git/LUFA/Drivers/USB/Core/AVR8/../AVR8/Endpoint_AVR8.h **** 			{
 133               		.loc 2 358 23 view .LVU33
 134               	.LBB254:
 135               		.loc 2 360 5 view .LVU34
 136               		.loc 2 360 14 is_stmt 0 view .LVU35
 137 0038 8091 E800 		lds r24,232
 138               	.LBE254:
 139               	.LBE253:
 140               		.loc 1 575 8 view .LVU36
 141 003c 85FF      		sbrs r24,5
 142 003e 00C0      		rjmp .L2
 576:../../tmk_core/protocol/lufa/lufa.c **** 
 577:../../tmk_core/protocol/lufa/lufa.c ****     Endpoint_Write_Stream_LE(&r, sizeof(report_extra_t), NULL);
 143               		.loc 1 577 5 is_stmt 1 view .LVU37
 144 0040 50E0      		ldi r21,0
 145 0042 40E0      		ldi r20,0
 146 0044 63E0      		ldi r22,lo8(3)
 147 0046 70E0      		ldi r23,0
 148 0048 CE01      		movw r24,r28
 149 004a 0196      		adiw r24,1
 150 004c 0E94 0000 		call Endpoint_Write_Stream_LE
 151               	.LVL9:
 578:../../tmk_core/protocol/lufa/lufa.c ****     Endpoint_ClearIN();
 152               		.loc 1 578 5 view .LVU38
 153               	.LBB255:
 154               	.LBI255:
 361:../../tmk_core/protocol/lufa/LUFA-git/LUFA/Drivers/USB/Core/AVR8/../AVR8/Endpoint_AVR8.h **** 			}
 362:../../tmk_core/protocol/lufa/LUFA-git/LUFA/Drivers/USB/Core/AVR8/../AVR8/Endpoint_AVR8.h **** 
 363:../../tmk_core/protocol/lufa/LUFA-git/LUFA/Drivers/USB/Core/AVR8/../AVR8/Endpoint_AVR8.h **** 			/** Determines if the currently selected endpoint is configured.
 364:../../tmk_core/protocol/lufa/LUFA-git/LUFA/Drivers/USB/Core/AVR8/../AVR8/Endpoint_AVR8.h **** 			 *
 365:../../tmk_core/protocol/lufa/LUFA-git/LUFA/Drivers/USB/Core/AVR8/../AVR8/Endpoint_AVR8.h **** 			 *  \return Boolean \c true if the currently selected endpoint has been configured, \c false oth
 366:../../tmk_core/protocol/lufa/LUFA-git/LUFA/Drivers/USB/Core/AVR8/../AVR8/Endpoint_AVR8.h **** 			 */
 367:../../tmk_core/protocol/lufa/LUFA-git/LUFA/Drivers/USB/Core/AVR8/../AVR8/Endpoint_AVR8.h **** 			static inline bool Endpoint_IsConfigured(void) ATTR_WARN_UNUSED_RESULT ATTR_ALWAYS_INLINE;
 368:../../tmk_core/protocol/lufa/LUFA-git/LUFA/Drivers/USB/Core/AVR8/../AVR8/Endpoint_AVR8.h **** 			static inline bool Endpoint_IsConfigured(void)
 369:../../tmk_core/protocol/lufa/LUFA-git/LUFA/Drivers/USB/Core/AVR8/../AVR8/Endpoint_AVR8.h **** 			{
 370:../../tmk_core/protocol/lufa/LUFA-git/LUFA/Drivers/USB/Core/AVR8/../AVR8/Endpoint_AVR8.h **** 				return ((UESTA0X & (1 << CFGOK)) ? true : false);
 371:../../tmk_core/protocol/lufa/LUFA-git/LUFA/Drivers/USB/Core/AVR8/../AVR8/Endpoint_AVR8.h **** 			}
 372:../../tmk_core/protocol/lufa/LUFA-git/LUFA/Drivers/USB/Core/AVR8/../AVR8/Endpoint_AVR8.h **** 
 373:../../tmk_core/protocol/lufa/LUFA-git/LUFA/Drivers/USB/Core/AVR8/../AVR8/Endpoint_AVR8.h **** 			/** Returns a mask indicating which INTERRUPT type endpoints have interrupted - i.e. their
 374:../../tmk_core/protocol/lufa/LUFA-git/LUFA/Drivers/USB/Core/AVR8/../AVR8/Endpoint_AVR8.h **** 			 *  interrupt duration has elapsed. Which endpoints have interrupted can be determined by
 375:../../tmk_core/protocol/lufa/LUFA-git/LUFA/Drivers/USB/Core/AVR8/../AVR8/Endpoint_AVR8.h **** 			 *  masking the return value against <tt>(1 << <i>{Endpoint Number}</i>)</tt>.
 376:../../tmk_core/protocol/lufa/LUFA-git/LUFA/Drivers/USB/Core/AVR8/../AVR8/Endpoint_AVR8.h **** 			 *
 377:../../tmk_core/protocol/lufa/LUFA-git/LUFA/Drivers/USB/Core/AVR8/../AVR8/Endpoint_AVR8.h **** 			 *  \return Mask whose bits indicate which endpoints have interrupted.
 378:../../tmk_core/protocol/lufa/LUFA-git/LUFA/Drivers/USB/Core/AVR8/../AVR8/Endpoint_AVR8.h **** 			 */
 379:../../tmk_core/protocol/lufa/LUFA-git/LUFA/Drivers/USB/Core/AVR8/../AVR8/Endpoint_AVR8.h **** 			static inline uint8_t Endpoint_GetEndpointInterrupts(void) ATTR_WARN_UNUSED_RESULT ATTR_ALWAYS_I
 380:../../tmk_core/protocol/lufa/LUFA-git/LUFA/Drivers/USB/Core/AVR8/../AVR8/Endpoint_AVR8.h **** 			static inline uint8_t Endpoint_GetEndpointInterrupts(void)
 381:../../tmk_core/protocol/lufa/LUFA-git/LUFA/Drivers/USB/Core/AVR8/../AVR8/Endpoint_AVR8.h **** 			{
 382:../../tmk_core/protocol/lufa/LUFA-git/LUFA/Drivers/USB/Core/AVR8/../AVR8/Endpoint_AVR8.h **** 				return UEINT;
 383:../../tmk_core/protocol/lufa/LUFA-git/LUFA/Drivers/USB/Core/AVR8/../AVR8/Endpoint_AVR8.h **** 			}
 384:../../tmk_core/protocol/lufa/LUFA-git/LUFA/Drivers/USB/Core/AVR8/../AVR8/Endpoint_AVR8.h **** 
 385:../../tmk_core/protocol/lufa/LUFA-git/LUFA/Drivers/USB/Core/AVR8/../AVR8/Endpoint_AVR8.h **** 			/** Determines if the specified endpoint number has interrupted (valid only for INTERRUPT type
 386:../../tmk_core/protocol/lufa/LUFA-git/LUFA/Drivers/USB/Core/AVR8/../AVR8/Endpoint_AVR8.h **** 			 *  endpoints).
 387:../../tmk_core/protocol/lufa/LUFA-git/LUFA/Drivers/USB/Core/AVR8/../AVR8/Endpoint_AVR8.h **** 			 *
 388:../../tmk_core/protocol/lufa/LUFA-git/LUFA/Drivers/USB/Core/AVR8/../AVR8/Endpoint_AVR8.h **** 			 *  \param[in] Address  Address of the endpoint whose interrupt flag should be tested.
 389:../../tmk_core/protocol/lufa/LUFA-git/LUFA/Drivers/USB/Core/AVR8/../AVR8/Endpoint_AVR8.h **** 			 *
 390:../../tmk_core/protocol/lufa/LUFA-git/LUFA/Drivers/USB/Core/AVR8/../AVR8/Endpoint_AVR8.h **** 			 *  \return Boolean \c true if the specified endpoint has interrupted, \c false otherwise.
 391:../../tmk_core/protocol/lufa/LUFA-git/LUFA/Drivers/USB/Core/AVR8/../AVR8/Endpoint_AVR8.h **** 			 */
 392:../../tmk_core/protocol/lufa/LUFA-git/LUFA/Drivers/USB/Core/AVR8/../AVR8/Endpoint_AVR8.h **** 			static inline bool Endpoint_HasEndpointInterrupted(const uint8_t Address) ATTR_WARN_UNUSED_RESUL
 393:../../tmk_core/protocol/lufa/LUFA-git/LUFA/Drivers/USB/Core/AVR8/../AVR8/Endpoint_AVR8.h **** 			static inline bool Endpoint_HasEndpointInterrupted(const uint8_t Address)
 394:../../tmk_core/protocol/lufa/LUFA-git/LUFA/Drivers/USB/Core/AVR8/../AVR8/Endpoint_AVR8.h **** 			{
 395:../../tmk_core/protocol/lufa/LUFA-git/LUFA/Drivers/USB/Core/AVR8/../AVR8/Endpoint_AVR8.h **** 				return ((Endpoint_GetEndpointInterrupts() & (1 << (Address & ENDPOINT_EPNUM_MASK))) ? true : fa
 396:../../tmk_core/protocol/lufa/LUFA-git/LUFA/Drivers/USB/Core/AVR8/../AVR8/Endpoint_AVR8.h **** 			}
 397:../../tmk_core/protocol/lufa/LUFA-git/LUFA/Drivers/USB/Core/AVR8/../AVR8/Endpoint_AVR8.h **** 
 398:../../tmk_core/protocol/lufa/LUFA-git/LUFA/Drivers/USB/Core/AVR8/../AVR8/Endpoint_AVR8.h **** 			/** Determines if the selected IN endpoint is ready for a new packet to be sent to the host.
 399:../../tmk_core/protocol/lufa/LUFA-git/LUFA/Drivers/USB/Core/AVR8/../AVR8/Endpoint_AVR8.h **** 			 *
 400:../../tmk_core/protocol/lufa/LUFA-git/LUFA/Drivers/USB/Core/AVR8/../AVR8/Endpoint_AVR8.h **** 			 *  \ingroup Group_EndpointPacketManagement_AVR8
 401:../../tmk_core/protocol/lufa/LUFA-git/LUFA/Drivers/USB/Core/AVR8/../AVR8/Endpoint_AVR8.h **** 			 *
 402:../../tmk_core/protocol/lufa/LUFA-git/LUFA/Drivers/USB/Core/AVR8/../AVR8/Endpoint_AVR8.h **** 			 *  \return Boolean \c true if the current endpoint is ready for an IN packet, \c false otherwis
 403:../../tmk_core/protocol/lufa/LUFA-git/LUFA/Drivers/USB/Core/AVR8/../AVR8/Endpoint_AVR8.h **** 			 */
 404:../../tmk_core/protocol/lufa/LUFA-git/LUFA/Drivers/USB/Core/AVR8/../AVR8/Endpoint_AVR8.h **** 			static inline bool Endpoint_IsINReady(void) ATTR_WARN_UNUSED_RESULT ATTR_ALWAYS_INLINE;
 405:../../tmk_core/protocol/lufa/LUFA-git/LUFA/Drivers/USB/Core/AVR8/../AVR8/Endpoint_AVR8.h **** 			static inline bool Endpoint_IsINReady(void)
 406:../../tmk_core/protocol/lufa/LUFA-git/LUFA/Drivers/USB/Core/AVR8/../AVR8/Endpoint_AVR8.h **** 			{
 407:../../tmk_core/protocol/lufa/LUFA-git/LUFA/Drivers/USB/Core/AVR8/../AVR8/Endpoint_AVR8.h **** 				return ((UEINTX & (1 << TXINI)) ? true : false);
 408:../../tmk_core/protocol/lufa/LUFA-git/LUFA/Drivers/USB/Core/AVR8/../AVR8/Endpoint_AVR8.h **** 			}
 409:../../tmk_core/protocol/lufa/LUFA-git/LUFA/Drivers/USB/Core/AVR8/../AVR8/Endpoint_AVR8.h **** 
 410:../../tmk_core/protocol/lufa/LUFA-git/LUFA/Drivers/USB/Core/AVR8/../AVR8/Endpoint_AVR8.h **** 			/** Determines if the selected OUT endpoint has received new packet from the host.
 411:../../tmk_core/protocol/lufa/LUFA-git/LUFA/Drivers/USB/Core/AVR8/../AVR8/Endpoint_AVR8.h **** 			 *
 412:../../tmk_core/protocol/lufa/LUFA-git/LUFA/Drivers/USB/Core/AVR8/../AVR8/Endpoint_AVR8.h **** 			 *  \ingroup Group_EndpointPacketManagement_AVR8
 413:../../tmk_core/protocol/lufa/LUFA-git/LUFA/Drivers/USB/Core/AVR8/../AVR8/Endpoint_AVR8.h **** 			 *
 414:../../tmk_core/protocol/lufa/LUFA-git/LUFA/Drivers/USB/Core/AVR8/../AVR8/Endpoint_AVR8.h **** 			 *  \return Boolean \c true if current endpoint is has received an OUT packet, \c false otherwis
 415:../../tmk_core/protocol/lufa/LUFA-git/LUFA/Drivers/USB/Core/AVR8/../AVR8/Endpoint_AVR8.h **** 			 */
 416:../../tmk_core/protocol/lufa/LUFA-git/LUFA/Drivers/USB/Core/AVR8/../AVR8/Endpoint_AVR8.h **** 			static inline bool Endpoint_IsOUTReceived(void) ATTR_WARN_UNUSED_RESULT ATTR_ALWAYS_INLINE;
 417:../../tmk_core/protocol/lufa/LUFA-git/LUFA/Drivers/USB/Core/AVR8/../AVR8/Endpoint_AVR8.h **** 			static inline bool Endpoint_IsOUTReceived(void)
 418:../../tmk_core/protocol/lufa/LUFA-git/LUFA/Drivers/USB/Core/AVR8/../AVR8/Endpoint_AVR8.h **** 			{
 419:../../tmk_core/protocol/lufa/LUFA-git/LUFA/Drivers/USB/Core/AVR8/../AVR8/Endpoint_AVR8.h **** 				return ((UEINTX & (1 << RXOUTI)) ? true : false);
 420:../../tmk_core/protocol/lufa/LUFA-git/LUFA/Drivers/USB/Core/AVR8/../AVR8/Endpoint_AVR8.h **** 			}
 421:../../tmk_core/protocol/lufa/LUFA-git/LUFA/Drivers/USB/Core/AVR8/../AVR8/Endpoint_AVR8.h **** 
 422:../../tmk_core/protocol/lufa/LUFA-git/LUFA/Drivers/USB/Core/AVR8/../AVR8/Endpoint_AVR8.h **** 			/** Determines if the current CONTROL type endpoint has received a SETUP packet.
 423:../../tmk_core/protocol/lufa/LUFA-git/LUFA/Drivers/USB/Core/AVR8/../AVR8/Endpoint_AVR8.h **** 			 *
 424:../../tmk_core/protocol/lufa/LUFA-git/LUFA/Drivers/USB/Core/AVR8/../AVR8/Endpoint_AVR8.h **** 			 *  \ingroup Group_EndpointPacketManagement_AVR8
 425:../../tmk_core/protocol/lufa/LUFA-git/LUFA/Drivers/USB/Core/AVR8/../AVR8/Endpoint_AVR8.h **** 			 *
 426:../../tmk_core/protocol/lufa/LUFA-git/LUFA/Drivers/USB/Core/AVR8/../AVR8/Endpoint_AVR8.h **** 			 *  \return Boolean \c true if the selected endpoint has received a SETUP packet, \c false other
 427:../../tmk_core/protocol/lufa/LUFA-git/LUFA/Drivers/USB/Core/AVR8/../AVR8/Endpoint_AVR8.h **** 			 */
 428:../../tmk_core/protocol/lufa/LUFA-git/LUFA/Drivers/USB/Core/AVR8/../AVR8/Endpoint_AVR8.h **** 			static inline bool Endpoint_IsSETUPReceived(void) ATTR_WARN_UNUSED_RESULT ATTR_ALWAYS_INLINE;
 429:../../tmk_core/protocol/lufa/LUFA-git/LUFA/Drivers/USB/Core/AVR8/../AVR8/Endpoint_AVR8.h **** 			static inline bool Endpoint_IsSETUPReceived(void)
 430:../../tmk_core/protocol/lufa/LUFA-git/LUFA/Drivers/USB/Core/AVR8/../AVR8/Endpoint_AVR8.h **** 			{
 431:../../tmk_core/protocol/lufa/LUFA-git/LUFA/Drivers/USB/Core/AVR8/../AVR8/Endpoint_AVR8.h **** 				return ((UEINTX & (1 << RXSTPI)) ? true : false);
 432:../../tmk_core/protocol/lufa/LUFA-git/LUFA/Drivers/USB/Core/AVR8/../AVR8/Endpoint_AVR8.h **** 			}
 433:../../tmk_core/protocol/lufa/LUFA-git/LUFA/Drivers/USB/Core/AVR8/../AVR8/Endpoint_AVR8.h **** 
 434:../../tmk_core/protocol/lufa/LUFA-git/LUFA/Drivers/USB/Core/AVR8/../AVR8/Endpoint_AVR8.h **** 			/** Clears a received SETUP packet on the currently selected CONTROL type endpoint, freeing up t
 435:../../tmk_core/protocol/lufa/LUFA-git/LUFA/Drivers/USB/Core/AVR8/../AVR8/Endpoint_AVR8.h **** 			 *  endpoint for the next packet.
 436:../../tmk_core/protocol/lufa/LUFA-git/LUFA/Drivers/USB/Core/AVR8/../AVR8/Endpoint_AVR8.h **** 			 *
 437:../../tmk_core/protocol/lufa/LUFA-git/LUFA/Drivers/USB/Core/AVR8/../AVR8/Endpoint_AVR8.h **** 			 *  \ingroup Group_EndpointPacketManagement_AVR8
 438:../../tmk_core/protocol/lufa/LUFA-git/LUFA/Drivers/USB/Core/AVR8/../AVR8/Endpoint_AVR8.h **** 			 *
 439:../../tmk_core/protocol/lufa/LUFA-git/LUFA/Drivers/USB/Core/AVR8/../AVR8/Endpoint_AVR8.h **** 			 *  \note This is not applicable for non CONTROL type endpoints.
 440:../../tmk_core/protocol/lufa/LUFA-git/LUFA/Drivers/USB/Core/AVR8/../AVR8/Endpoint_AVR8.h **** 			 */
 441:../../tmk_core/protocol/lufa/LUFA-git/LUFA/Drivers/USB/Core/AVR8/../AVR8/Endpoint_AVR8.h **** 			static inline void Endpoint_ClearSETUP(void) ATTR_ALWAYS_INLINE;
 442:../../tmk_core/protocol/lufa/LUFA-git/LUFA/Drivers/USB/Core/AVR8/../AVR8/Endpoint_AVR8.h **** 			static inline void Endpoint_ClearSETUP(void)
 443:../../tmk_core/protocol/lufa/LUFA-git/LUFA/Drivers/USB/Core/AVR8/../AVR8/Endpoint_AVR8.h **** 			{
 444:../../tmk_core/protocol/lufa/LUFA-git/LUFA/Drivers/USB/Core/AVR8/../AVR8/Endpoint_AVR8.h **** 				UEINTX &= ~(1 << RXSTPI);
 445:../../tmk_core/protocol/lufa/LUFA-git/LUFA/Drivers/USB/Core/AVR8/../AVR8/Endpoint_AVR8.h **** 			}
 446:../../tmk_core/protocol/lufa/LUFA-git/LUFA/Drivers/USB/Core/AVR8/../AVR8/Endpoint_AVR8.h **** 
 447:../../tmk_core/protocol/lufa/LUFA-git/LUFA/Drivers/USB/Core/AVR8/../AVR8/Endpoint_AVR8.h **** 			/** Sends an IN packet to the host on the currently selected endpoint, freeing up the endpoint f
 448:../../tmk_core/protocol/lufa/LUFA-git/LUFA/Drivers/USB/Core/AVR8/../AVR8/Endpoint_AVR8.h **** 			 *  next packet and switching to the alternative endpoint bank if double banked.
 449:../../tmk_core/protocol/lufa/LUFA-git/LUFA/Drivers/USB/Core/AVR8/../AVR8/Endpoint_AVR8.h **** 			 *
 450:../../tmk_core/protocol/lufa/LUFA-git/LUFA/Drivers/USB/Core/AVR8/../AVR8/Endpoint_AVR8.h **** 			 *  \ingroup Group_EndpointPacketManagement_AVR8
 451:../../tmk_core/protocol/lufa/LUFA-git/LUFA/Drivers/USB/Core/AVR8/../AVR8/Endpoint_AVR8.h **** 			 */
 452:../../tmk_core/protocol/lufa/LUFA-git/LUFA/Drivers/USB/Core/AVR8/../AVR8/Endpoint_AVR8.h **** 			static inline void Endpoint_ClearIN(void) ATTR_ALWAYS_INLINE;
 453:../../tmk_core/protocol/lufa/LUFA-git/LUFA/Drivers/USB/Core/AVR8/../AVR8/Endpoint_AVR8.h **** 			static inline void Endpoint_ClearIN(void)
 155               		.loc 2 453 23 view .LVU39
 156               	.LBB256:
 454:../../tmk_core/protocol/lufa/LUFA-git/LUFA/Drivers/USB/Core/AVR8/../AVR8/Endpoint_AVR8.h **** 			{
 455:../../tmk_core/protocol/lufa/LUFA-git/LUFA/Drivers/USB/Core/AVR8/../AVR8/Endpoint_AVR8.h **** 				#if !defined(CONTROL_ONLY_DEVICE)
 456:../../tmk_core/protocol/lufa/LUFA-git/LUFA/Drivers/USB/Core/AVR8/../AVR8/Endpoint_AVR8.h **** 					UEINTX &= ~((1 << TXINI) | (1 << FIFOCON));
 157               		.loc 2 456 6 view .LVU40
 158               		.loc 2 456 13 is_stmt 0 view .LVU41
 159 0050 8091 E800 		lds r24,232
 160 0054 8E77      		andi r24,lo8(126)
 161 0056 8093 E800 		sts 232,r24
 162               	.L2:
 163               	/* epilogue start */
 164               		.loc 2 456 13 view .LVU42
 165               	.LBE256:
 166               	.LBE255:
 579:../../tmk_core/protocol/lufa/lufa.c **** #endif
 580:../../tmk_core/protocol/lufa/lufa.c **** }
 167               		.loc 1 580 1 view .LVU43
 168 005a 0F90      		pop __tmp_reg__
 169 005c 0F90      		pop __tmp_reg__
 170 005e 0F90      		pop __tmp_reg__
 171 0060 DF91      		pop r29
 172 0062 CF91      		pop r28
 173 0064 0895      		ret
 174               		.cfi_endproc
 175               	.LFE126:
 177               		.section	.text.send_system,"ax",@progbits
 179               	send_system:
 180               	.LVL10:
 181               	.LFB125:
 537:../../tmk_core/protocol/lufa/lufa.c **** #ifdef EXTRAKEY_ENABLE
 182               		.loc 1 537 1 is_stmt 1 view -0
 183               		.cfi_startproc
 537:../../tmk_core/protocol/lufa/lufa.c **** #ifdef EXTRAKEY_ENABLE
 184               		.loc 1 537 1 is_stmt 0 view .LVU45
 185 0000 CF93      		push r28
 186               	.LCFI4:
 187               		.cfi_def_cfa_offset 3
 188               		.cfi_offset 28, -2
 189 0002 DF93      		push r29
 190               	.LCFI5:
 191               		.cfi_def_cfa_offset 4
 192               		.cfi_offset 29, -3
 193 0004 00D0      		rcall .
 194 0006 0F92      		push __tmp_reg__
 195               	.LCFI6:
 196               		.cfi_def_cfa_offset 7
 197 0008 CDB7      		in r28,__SP_L__
 198 000a DEB7      		in r29,__SP_H__
 199               	.LCFI7:
 200               		.cfi_def_cfa_register 28
 201               	/* prologue: function */
 202               	/* frame size = 3 */
 203               	/* stack size = 5 */
 204               	.L__stack_usage = 5
 205 000c 9C01      		movw r18,r24
 539:../../tmk_core/protocol/lufa/lufa.c **** 
 206               		.loc 1 539 5 is_stmt 1 view .LVU46
 207               	.LVL11:
 541:../../tmk_core/protocol/lufa/lufa.c ****         return;
 208               		.loc 1 541 5 view .LVU47
 541:../../tmk_core/protocol/lufa/lufa.c ****         return;
 209               		.loc 1 541 25 is_stmt 0 view .LVU48
 210 000e 8091 0000 		lds r24,USB_DeviceState
 211               	.LVL12:
 541:../../tmk_core/protocol/lufa/lufa.c ****         return;
 212               		.loc 1 541 8 view .LVU49
 213 0012 8430      		cpi r24,lo8(4)
 214 0014 01F4      		brne .L14
 544:../../tmk_core/protocol/lufa/lufa.c ****         .report_id = REPORT_ID_SYSTEM,
 215               		.loc 1 544 5 is_stmt 1 view .LVU50
 544:../../tmk_core/protocol/lufa/lufa.c ****         .report_id = REPORT_ID_SYSTEM,
 216               		.loc 1 544 20 is_stmt 0 view .LVU51
 217 0016 82E0      		ldi r24,lo8(2)
 218 0018 8983      		std Y+1,r24
 546:../../tmk_core/protocol/lufa/lufa.c ****     };
 219               		.loc 1 546 43 view .LVU52
 220 001a 2058      		subi r18,-128
 221 001c 3109      		sbc r19,__zero_reg__
 222               	.LVL13:
 544:../../tmk_core/protocol/lufa/lufa.c ****         .report_id = REPORT_ID_SYSTEM,
 223               		.loc 1 544 20 view .LVU53
 224 001e 3B83      		std Y+3,r19
 225 0020 2A83      		std Y+2,r18
 548:../../tmk_core/protocol/lufa/lufa.c **** 
 226               		.loc 1 548 5 is_stmt 1 view .LVU54
 227               	.LVL14:
 228               	.LBB257:
 229               	.LBI257:
 267:../../tmk_core/protocol/lufa/LUFA-git/LUFA/Drivers/USB/Core/AVR8/../AVR8/Endpoint_AVR8.h **** 			{
 230               		.loc 2 267 23 view .LVU55
 231               	.LBB258:
 270:../../tmk_core/protocol/lufa/LUFA-git/LUFA/Drivers/USB/Core/AVR8/../AVR8/Endpoint_AVR8.h **** 				#endif
 232               		.loc 2 270 6 view .LVU56
 270:../../tmk_core/protocol/lufa/LUFA-git/LUFA/Drivers/USB/Core/AVR8/../AVR8/Endpoint_AVR8.h **** 				#endif
 233               		.loc 2 270 12 is_stmt 0 view .LVU57
 234 0022 83E0      		ldi r24,lo8(3)
 235 0024 8093 E900 		sts 233,r24
 236               	.LVL15:
 270:../../tmk_core/protocol/lufa/LUFA-git/LUFA/Drivers/USB/Core/AVR8/../AVR8/Endpoint_AVR8.h **** 				#endif
 237               		.loc 2 270 12 view .LVU58
 238 0028 8FEF      		ldi r24,lo8(-1)
 239               	.LVL16:
 240               	.L16:
 270:../../tmk_core/protocol/lufa/LUFA-git/LUFA/Drivers/USB/Core/AVR8/../AVR8/Endpoint_AVR8.h **** 				#endif
 241               		.loc 2 270 12 view .LVU59
 242               	.LBE258:
 243               	.LBE257:
 244               	.LBB259:
 245               	.LBI259:
 358:../../tmk_core/protocol/lufa/LUFA-git/LUFA/Drivers/USB/Core/AVR8/../AVR8/Endpoint_AVR8.h **** 			{
 246               		.loc 2 358 23 is_stmt 1 view .LVU60
 247               	.LBB260:
 360:../../tmk_core/protocol/lufa/LUFA-git/LUFA/Drivers/USB/Core/AVR8/../AVR8/Endpoint_AVR8.h **** 			}
 248               		.loc 2 360 5 view .LVU61
 360:../../tmk_core/protocol/lufa/LUFA-git/LUFA/Drivers/USB/Core/AVR8/../AVR8/Endpoint_AVR8.h **** 			}
 249               		.loc 2 360 14 is_stmt 0 view .LVU62
 250 002a 9091 E800 		lds r25,232
 251 002e 8150      		subi r24,lo8(-(-1))
 252               	.LVL17:
 360:../../tmk_core/protocol/lufa/LUFA-git/LUFA/Drivers/USB/Core/AVR8/../AVR8/Endpoint_AVR8.h **** 			}
 253               		.loc 2 360 14 view .LVU63
 254               	.LBE260:
 255               	.LBE259:
 551:../../tmk_core/protocol/lufa/lufa.c ****     if (!Endpoint_IsReadWriteAllowed()) return;
 256               		.loc 1 551 22 view .LVU64
 257 0030 95FD      		sbrc r25,5
 258 0032 00C0      		rjmp .L17
 551:../../tmk_core/protocol/lufa/lufa.c ****     if (!Endpoint_IsReadWriteAllowed()) return;
 259               		.loc 1 551 57 is_stmt 1 view .LVU65
 260               	.LVL18:
 261               	.LBB261:
 262               	.LBI261:
 255:/usr/local/Cellar/avr-gcc/9.1.0/avr/include/util/delay.h **** {
 263               		.loc 3 255 1 view .LVU66
 264               	.LBB262:
 257:/usr/local/Cellar/avr-gcc/9.1.0/avr/include/util/delay.h **** #if __HAS_DELAY_CYCLES && defined(__OPTIMIZE__) && \
 265               		.loc 3 257 2 view .LVU67
 261:/usr/local/Cellar/avr-gcc/9.1.0/avr/include/util/delay.h **** 	extern void __builtin_avr_delay_cycles(unsigned long);
 266               		.loc 3 261 2 view .LVU68
 262:/usr/local/Cellar/avr-gcc/9.1.0/avr/include/util/delay.h **** 	__tmp = ((F_CPU) / 1e6) * __us;
 267               		.loc 3 262 2 view .LVU69
 263:/usr/local/Cellar/avr-gcc/9.1.0/avr/include/util/delay.h **** 
 268               		.loc 3 263 2 view .LVU70
 273:/usr/local/Cellar/avr-gcc/9.1.0/avr/include/util/delay.h **** 	#endif
 269               		.loc 3 273 3 view .LVU71
 270               		.loc 3 276 2 view .LVU72
 271 0034 95ED      		ldi r25,lo8(-43)
 272 0036 9A95      	1:	dec r25
 273 0038 01F4      		brne 1b
 274 003a 0000      		nop
 275               	.LVL19:
 276               		.loc 3 276 2 is_stmt 0 view .LVU73
 277               	.LBE262:
 278               	.LBE261:
 551:../../tmk_core/protocol/lufa/lufa.c ****     if (!Endpoint_IsReadWriteAllowed()) return;
 279               		.loc 1 551 11 view .LVU74
 280 003c 8111      		cpse r24,__zero_reg__
 281 003e 00C0      		rjmp .L16
 282               	.LVL20:
 283               	.L17:
 552:../../tmk_core/protocol/lufa/lufa.c **** 
 284               		.loc 1 552 5 is_stmt 1 view .LVU75
 285               	.LBB263:
 286               	.LBI263:
 358:../../tmk_core/protocol/lufa/LUFA-git/LUFA/Drivers/USB/Core/AVR8/../AVR8/Endpoint_AVR8.h **** 			{
 287               		.loc 2 358 23 view .LVU76
 288               	.LBB264:
 360:../../tmk_core/protocol/lufa/LUFA-git/LUFA/Drivers/USB/Core/AVR8/../AVR8/Endpoint_AVR8.h **** 			}
 289               		.loc 2 360 5 view .LVU77
 360:../../tmk_core/protocol/lufa/LUFA-git/LUFA/Drivers/USB/Core/AVR8/../AVR8/Endpoint_AVR8.h **** 			}
 290               		.loc 2 360 14 is_stmt 0 view .LVU78
 291 0040 8091 E800 		lds r24,232
 292               	.LBE264:
 293               	.LBE263:
 552:../../tmk_core/protocol/lufa/lufa.c **** 
 294               		.loc 1 552 8 view .LVU79
 295 0044 85FF      		sbrs r24,5
 296 0046 00C0      		rjmp .L14
 554:../../tmk_core/protocol/lufa/lufa.c ****     Endpoint_ClearIN();
 297               		.loc 1 554 5 is_stmt 1 view .LVU80
 298 0048 50E0      		ldi r21,0
 299 004a 40E0      		ldi r20,0
 300 004c 63E0      		ldi r22,lo8(3)
 301 004e 70E0      		ldi r23,0
 302 0050 CE01      		movw r24,r28
 303 0052 0196      		adiw r24,1
 304 0054 0E94 0000 		call Endpoint_Write_Stream_LE
 305               	.LVL21:
 555:../../tmk_core/protocol/lufa/lufa.c **** #endif
 306               		.loc 1 555 5 view .LVU81
 307               	.LBB265:
 308               	.LBI265:
 453:../../tmk_core/protocol/lufa/LUFA-git/LUFA/Drivers/USB/Core/AVR8/../AVR8/Endpoint_AVR8.h **** 			{
 309               		.loc 2 453 23 view .LVU82
 310               	.LBB266:
 311               		.loc 2 456 6 view .LVU83
 312               		.loc 2 456 13 is_stmt 0 view .LVU84
 313 0058 8091 E800 		lds r24,232
 314 005c 8E77      		andi r24,lo8(126)
 315 005e 8093 E800 		sts 232,r24
 316               	.L14:
 317               	/* epilogue start */
 318               		.loc 2 456 13 view .LVU85
 319               	.LBE266:
 320               	.LBE265:
 557:../../tmk_core/protocol/lufa/lufa.c **** 
 321               		.loc 1 557 1 view .LVU86
 322 0062 0F90      		pop __tmp_reg__
 323 0064 0F90      		pop __tmp_reg__
 324 0066 0F90      		pop __tmp_reg__
 325 0068 DF91      		pop r29
 326 006a CF91      		pop r28
 327 006c 0895      		ret
 328               		.cfi_endproc
 329               	.LFE125:
 331               		.section	.text.send_mouse,"ax",@progbits
 333               	send_mouse:
 334               	.LVL22:
 335               	.LFB124:
 514:../../tmk_core/protocol/lufa/lufa.c **** #ifdef MOUSE_ENABLE
 336               		.loc 1 514 1 is_stmt 1 view -0
 337               		.cfi_startproc
 338               	/* prologue: function */
 339               	/* frame size = 0 */
 340               	/* stack size = 0 */
 341               	.L__stack_usage = 0
 516:../../tmk_core/protocol/lufa/lufa.c **** 
 342               		.loc 1 516 5 view .LVU88
 518:../../tmk_core/protocol/lufa/lufa.c ****         return;
 343               		.loc 1 518 5 view .LVU89
 518:../../tmk_core/protocol/lufa/lufa.c ****         return;
 344               		.loc 1 518 25 is_stmt 0 view .LVU90
 345 0000 2091 0000 		lds r18,USB_DeviceState
 518:../../tmk_core/protocol/lufa/lufa.c ****         return;
 346               		.loc 1 518 8 view .LVU91
 347 0004 2430      		cpi r18,lo8(4)
 348 0006 01F4      		brne .L26
 522:../../tmk_core/protocol/lufa/lufa.c **** 
 349               		.loc 1 522 5 is_stmt 1 view .LVU92
 350               	.LVL23:
 351               	.LBB267:
 352               	.LBI267:
 267:../../tmk_core/protocol/lufa/LUFA-git/LUFA/Drivers/USB/Core/AVR8/../AVR8/Endpoint_AVR8.h **** 			{
 353               		.loc 2 267 23 view .LVU93
 354               	.LBB268:
 270:../../tmk_core/protocol/lufa/LUFA-git/LUFA/Drivers/USB/Core/AVR8/../AVR8/Endpoint_AVR8.h **** 				#endif
 355               		.loc 2 270 6 view .LVU94
 270:../../tmk_core/protocol/lufa/LUFA-git/LUFA/Drivers/USB/Core/AVR8/../AVR8/Endpoint_AVR8.h **** 				#endif
 356               		.loc 2 270 12 is_stmt 0 view .LVU95
 357 0008 22E0      		ldi r18,lo8(2)
 358 000a 2093 E900 		sts 233,r18
 359               	.LVL24:
 270:../../tmk_core/protocol/lufa/LUFA-git/LUFA/Drivers/USB/Core/AVR8/../AVR8/Endpoint_AVR8.h **** 				#endif
 360               		.loc 2 270 12 view .LVU96
 361 000e 2FEF      		ldi r18,lo8(-1)
 362               	.LVL25:
 363               	.L29:
 270:../../tmk_core/protocol/lufa/LUFA-git/LUFA/Drivers/USB/Core/AVR8/../AVR8/Endpoint_AVR8.h **** 				#endif
 364               		.loc 2 270 12 view .LVU97
 365               	.LBE268:
 366               	.LBE267:
 367               	.LBB269:
 368               	.LBI269:
 358:../../tmk_core/protocol/lufa/LUFA-git/LUFA/Drivers/USB/Core/AVR8/../AVR8/Endpoint_AVR8.h **** 			{
 369               		.loc 2 358 23 is_stmt 1 view .LVU98
 370               	.LBB270:
 360:../../tmk_core/protocol/lufa/LUFA-git/LUFA/Drivers/USB/Core/AVR8/../AVR8/Endpoint_AVR8.h **** 			}
 371               		.loc 2 360 5 view .LVU99
 360:../../tmk_core/protocol/lufa/LUFA-git/LUFA/Drivers/USB/Core/AVR8/../AVR8/Endpoint_AVR8.h **** 			}
 372               		.loc 2 360 14 is_stmt 0 view .LVU100
 373 0010 3091 E800 		lds r19,232
 374 0014 2150      		subi r18,lo8(-(-1))
 375               	.LVL26:
 360:../../tmk_core/protocol/lufa/LUFA-git/LUFA/Drivers/USB/Core/AVR8/../AVR8/Endpoint_AVR8.h **** 			}
 376               		.loc 2 360 14 view .LVU101
 377               	.LBE270:
 378               	.LBE269:
 525:../../tmk_core/protocol/lufa/lufa.c ****     if (!Endpoint_IsReadWriteAllowed()) return;
 379               		.loc 1 525 22 view .LVU102
 380 0016 35FD      		sbrc r19,5
 381 0018 00C0      		rjmp .L30
 525:../../tmk_core/protocol/lufa/lufa.c ****     if (!Endpoint_IsReadWriteAllowed()) return;
 382               		.loc 1 525 57 is_stmt 1 view .LVU103
 383               	.LVL27:
 384               	.LBB271:
 385               	.LBI271:
 255:/usr/local/Cellar/avr-gcc/9.1.0/avr/include/util/delay.h **** {
 386               		.loc 3 255 1 view .LVU104
 387               	.LBB272:
 257:/usr/local/Cellar/avr-gcc/9.1.0/avr/include/util/delay.h **** #if __HAS_DELAY_CYCLES && defined(__OPTIMIZE__) && \
 388               		.loc 3 257 2 view .LVU105
 261:/usr/local/Cellar/avr-gcc/9.1.0/avr/include/util/delay.h **** 	extern void __builtin_avr_delay_cycles(unsigned long);
 389               		.loc 3 261 2 view .LVU106
 262:/usr/local/Cellar/avr-gcc/9.1.0/avr/include/util/delay.h **** 	__tmp = ((F_CPU) / 1e6) * __us;
 390               		.loc 3 262 2 view .LVU107
 263:/usr/local/Cellar/avr-gcc/9.1.0/avr/include/util/delay.h **** 
 391               		.loc 3 263 2 view .LVU108
 273:/usr/local/Cellar/avr-gcc/9.1.0/avr/include/util/delay.h **** 	#endif
 392               		.loc 3 273 3 view .LVU109
 393               		.loc 3 276 2 view .LVU110
 394 001a 35ED      		ldi r19,lo8(-43)
 395 001c 3A95      	1:	dec r19
 396 001e 01F4      		brne 1b
 397 0020 0000      		nop
 398               	.LVL28:
 399               		.loc 3 276 2 is_stmt 0 view .LVU111
 400               	.LBE272:
 401               	.LBE271:
 525:../../tmk_core/protocol/lufa/lufa.c ****     if (!Endpoint_IsReadWriteAllowed()) return;
 402               		.loc 1 525 11 view .LVU112
 403 0022 2111      		cpse r18,__zero_reg__
 404 0024 00C0      		rjmp .L29
 405               	.LVL29:
 406               	.L30:
 526:../../tmk_core/protocol/lufa/lufa.c **** 
 407               		.loc 1 526 5 is_stmt 1 view .LVU113
 408               	.LBB273:
 409               	.LBI273:
 358:../../tmk_core/protocol/lufa/LUFA-git/LUFA/Drivers/USB/Core/AVR8/../AVR8/Endpoint_AVR8.h **** 			{
 410               		.loc 2 358 23 view .LVU114
 411               	.LBB274:
 360:../../tmk_core/protocol/lufa/LUFA-git/LUFA/Drivers/USB/Core/AVR8/../AVR8/Endpoint_AVR8.h **** 			}
 412               		.loc 2 360 5 view .LVU115
 360:../../tmk_core/protocol/lufa/LUFA-git/LUFA/Drivers/USB/Core/AVR8/../AVR8/Endpoint_AVR8.h **** 			}
 413               		.loc 2 360 14 is_stmt 0 view .LVU116
 414 0026 2091 E800 		lds r18,232
 415               	.LBE274:
 416               	.LBE273:
 526:../../tmk_core/protocol/lufa/lufa.c **** 
 417               		.loc 1 526 8 view .LVU117
 418 002a 25FF      		sbrs r18,5
 419 002c 00C0      		rjmp .L26
 529:../../tmk_core/protocol/lufa/lufa.c **** 
 420               		.loc 1 529 5 is_stmt 1 view .LVU118
 421 002e 50E0      		ldi r21,0
 422 0030 40E0      		ldi r20,0
 423 0032 65E0      		ldi r22,lo8(5)
 424 0034 70E0      		ldi r23,0
 425 0036 0E94 0000 		call Endpoint_Write_Stream_LE
 426               	.LVL30:
 532:../../tmk_core/protocol/lufa/lufa.c **** #endif
 427               		.loc 1 532 5 view .LVU119
 428               	.LBB275:
 429               	.LBI275:
 453:../../tmk_core/protocol/lufa/LUFA-git/LUFA/Drivers/USB/Core/AVR8/../AVR8/Endpoint_AVR8.h **** 			{
 430               		.loc 2 453 23 view .LVU120
 431               	.LBB276:
 432               		.loc 2 456 6 view .LVU121
 433               		.loc 2 456 13 is_stmt 0 view .LVU122
 434 003a 8091 E800 		lds r24,232
 435 003e 8E77      		andi r24,lo8(126)
 436 0040 8093 E800 		sts 232,r24
 437               	.L26:
 438               	/* epilogue start */
 439               		.loc 2 456 13 view .LVU123
 440               	.LBE276:
 441               	.LBE275:
 534:../../tmk_core/protocol/lufa/lufa.c **** 
 442               		.loc 1 534 1 view .LVU124
 443 0044 0895      		ret
 444               		.cfi_endproc
 445               	.LFE124:
 447               		.section	.text.send_keyboard,"ax",@progbits
 449               	send_keyboard:
 450               	.LVL31:
 451               	.LFB123:
 474:../../tmk_core/protocol/lufa/lufa.c ****     uint8_t timeout = 128;
 452               		.loc 1 474 1 is_stmt 1 view -0
 453               		.cfi_startproc
 474:../../tmk_core/protocol/lufa/lufa.c ****     uint8_t timeout = 128;
 454               		.loc 1 474 1 is_stmt 0 view .LVU126
 455 0000 CF93      		push r28
 456               	.LCFI8:
 457               		.cfi_def_cfa_offset 3
 458               		.cfi_offset 28, -2
 459 0002 DF93      		push r29
 460               	.LCFI9:
 461               		.cfi_def_cfa_offset 4
 462               		.cfi_offset 29, -3
 463               	/* prologue: function */
 464               	/* frame size = 0 */
 465               	/* stack size = 2 */
 466               	.L__stack_usage = 2
 467 0004 D82F      		mov r29,r24
 468 0006 C92F      		mov r28,r25
 475:../../tmk_core/protocol/lufa/lufa.c **** 
 469               		.loc 1 475 5 is_stmt 1 view .LVU127
 470               	.LVL32:
 477:../../tmk_core/protocol/lufa/lufa.c ****         return;
 471               		.loc 1 477 5 view .LVU128
 477:../../tmk_core/protocol/lufa/lufa.c ****         return;
 472               		.loc 1 477 25 is_stmt 0 view .LVU129
 473 0008 8091 0000 		lds r24,USB_DeviceState
 474               	.LVL33:
 477:../../tmk_core/protocol/lufa/lufa.c ****         return;
 475               		.loc 1 477 8 view .LVU130
 476 000c 8430      		cpi r24,lo8(4)
 477 000e 01F4      		brne .L39
 497:../../tmk_core/protocol/lufa/lufa.c **** 
 478               		.loc 1 497 9 is_stmt 1 view .LVU131
 479               	.LVL34:
 480               	.LBB277:
 481               	.LBI277:
 267:../../tmk_core/protocol/lufa/LUFA-git/LUFA/Drivers/USB/Core/AVR8/../AVR8/Endpoint_AVR8.h **** 			{
 482               		.loc 2 267 23 view .LVU132
 483               	.LBB278:
 270:../../tmk_core/protocol/lufa/LUFA-git/LUFA/Drivers/USB/Core/AVR8/../AVR8/Endpoint_AVR8.h **** 				#endif
 484               		.loc 2 270 6 view .LVU133
 270:../../tmk_core/protocol/lufa/LUFA-git/LUFA/Drivers/USB/Core/AVR8/../AVR8/Endpoint_AVR8.h **** 				#endif
 485               		.loc 2 270 12 is_stmt 0 view .LVU134
 486 0010 81E0      		ldi r24,lo8(1)
 487 0012 8093 E900 		sts 233,r24
 272:../../tmk_core/protocol/lufa/LUFA-git/LUFA/Drivers/USB/Core/AVR8/../AVR8/Endpoint_AVR8.h **** 
 488               		.loc 2 272 4 view .LVU135
 489 0016 81E8      		ldi r24,lo8(-127)
 490               	.LVL35:
 491               	.L42:
 272:../../tmk_core/protocol/lufa/LUFA-git/LUFA/Drivers/USB/Core/AVR8/../AVR8/Endpoint_AVR8.h **** 
 492               		.loc 2 272 4 view .LVU136
 493 0018 8150      		subi r24,lo8(-(-1))
 494               	.LVL36:
 272:../../tmk_core/protocol/lufa/LUFA-git/LUFA/Drivers/USB/Core/AVR8/../AVR8/Endpoint_AVR8.h **** 
 495               		.loc 2 272 4 view .LVU137
 496               	.LBE278:
 497               	.LBE277:
 500:../../tmk_core/protocol/lufa/lufa.c ****         if (!Endpoint_IsReadWriteAllowed()) return;
 498               		.loc 1 500 15 discriminator 1 view .LVU138
 499 001a 01F0      		breq .L43
 500               	.LVL37:
 501               	.LBB279:
 502               	.LBI279:
 358:../../tmk_core/protocol/lufa/LUFA-git/LUFA/Drivers/USB/Core/AVR8/../AVR8/Endpoint_AVR8.h **** 			{
 503               		.loc 2 358 23 is_stmt 1 view .LVU139
 504               	.LBB280:
 360:../../tmk_core/protocol/lufa/LUFA-git/LUFA/Drivers/USB/Core/AVR8/../AVR8/Endpoint_AVR8.h **** 			}
 505               		.loc 2 360 5 view .LVU140
 360:../../tmk_core/protocol/lufa/LUFA-git/LUFA/Drivers/USB/Core/AVR8/../AVR8/Endpoint_AVR8.h **** 			}
 506               		.loc 2 360 14 is_stmt 0 view .LVU141
 507 001c 9091 E800 		lds r25,232
 508               	.LBE280:
 509               	.LBE279:
 500:../../tmk_core/protocol/lufa/lufa.c ****         if (!Endpoint_IsReadWriteAllowed()) return;
 510               		.loc 1 500 26 view .LVU142
 511 0020 95FF      		sbrs r25,5
 512 0022 00C0      		rjmp .L44
 513               	.LVL38:
 514               	.L43:
 501:../../tmk_core/protocol/lufa/lufa.c **** 
 515               		.loc 1 501 9 is_stmt 1 view .LVU143
 516               	.LBB281:
 517               	.LBI281:
 358:../../tmk_core/protocol/lufa/LUFA-git/LUFA/Drivers/USB/Core/AVR8/../AVR8/Endpoint_AVR8.h **** 			{
 518               		.loc 2 358 23 view .LVU144
 519               	.LBB282:
 360:../../tmk_core/protocol/lufa/LUFA-git/LUFA/Drivers/USB/Core/AVR8/../AVR8/Endpoint_AVR8.h **** 			}
 520               		.loc 2 360 5 view .LVU145
 360:../../tmk_core/protocol/lufa/LUFA-git/LUFA/Drivers/USB/Core/AVR8/../AVR8/Endpoint_AVR8.h **** 			}
 521               		.loc 2 360 14 is_stmt 0 view .LVU146
 522 0024 8091 E800 		lds r24,232
 523               	.LBE282:
 524               	.LBE281:
 501:../../tmk_core/protocol/lufa/lufa.c **** 
 525               		.loc 1 501 12 view .LVU147
 526 0028 85FF      		sbrs r24,5
 527 002a 00C0      		rjmp .L39
 504:../../tmk_core/protocol/lufa/lufa.c ****     }
 528               		.loc 1 504 9 is_stmt 1 view .LVU148
 529 002c 50E0      		ldi r21,0
 530 002e 40E0      		ldi r20,0
 531 0030 68E0      		ldi r22,lo8(8)
 532 0032 70E0      		ldi r23,0
 533 0034 8D2F      		mov r24,r29
 534 0036 9C2F      		mov r25,r28
 535 0038 0E94 0000 		call Endpoint_Write_Stream_LE
 536               	.LVL39:
 508:../../tmk_core/protocol/lufa/lufa.c **** 
 537               		.loc 1 508 5 view .LVU149
 538               	.LBB283:
 539               	.LBI283:
 453:../../tmk_core/protocol/lufa/LUFA-git/LUFA/Drivers/USB/Core/AVR8/../AVR8/Endpoint_AVR8.h **** 			{
 540               		.loc 2 453 23 view .LVU150
 541               	.LBB284:
 542               		.loc 2 456 6 view .LVU151
 543               		.loc 2 456 13 is_stmt 0 view .LVU152
 544 003c 8091 E800 		lds r24,232
 545 0040 8E77      		andi r24,lo8(126)
 546 0042 8093 E800 		sts 232,r24
 547               	.LBE284:
 548               	.LBE283:
 510:../../tmk_core/protocol/lufa/lufa.c **** }
 549               		.loc 1 510 5 is_stmt 1 view .LVU153
 510:../../tmk_core/protocol/lufa/lufa.c **** }
 550               		.loc 1 510 26 is_stmt 0 view .LVU154
 551 0046 88E0      		ldi r24,lo8(8)
 552 0048 ED2F      		mov r30,r29
 553 004a FC2F      		mov r31,r28
 554 004c A0E0      		ldi r26,lo8(keyboard_report_sent)
 555 004e B0E0      		ldi r27,hi8(keyboard_report_sent)
 556               		0:
 557 0050 0190      		ld r0,Z+
 558 0052 0D92      		st X+,r0
 559 0054 8A95      		dec r24
 560 0056 01F4      		brne 0b
 561               	.L39:
 562               	/* epilogue start */
 511:../../tmk_core/protocol/lufa/lufa.c **** 
 563               		.loc 1 511 1 view .LVU155
 564 0058 DF91      		pop r29
 565 005a CF91      		pop r28
 566 005c 0895      		ret
 567               	.LVL40:
 568               	.L44:
 500:../../tmk_core/protocol/lufa/lufa.c ****         if (!Endpoint_IsReadWriteAllowed()) return;
 569               		.loc 1 500 61 is_stmt 1 view .LVU156
 570               	.LBB285:
 571               	.LBI285:
 255:/usr/local/Cellar/avr-gcc/9.1.0/avr/include/util/delay.h **** {
 572               		.loc 3 255 1 view .LVU157
 573               	.LBB286:
 257:/usr/local/Cellar/avr-gcc/9.1.0/avr/include/util/delay.h **** #if __HAS_DELAY_CYCLES && defined(__OPTIMIZE__) && \
 574               		.loc 3 257 2 view .LVU158
 261:/usr/local/Cellar/avr-gcc/9.1.0/avr/include/util/delay.h **** 	extern void __builtin_avr_delay_cycles(unsigned long);
 575               		.loc 3 261 2 view .LVU159
 262:/usr/local/Cellar/avr-gcc/9.1.0/avr/include/util/delay.h **** 	__tmp = ((F_CPU) / 1e6) * __us;
 576               		.loc 3 262 2 view .LVU160
 263:/usr/local/Cellar/avr-gcc/9.1.0/avr/include/util/delay.h **** 
 577               		.loc 3 263 2 view .LVU161
 273:/usr/local/Cellar/avr-gcc/9.1.0/avr/include/util/delay.h **** 	#endif
 578               		.loc 3 273 3 view .LVU162
 579               		.loc 3 276 2 view .LVU163
 580 005e EFE3      		ldi r30,lo8(319)
 581 0060 F1E0      		ldi r31,hi8(319)
 582 0062 3197      	1:	sbiw r30,1
 583 0064 01F4      		brne 1b
 584 0066 00C0      		rjmp .
 585 0068 0000      		nop
 277:/usr/local/Cellar/avr-gcc/9.1.0/avr/include/util/delay.h **** 
 278:/usr/local/Cellar/avr-gcc/9.1.0/avr/include/util/delay.h **** #else
 279:/usr/local/Cellar/avr-gcc/9.1.0/avr/include/util/delay.h **** 	uint8_t __ticks;
 280:/usr/local/Cellar/avr-gcc/9.1.0/avr/include/util/delay.h **** 	double __tmp2 ;
 281:/usr/local/Cellar/avr-gcc/9.1.0/avr/include/util/delay.h **** 	__tmp = ((F_CPU) / 3e6) * __us;
 282:/usr/local/Cellar/avr-gcc/9.1.0/avr/include/util/delay.h **** 	__tmp2 = ((F_CPU) / 4e6) * __us;
 283:/usr/local/Cellar/avr-gcc/9.1.0/avr/include/util/delay.h **** 	if (__tmp < 1.0)
 284:/usr/local/Cellar/avr-gcc/9.1.0/avr/include/util/delay.h **** 		__ticks = 1;
 285:/usr/local/Cellar/avr-gcc/9.1.0/avr/include/util/delay.h **** 	else if (__tmp2 > 65535)
 286:/usr/local/Cellar/avr-gcc/9.1.0/avr/include/util/delay.h **** 	{
 287:/usr/local/Cellar/avr-gcc/9.1.0/avr/include/util/delay.h **** 		_delay_ms(__us / 1000.0);
 288:/usr/local/Cellar/avr-gcc/9.1.0/avr/include/util/delay.h **** 	}
 289:/usr/local/Cellar/avr-gcc/9.1.0/avr/include/util/delay.h **** 	else if (__tmp > 255)
 290:/usr/local/Cellar/avr-gcc/9.1.0/avr/include/util/delay.h **** 	{
 291:/usr/local/Cellar/avr-gcc/9.1.0/avr/include/util/delay.h **** 		uint16_t __ticks=(uint16_t)__tmp2;
 292:/usr/local/Cellar/avr-gcc/9.1.0/avr/include/util/delay.h **** 		_delay_loop_2(__ticks);
 293:/usr/local/Cellar/avr-gcc/9.1.0/avr/include/util/delay.h **** 		return;
 294:/usr/local/Cellar/avr-gcc/9.1.0/avr/include/util/delay.h **** 	}
 295:/usr/local/Cellar/avr-gcc/9.1.0/avr/include/util/delay.h **** 	else
 296:/usr/local/Cellar/avr-gcc/9.1.0/avr/include/util/delay.h **** 		__ticks = (uint8_t)__tmp;
 297:/usr/local/Cellar/avr-gcc/9.1.0/avr/include/util/delay.h **** 	_delay_loop_1(__ticks);
 298:/usr/local/Cellar/avr-gcc/9.1.0/avr/include/util/delay.h **** #endif
 299:/usr/local/Cellar/avr-gcc/9.1.0/avr/include/util/delay.h **** }
 586               		.loc 3 299 1 is_stmt 0 view .LVU164
 587 006a 00C0      		rjmp .L42
 588               	.LBE286:
 589               	.LBE285:
 590               		.cfi_endproc
 591               	.LFE123:
 593               		.section	.text.console_is_ready,"ax",@progbits
 595               	console_is_ready:
 596               	.LFB110:
 111:../../tmk_core/protocol/lufa/lufa.c ****     static bool hid_listen_ready = false;
 597               		.loc 1 111 1 is_stmt 1 view -0
 598               		.cfi_startproc
 599 0000 CF93      		push r28
 600               	.LCFI10:
 601               		.cfi_def_cfa_offset 3
 602               		.cfi_offset 28, -2
 603 0002 DF93      		push r29
 604               	.LCFI11:
 605               		.cfi_def_cfa_offset 4
 606               		.cfi_offset 29, -3
 607 0004 00D0      		rcall .
 608 0006 00D0      		rcall .
 609 0008 0F92      		push __tmp_reg__
 610               	.LCFI12:
 611               		.cfi_def_cfa_offset 9
 612 000a CDB7      		in r28,__SP_L__
 613 000c DEB7      		in r29,__SP_H__
 614               	.LCFI13:
 615               		.cfi_def_cfa_register 28
 616               	/* prologue: function */
 617               	/* frame size = 5 */
 618               	/* stack size = 7 */
 619               	.L__stack_usage = 7
 112:../../tmk_core/protocol/lufa/lufa.c ****     if (!hid_listen_ready) {
 620               		.loc 1 112 5 view .LVU166
 113:../../tmk_core/protocol/lufa/lufa.c ****         if (timer_read32() < 2500)
 621               		.loc 1 113 5 view .LVU167
 113:../../tmk_core/protocol/lufa/lufa.c ****         if (timer_read32() < 2500)
 622               		.loc 1 113 9 is_stmt 0 view .LVU168
 623 000e 2091 0000 		lds r18,hid_listen_ready.4879
 624 0012 2D83      		std Y+5,r18
 113:../../tmk_core/protocol/lufa/lufa.c ****         if (timer_read32() < 2500)
 625               		.loc 1 113 8 view .LVU169
 626 0014 2111      		cpse r18,__zero_reg__
 627 0016 00C0      		rjmp .L52
 114:../../tmk_core/protocol/lufa/lufa.c ****             return false;
 628               		.loc 1 114 9 is_stmt 1 view .LVU170
 114:../../tmk_core/protocol/lufa/lufa.c ****             return false;
 629               		.loc 1 114 13 is_stmt 0 view .LVU171
 630 0018 0E94 0000 		call timer_read32
 631               	.LVL41:
 114:../../tmk_core/protocol/lufa/lufa.c ****             return false;
 632               		.loc 1 114 12 view .LVU172
 633 001c 643C      		cpi r22,-60
 634 001e 7940      		sbci r23,9
 635 0020 8105      		cpc r24,__zero_reg__
 636 0022 9105      		cpc r25,__zero_reg__
 637 0024 00F0      		brlo .L52
 116:../../tmk_core/protocol/lufa/lufa.c ****     }
 638               		.loc 1 116 9 is_stmt 1 view .LVU173
 116:../../tmk_core/protocol/lufa/lufa.c ****     }
 639               		.loc 1 116 26 is_stmt 0 view .LVU174
 640 0026 81E0      		ldi r24,lo8(1)
 641 0028 8093 0000 		sts hid_listen_ready.4879,r24
 118:../../tmk_core/protocol/lufa/lufa.c **** }
 642               		.loc 1 118 12 view .LVU175
 643 002c B1E0      		ldi r27,lo8(1)
 644 002e BD83      		std Y+5,r27
 645               	.L52:
 119:../../tmk_core/protocol/lufa/lufa.c **** 
 646               		.loc 1 119 1 view .LVU176
 647 0030 8D81      		ldd r24,Y+5
 648               	/* epilogue start */
 649 0032 0F90      		pop __tmp_reg__
 650 0034 0F90      		pop __tmp_reg__
 651 0036 0F90      		pop __tmp_reg__
 652 0038 0F90      		pop __tmp_reg__
 653 003a 0F90      		pop __tmp_reg__
 654 003c DF91      		pop r29
 655 003e CF91      		pop r28
 656 0040 0895      		ret
 657               		.cfi_endproc
 658               	.LFE110:
 660               		.section	.text.sendchar,"ax",@progbits
 661               	.global	sendchar
 663               	sendchar:
 664               	.LVL42:
 665               	.LFB127:
 581:../../tmk_core/protocol/lufa/lufa.c **** 
 582:../../tmk_core/protocol/lufa/lufa.c **** 
 583:../../tmk_core/protocol/lufa/lufa.c **** /*******************************************************************************
 584:../../tmk_core/protocol/lufa/lufa.c ****  * sendchar
 585:../../tmk_core/protocol/lufa/lufa.c ****  ******************************************************************************/
 586:../../tmk_core/protocol/lufa/lufa.c **** int8_t sendchar(uint8_t c)
 587:../../tmk_core/protocol/lufa/lufa.c **** {
 666               		.loc 1 587 1 is_stmt 1 view -0
 667               		.cfi_startproc
 668               		.loc 1 587 1 is_stmt 0 view .LVU178
 669 0000 CF93      		push r28
 670               	.LCFI14:
 671               		.cfi_def_cfa_offset 3
 672               		.cfi_offset 28, -2
 673               	/* prologue: function */
 674               	/* frame size = 0 */
 675               	/* stack size = 1 */
 676               	.L__stack_usage = 1
 677 0002 C82F      		mov r28,r24
 588:../../tmk_core/protocol/lufa/lufa.c ****     #ifdef LUFA_DEBUG_SUART
 589:../../tmk_core/protocol/lufa/lufa.c ****     xmit(c);
 590:../../tmk_core/protocol/lufa/lufa.c ****     #endif
 591:../../tmk_core/protocol/lufa/lufa.c **** 
 592:../../tmk_core/protocol/lufa/lufa.c ****     #ifdef LUFA_DEBUG_UART
 593:../../tmk_core/protocol/lufa/lufa.c ****     uart_putchar(c);
 594:../../tmk_core/protocol/lufa/lufa.c ****     #endif
 595:../../tmk_core/protocol/lufa/lufa.c **** 
 596:../../tmk_core/protocol/lufa/lufa.c ****     #ifdef CONSOLE_ENABLE
 597:../../tmk_core/protocol/lufa/lufa.c ****     console_putc(c);
 678               		.loc 1 597 5 is_stmt 1 view .LVU179
 679               	.LVL43:
 680               	.LBB327:
 681               	.LBI327:
 121:../../tmk_core/protocol/lufa/lufa.c **** {
 682               		.loc 1 121 13 view .LVU180
 683               	.LBB328:
 123:../../tmk_core/protocol/lufa/lufa.c ****         goto EXIT;
 684               		.loc 1 123 5 view .LVU181
 123:../../tmk_core/protocol/lufa/lufa.c ****         goto EXIT;
 685               		.loc 1 123 10 is_stmt 0 view .LVU182
 686 0004 0E94 0000 		call console_is_ready
 687               	.LVL44:
 123:../../tmk_core/protocol/lufa/lufa.c ****         goto EXIT;
 688               		.loc 1 123 10 view .LVU183
 689 0008 3091 0000 		lds r19,sendbuf+2
 123:../../tmk_core/protocol/lufa/lufa.c ****         goto EXIT;
 690               		.loc 1 123 8 view .LVU184
 691 000c 8823      		tst r24
 692 000e 01F0      		breq .L55
 127:../../tmk_core/protocol/lufa/lufa.c ****         goto EXIT;
 693               		.loc 1 127 5 is_stmt 1 view .LVU185
 127:../../tmk_core/protocol/lufa/lufa.c ****         goto EXIT;
 694               		.loc 1 127 8 is_stmt 0 view .LVU186
 695 0010 0FB6      		in __tmp_reg__,__SREG__
 696 0012 07FE      		sbrs __tmp_reg__,7
 697 0014 00C0      		rjmp .L55
 130:../../tmk_core/protocol/lufa/lufa.c ****         goto EXIT;
 698               		.loc 1 130 5 is_stmt 1 view .LVU187
 130:../../tmk_core/protocol/lufa/lufa.c ****         goto EXIT;
 699               		.loc 1 130 25 is_stmt 0 view .LVU188
 700 0016 8091 0000 		lds r24,USB_DeviceState
 130:../../tmk_core/protocol/lufa/lufa.c ****         goto EXIT;
 701               		.loc 1 130 8 view .LVU189
 702 001a 8430      		cpi r24,lo8(4)
 703 001c 01F4      		brne .L55
 133:../../tmk_core/protocol/lufa/lufa.c **** 
 704               		.loc 1 133 5 is_stmt 1 view .LVU190
 705               	.LBB329:
 706               	.LBI329:
 250:../../tmk_core/protocol/lufa/LUFA-git/LUFA/Drivers/USB/Core/AVR8/../AVR8/Endpoint_AVR8.h **** 			{
 707               		.loc 2 250 26 view .LVU191
 708               	.LBB330:
 253:../../tmk_core/protocol/lufa/LUFA-git/LUFA/Drivers/USB/Core/AVR8/../AVR8/Endpoint_AVR8.h **** 				#else
 709               		.loc 2 253 6 view .LVU192
 253:../../tmk_core/protocol/lufa/LUFA-git/LUFA/Drivers/USB/Core/AVR8/../AVR8/Endpoint_AVR8.h **** 				#else
 710               		.loc 2 253 15 is_stmt 0 view .LVU193
 711 001e 8091 E900 		lds r24,233
 253:../../tmk_core/protocol/lufa/LUFA-git/LUFA/Drivers/USB/Core/AVR8/../AVR8/Endpoint_AVR8.h **** 				#else
 712               		.loc 2 253 21 view .LVU194
 713 0022 8F70      		andi r24,lo8(15)
 714               	.LBB331:
 715               	.LBI331:
 238:../../tmk_core/protocol/lufa/LUFA-git/LUFA/Drivers/USB/Core/AVR8/../AVR8/Endpoint_AVR8.h **** 			{
 716               		.loc 2 238 26 is_stmt 1 view .LVU195
 717               	.LBB332:
 240:../../tmk_core/protocol/lufa/LUFA-git/LUFA/Drivers/USB/Core/AVR8/../AVR8/Endpoint_AVR8.h **** 			}
 718               		.loc 2 240 5 view .LVU196
 240:../../tmk_core/protocol/lufa/LUFA-git/LUFA/Drivers/USB/Core/AVR8/../AVR8/Endpoint_AVR8.h **** 			}
 719               		.loc 2 240 13 is_stmt 0 view .LVU197
 720 0024 2091 EC00 		lds r18,236
 240:../../tmk_core/protocol/lufa/LUFA-git/LUFA/Drivers/USB/Core/AVR8/../AVR8/Endpoint_AVR8.h **** 			}
 721               		.loc 2 240 55 view .LVU198
 722 0028 922F      		mov r25,r18
 723 002a 9170      		andi r25,lo8(1)
 724 002c 20FD      		sbrc r18,0
 725 002e 90E8      		ldi r25,lo8(-128)
 726               	.L56:
 727               	.LBE332:
 728               	.LBE331:
 253:../../tmk_core/protocol/lufa/LUFA-git/LUFA/Drivers/USB/Core/AVR8/../AVR8/Endpoint_AVR8.h **** 				#else
 729               		.loc 2 253 44 view .LVU199
 730 0030 982B      		or r25,r24
 731               	.LVL45:
 253:../../tmk_core/protocol/lufa/LUFA-git/LUFA/Drivers/USB/Core/AVR8/../AVR8/Endpoint_AVR8.h **** 				#else
 732               		.loc 2 253 44 view .LVU200
 733               	.LBE330:
 734               	.LBE329:
 135:../../tmk_core/protocol/lufa/lufa.c ****     if (!Endpoint_IsEnabled() || !Endpoint_IsConfigured()) {
 735               		.loc 1 135 5 is_stmt 1 view .LVU201
 736               	.LBB333:
 737               	.LBI333:
 267:../../tmk_core/protocol/lufa/LUFA-git/LUFA/Drivers/USB/Core/AVR8/../AVR8/Endpoint_AVR8.h **** 			{
 738               		.loc 2 267 23 view .LVU202
 739               	.LBB334:
 270:../../tmk_core/protocol/lufa/LUFA-git/LUFA/Drivers/USB/Core/AVR8/../AVR8/Endpoint_AVR8.h **** 				#endif
 740               		.loc 2 270 6 view .LVU203
 270:../../tmk_core/protocol/lufa/LUFA-git/LUFA/Drivers/USB/Core/AVR8/../AVR8/Endpoint_AVR8.h **** 				#endif
 741               		.loc 2 270 12 is_stmt 0 view .LVU204
 742 0032 84E0      		ldi r24,lo8(4)
 743 0034 8093 E900 		sts 233,r24
 744               	.LVL46:
 270:../../tmk_core/protocol/lufa/LUFA-git/LUFA/Drivers/USB/Core/AVR8/../AVR8/Endpoint_AVR8.h **** 				#endif
 745               		.loc 2 270 12 view .LVU205
 746               	.LBE334:
 747               	.LBE333:
 136:../../tmk_core/protocol/lufa/lufa.c ****         goto EXIT_RESTORE_EP;
 748               		.loc 1 136 5 is_stmt 1 view .LVU206
 749               	.LBB335:
 750               	.LBI335:
 311:../../tmk_core/protocol/lufa/LUFA-git/LUFA/Drivers/USB/Core/AVR8/../AVR8/Endpoint_AVR8.h **** 			{
 751               		.loc 2 311 23 view .LVU207
 752               	.LBB336:
 313:../../tmk_core/protocol/lufa/LUFA-git/LUFA/Drivers/USB/Core/AVR8/../AVR8/Endpoint_AVR8.h **** 			}
 753               		.loc 2 313 5 view .LVU208
 313:../../tmk_core/protocol/lufa/LUFA-git/LUFA/Drivers/USB/Core/AVR8/../AVR8/Endpoint_AVR8.h **** 			}
 754               		.loc 2 313 14 is_stmt 0 view .LVU209
 755 0038 8091 EB00 		lds r24,235
 756               	.LBE336:
 757               	.LBE335:
 136:../../tmk_core/protocol/lufa/lufa.c ****         goto EXIT_RESTORE_EP;
 758               		.loc 1 136 8 view .LVU210
 759 003c 80FF      		sbrs r24,0
 760 003e 00C0      		rjmp .L57
 761               	.LBB337:
 762               	.LBI337:
 368:../../tmk_core/protocol/lufa/LUFA-git/LUFA/Drivers/USB/Core/AVR8/../AVR8/Endpoint_AVR8.h **** 			{
 763               		.loc 2 368 23 is_stmt 1 view .LVU211
 764               	.LBB338:
 370:../../tmk_core/protocol/lufa/LUFA-git/LUFA/Drivers/USB/Core/AVR8/../AVR8/Endpoint_AVR8.h **** 			}
 765               		.loc 2 370 5 view .LVU212
 370:../../tmk_core/protocol/lufa/LUFA-git/LUFA/Drivers/USB/Core/AVR8/../AVR8/Endpoint_AVR8.h **** 			}
 766               		.loc 2 370 14 is_stmt 0 view .LVU213
 767 0040 8091 EE00 		lds r24,238
 768               	.LBE338:
 769               	.LBE337:
 136:../../tmk_core/protocol/lufa/lufa.c ****         goto EXIT_RESTORE_EP;
 770               		.loc 1 136 31 view .LVU214
 771 0044 87FD      		sbrc r24,7
 772 0046 00C0      		rjmp .L58
 773               	.L57:
 774               	.LDL1:
 158:../../tmk_core/protocol/lufa/lufa.c **** EXIT:
 775               		.loc 1 158 5 is_stmt 1 view .LVU215
 776               	.LVL47:
 777               	.LBB339:
 778               	.LBI339:
 267:../../tmk_core/protocol/lufa/LUFA-git/LUFA/Drivers/USB/Core/AVR8/../AVR8/Endpoint_AVR8.h **** 			{
 779               		.loc 2 267 23 view .LVU216
 780               	.LBB340:
 270:../../tmk_core/protocol/lufa/LUFA-git/LUFA/Drivers/USB/Core/AVR8/../AVR8/Endpoint_AVR8.h **** 				#endif
 781               		.loc 2 270 6 view .LVU217
 270:../../tmk_core/protocol/lufa/LUFA-git/LUFA/Drivers/USB/Core/AVR8/../AVR8/Endpoint_AVR8.h **** 				#endif
 782               		.loc 2 270 23 is_stmt 0 view .LVU218
 783 0048 9F70      		andi r25,lo8(15)
 784               	.LVL48:
 270:../../tmk_core/protocol/lufa/LUFA-git/LUFA/Drivers/USB/Core/AVR8/../AVR8/Endpoint_AVR8.h **** 				#endif
 785               		.loc 2 270 12 view .LVU219
 786 004a 9093 E900 		sts 233,r25
 787               	.L55:
 270:../../tmk_core/protocol/lufa/LUFA-git/LUFA/Drivers/USB/Core/AVR8/../AVR8/Endpoint_AVR8.h **** 				#endif
 788               		.loc 2 270 12 view .LVU220
 789               	.LBE340:
 790               	.LBE339:
 160:../../tmk_core/protocol/lufa/lufa.c **** }
 791               		.loc 1 160 5 is_stmt 1 view .LVU221
 792               	.LVL49:
 793               	.LBB341:
 794               	.LBI341:
 795               		.file 4 "../../tmk_core/common/ringbuf.h"
   1:../../tmk_core/common/ringbuf.h **** #ifndef RINGBUF_H
   2:../../tmk_core/common/ringbuf.h **** #define RINGBUF_H
   3:../../tmk_core/common/ringbuf.h **** 
   4:../../tmk_core/common/ringbuf.h **** #include <stdint.h>
   5:../../tmk_core/common/ringbuf.h **** #include <stdbool.h>
   6:../../tmk_core/common/ringbuf.h **** 
   7:../../tmk_core/common/ringbuf.h **** // NOTE: buffer size must be 2^n and up to 255. size_mask should be 2^n - 1 due to using &(AND) ins
   8:../../tmk_core/common/ringbuf.h **** typedef struct {
   9:../../tmk_core/common/ringbuf.h ****     uint8_t *buffer;
  10:../../tmk_core/common/ringbuf.h ****     uint8_t head;
  11:../../tmk_core/common/ringbuf.h ****     uint8_t tail;
  12:../../tmk_core/common/ringbuf.h ****     uint8_t size_mask;
  13:../../tmk_core/common/ringbuf.h **** } ringbuf_t;
  14:../../tmk_core/common/ringbuf.h **** 
  15:../../tmk_core/common/ringbuf.h **** static inline void ringbuf_init(ringbuf_t *buf, uint8_t *array, uint8_t size);
  16:../../tmk_core/common/ringbuf.h **** static inline int16_t ringbuf_get(ringbuf_t *buf);
  17:../../tmk_core/common/ringbuf.h **** static inline bool ringbuf_put(ringbuf_t *buf, uint8_t data);
  18:../../tmk_core/common/ringbuf.h **** static inline void ringbuf_write(ringbuf_t *buf, uint8_t data);
  19:../../tmk_core/common/ringbuf.h **** static inline bool ringbuf_is_empty(ringbuf_t *buf);
  20:../../tmk_core/common/ringbuf.h **** static inline bool ringbuf_is_full(ringbuf_t *buf);
  21:../../tmk_core/common/ringbuf.h **** static inline void ringbuf_reset(ringbuf_t *buf);
  22:../../tmk_core/common/ringbuf.h **** 
  23:../../tmk_core/common/ringbuf.h **** static inline void ringbuf_init(ringbuf_t *buf, uint8_t *array, uint8_t size)
  24:../../tmk_core/common/ringbuf.h **** {
  25:../../tmk_core/common/ringbuf.h ****     buf->buffer = array;
  26:../../tmk_core/common/ringbuf.h ****     buf->head = 0;
  27:../../tmk_core/common/ringbuf.h ****     buf->tail = 0;
  28:../../tmk_core/common/ringbuf.h ****     buf->size_mask = size - 1;
  29:../../tmk_core/common/ringbuf.h **** }
  30:../../tmk_core/common/ringbuf.h **** static inline int16_t ringbuf_get(ringbuf_t *buf)
  31:../../tmk_core/common/ringbuf.h **** {
  32:../../tmk_core/common/ringbuf.h ****     if (ringbuf_is_empty(buf)) return -1;
  33:../../tmk_core/common/ringbuf.h ****     uint8_t data = buf->buffer[buf->tail];
  34:../../tmk_core/common/ringbuf.h ****     buf->tail++;
  35:../../tmk_core/common/ringbuf.h ****     buf->tail &= buf->size_mask;
  36:../../tmk_core/common/ringbuf.h ****     return  data;
  37:../../tmk_core/common/ringbuf.h **** }
  38:../../tmk_core/common/ringbuf.h **** static inline bool ringbuf_put(ringbuf_t *buf, uint8_t data)
 796               		.loc 4 38 20 view .LVU222
 797               	.LBB342:
  39:../../tmk_core/common/ringbuf.h **** {
  40:../../tmk_core/common/ringbuf.h ****     if (ringbuf_is_full(buf)) {
 798               		.loc 4 40 5 view .LVU223
 799               	.LBB343:
 800               	.LBI343:
  41:../../tmk_core/common/ringbuf.h ****         return false;
  42:../../tmk_core/common/ringbuf.h ****     }
  43:../../tmk_core/common/ringbuf.h ****     buf->buffer[buf->head] = data;
  44:../../tmk_core/common/ringbuf.h ****     buf->head++;
  45:../../tmk_core/common/ringbuf.h ****     buf->head &= buf->size_mask;
  46:../../tmk_core/common/ringbuf.h ****     return true;
  47:../../tmk_core/common/ringbuf.h **** }
  48:../../tmk_core/common/ringbuf.h **** // this overrides data in buffer when it is full
  49:../../tmk_core/common/ringbuf.h **** static inline void ringbuf_write(ringbuf_t *buf, uint8_t data)
  50:../../tmk_core/common/ringbuf.h **** {
  51:../../tmk_core/common/ringbuf.h ****     buf->buffer[buf->head] = data;
  52:../../tmk_core/common/ringbuf.h ****     buf->head++;
  53:../../tmk_core/common/ringbuf.h ****     buf->head &= buf->size_mask;
  54:../../tmk_core/common/ringbuf.h ****     // eat tail: override data yet to be consumed
  55:../../tmk_core/common/ringbuf.h ****     if (buf->head == buf->tail) {
  56:../../tmk_core/common/ringbuf.h ****         buf->tail++;
  57:../../tmk_core/common/ringbuf.h ****         buf->tail &= buf->size_mask;
  58:../../tmk_core/common/ringbuf.h ****     }
  59:../../tmk_core/common/ringbuf.h **** }
  60:../../tmk_core/common/ringbuf.h **** static inline bool ringbuf_is_empty(ringbuf_t *buf)
  61:../../tmk_core/common/ringbuf.h **** {
  62:../../tmk_core/common/ringbuf.h ****     return (buf->head == buf->tail);
  63:../../tmk_core/common/ringbuf.h **** }
  64:../../tmk_core/common/ringbuf.h **** static inline bool ringbuf_is_full(ringbuf_t *buf)
 801               		.loc 4 64 20 view .LVU224
 802               	.LBB344:
  65:../../tmk_core/common/ringbuf.h **** {
  66:../../tmk_core/common/ringbuf.h ****     return (((buf->head + 1) & buf->size_mask) == buf->tail);
 803               		.loc 4 66 5 view .LVU225
 804               		.loc 4 66 18 is_stmt 0 view .LVU226
 805 004e 232F      		mov r18,r19
 806 0050 30E0      		ldi r19,0
 807               		.loc 4 66 25 view .LVU227
 808 0052 C901      		movw r24,r18
 809 0054 0196      		adiw r24,1
 810               		.loc 4 66 35 view .LVU228
 811 0056 4091 0000 		lds r20,sendbuf+4
 812 005a 50E0      		ldi r21,0
 813               		.loc 4 66 30 view .LVU229
 814 005c 8423      		and r24,r20
 815 005e 9523      		and r25,r21
 816               		.loc 4 66 54 view .LVU230
 817 0060 4091 0000 		lds r20,sendbuf+3
 818               	.LBE344:
 819               	.LBE343:
  40:../../tmk_core/common/ringbuf.h ****         return false;
 820               		.loc 4 40 8 view .LVU231
 821 0064 4817      		cp r20,r24
 822 0066 1906      		cpc __zero_reg__,r25
 823 0068 01F0      		breq .L68
  43:../../tmk_core/common/ringbuf.h ****     buf->head++;
 824               		.loc 4 43 5 is_stmt 1 view .LVU232
  43:../../tmk_core/common/ringbuf.h ****     buf->head++;
 825               		.loc 4 43 28 is_stmt 0 view .LVU233
 826 006a 8091 0000 		lds r24,sendbuf
 827 006e 9091 0000 		lds r25,sendbuf+1
 828 0072 280F      		add r18,r24
 829 0074 391F      		adc r19,r25
 830 0076 F901      		movw r30,r18
 831 0078 C083      		st Z,r28
  44:../../tmk_core/common/ringbuf.h ****     buf->head &= buf->size_mask;
 832               		.loc 4 44 5 is_stmt 1 view .LVU234
  45:../../tmk_core/common/ringbuf.h ****     return true;
 833               		.loc 4 45 5 view .LVU235
  44:../../tmk_core/common/ringbuf.h ****     buf->head &= buf->size_mask;
 834               		.loc 4 44 14 is_stmt 0 view .LVU236
 835 007a 8091 0000 		lds r24,sendbuf+2
 836 007e 8F5F      		subi r24,lo8(-(1))
  45:../../tmk_core/common/ringbuf.h ****     return true;
 837               		.loc 4 45 15 view .LVU237
 838 0080 9091 0000 		lds r25,sendbuf+4
 839 0084 8923      		and r24,r25
 840 0086 8093 0000 		sts sendbuf+2,r24
  46:../../tmk_core/common/ringbuf.h **** }
 841               		.loc 4 46 5 is_stmt 1 view .LVU238
 842               	.LVL50:
  46:../../tmk_core/common/ringbuf.h **** }
 843               		.loc 4 46 5 is_stmt 0 view .LVU239
 844               	.LBE342:
 845               	.LBE341:
 846               	.LBE328:
 847               	.LBE327:
 598:../../tmk_core/protocol/lufa/lufa.c ****     #endif
 599:../../tmk_core/protocol/lufa/lufa.c **** 
 600:../../tmk_core/protocol/lufa/lufa.c ****     return 0;
 848               		.loc 1 600 5 is_stmt 1 view .LVU240
 849               		.loc 1 600 12 is_stmt 0 view .LVU241
 850 008a 00C0      		rjmp .L68
 851               	.LVL51:
 852               	.L61:
 853               	.LBB372:
 854               	.LBB369:
 142:../../tmk_core/protocol/lufa/lufa.c **** 
 855               		.loc 1 142 9 is_stmt 1 view .LVU242
 856               	.LBB345:
 857               	.LBI345:
  30:../../tmk_core/common/ringbuf.h **** {
 858               		.loc 4 30 23 view .LVU243
 859               	.LBB346:
  32:../../tmk_core/common/ringbuf.h ****     uint8_t data = buf->buffer[buf->tail];
 860               		.loc 4 32 5 view .LVU244
  32:../../tmk_core/common/ringbuf.h ****     uint8_t data = buf->buffer[buf->tail];
 861               		.loc 4 32 5 is_stmt 0 view .LVU245
 862               	.LBE346:
 863               	.LBE345:
 864               	.LBE369:
 865               	.LBE372:
  62:../../tmk_core/common/ringbuf.h **** }
 866               		.loc 4 62 5 is_stmt 1 view .LVU246
 867               	.LBB373:
 868               	.LBB370:
 869               	.LBB348:
 870               	.LBB347:
  33:../../tmk_core/common/ringbuf.h ****     buf->tail++;
 871               		.loc 4 33 5 view .LVU247
  33:../../tmk_core/common/ringbuf.h ****     buf->tail++;
 872               		.loc 4 33 13 is_stmt 0 view .LVU248
 873 008c E091 0000 		lds r30,sendbuf
 874 0090 F091 0000 		lds r31,sendbuf+1
 875 0094 E20F      		add r30,r18
 876 0096 F11D      		adc r31,__zero_reg__
 877 0098 8081      		ld r24,Z
 878               	.LVL52:
  34:../../tmk_core/common/ringbuf.h ****     buf->tail &= buf->size_mask;
 879               		.loc 4 34 5 is_stmt 1 view .LVU249
  35:../../tmk_core/common/ringbuf.h ****     return  data;
 880               		.loc 4 35 5 view .LVU250
  34:../../tmk_core/common/ringbuf.h ****     buf->tail &= buf->size_mask;
 881               		.loc 4 34 14 is_stmt 0 view .LVU251
 882 009a 2F5F      		subi r18,lo8(-(1))
  35:../../tmk_core/common/ringbuf.h ****     return  data;
 883               		.loc 4 35 15 view .LVU252
 884 009c 4091 0000 		lds r20,sendbuf+4
 885 00a0 2423      		and r18,r20
 886 00a2 2093 0000 		sts sendbuf+3,r18
  36:../../tmk_core/common/ringbuf.h **** }
 887               		.loc 4 36 5 is_stmt 1 view .LVU253
 888               	.LVL53:
  36:../../tmk_core/common/ringbuf.h **** }
 889               		.loc 4 36 5 is_stmt 0 view .LVU254
 890               	.LBE347:
 891               	.LBE348:
 892               	.LBB349:
 893               	.LBI349:
 457:../../tmk_core/protocol/lufa/LUFA-git/LUFA/Drivers/USB/Core/AVR8/../AVR8/Endpoint_AVR8.h **** 				#else
 458:../../tmk_core/protocol/lufa/LUFA-git/LUFA/Drivers/USB/Core/AVR8/../AVR8/Endpoint_AVR8.h **** 					UEINTX &= ~(1 << TXINI);
 459:../../tmk_core/protocol/lufa/LUFA-git/LUFA/Drivers/USB/Core/AVR8/../AVR8/Endpoint_AVR8.h **** 				#endif
 460:../../tmk_core/protocol/lufa/LUFA-git/LUFA/Drivers/USB/Core/AVR8/../AVR8/Endpoint_AVR8.h **** 			}
 461:../../tmk_core/protocol/lufa/LUFA-git/LUFA/Drivers/USB/Core/AVR8/../AVR8/Endpoint_AVR8.h **** 
 462:../../tmk_core/protocol/lufa/LUFA-git/LUFA/Drivers/USB/Core/AVR8/../AVR8/Endpoint_AVR8.h **** 			/** Acknowledges an OUT packet to the host on the currently selected endpoint, freeing up the en
 463:../../tmk_core/protocol/lufa/LUFA-git/LUFA/Drivers/USB/Core/AVR8/../AVR8/Endpoint_AVR8.h **** 			 *  for the next packet and switching to the alternative endpoint bank if double banked.
 464:../../tmk_core/protocol/lufa/LUFA-git/LUFA/Drivers/USB/Core/AVR8/../AVR8/Endpoint_AVR8.h **** 			 *
 465:../../tmk_core/protocol/lufa/LUFA-git/LUFA/Drivers/USB/Core/AVR8/../AVR8/Endpoint_AVR8.h **** 			 *  \ingroup Group_EndpointPacketManagement_AVR8
 466:../../tmk_core/protocol/lufa/LUFA-git/LUFA/Drivers/USB/Core/AVR8/../AVR8/Endpoint_AVR8.h **** 			 */
 467:../../tmk_core/protocol/lufa/LUFA-git/LUFA/Drivers/USB/Core/AVR8/../AVR8/Endpoint_AVR8.h **** 			static inline void Endpoint_ClearOUT(void) ATTR_ALWAYS_INLINE;
 468:../../tmk_core/protocol/lufa/LUFA-git/LUFA/Drivers/USB/Core/AVR8/../AVR8/Endpoint_AVR8.h **** 			static inline void Endpoint_ClearOUT(void)
 469:../../tmk_core/protocol/lufa/LUFA-git/LUFA/Drivers/USB/Core/AVR8/../AVR8/Endpoint_AVR8.h **** 			{
 470:../../tmk_core/protocol/lufa/LUFA-git/LUFA/Drivers/USB/Core/AVR8/../AVR8/Endpoint_AVR8.h **** 				#if !defined(CONTROL_ONLY_DEVICE)
 471:../../tmk_core/protocol/lufa/LUFA-git/LUFA/Drivers/USB/Core/AVR8/../AVR8/Endpoint_AVR8.h **** 					UEINTX &= ~((1 << RXOUTI) | (1 << FIFOCON));
 472:../../tmk_core/protocol/lufa/LUFA-git/LUFA/Drivers/USB/Core/AVR8/../AVR8/Endpoint_AVR8.h **** 				#else
 473:../../tmk_core/protocol/lufa/LUFA-git/LUFA/Drivers/USB/Core/AVR8/../AVR8/Endpoint_AVR8.h **** 					UEINTX &= ~(1 << RXOUTI);
 474:../../tmk_core/protocol/lufa/LUFA-git/LUFA/Drivers/USB/Core/AVR8/../AVR8/Endpoint_AVR8.h **** 				#endif
 475:../../tmk_core/protocol/lufa/LUFA-git/LUFA/Drivers/USB/Core/AVR8/../AVR8/Endpoint_AVR8.h **** 			}
 476:../../tmk_core/protocol/lufa/LUFA-git/LUFA/Drivers/USB/Core/AVR8/../AVR8/Endpoint_AVR8.h **** 
 477:../../tmk_core/protocol/lufa/LUFA-git/LUFA/Drivers/USB/Core/AVR8/../AVR8/Endpoint_AVR8.h **** 			/** Stalls the current endpoint, indicating to the host that a logical problem occurred with the
 478:../../tmk_core/protocol/lufa/LUFA-git/LUFA/Drivers/USB/Core/AVR8/../AVR8/Endpoint_AVR8.h **** 			 *  indicated endpoint and that the current transfer sequence should be aborted. This provides a
 479:../../tmk_core/protocol/lufa/LUFA-git/LUFA/Drivers/USB/Core/AVR8/../AVR8/Endpoint_AVR8.h **** 			 *  way for devices to indicate invalid commands to the host so that the current transfer can be
 480:../../tmk_core/protocol/lufa/LUFA-git/LUFA/Drivers/USB/Core/AVR8/../AVR8/Endpoint_AVR8.h **** 			 *  aborted and the host can begin its own recovery sequence.
 481:../../tmk_core/protocol/lufa/LUFA-git/LUFA/Drivers/USB/Core/AVR8/../AVR8/Endpoint_AVR8.h **** 			 *
 482:../../tmk_core/protocol/lufa/LUFA-git/LUFA/Drivers/USB/Core/AVR8/../AVR8/Endpoint_AVR8.h **** 			 *  The currently selected endpoint remains stalled until either the \ref Endpoint_ClearStall() 
 483:../../tmk_core/protocol/lufa/LUFA-git/LUFA/Drivers/USB/Core/AVR8/../AVR8/Endpoint_AVR8.h **** 			 *  is called, or the host issues a CLEAR FEATURE request to the device for the currently select
 484:../../tmk_core/protocol/lufa/LUFA-git/LUFA/Drivers/USB/Core/AVR8/../AVR8/Endpoint_AVR8.h **** 			 *  endpoint.
 485:../../tmk_core/protocol/lufa/LUFA-git/LUFA/Drivers/USB/Core/AVR8/../AVR8/Endpoint_AVR8.h **** 			 *
 486:../../tmk_core/protocol/lufa/LUFA-git/LUFA/Drivers/USB/Core/AVR8/../AVR8/Endpoint_AVR8.h **** 			 *  \ingroup Group_EndpointPacketManagement_AVR8
 487:../../tmk_core/protocol/lufa/LUFA-git/LUFA/Drivers/USB/Core/AVR8/../AVR8/Endpoint_AVR8.h **** 			 */
 488:../../tmk_core/protocol/lufa/LUFA-git/LUFA/Drivers/USB/Core/AVR8/../AVR8/Endpoint_AVR8.h **** 			static inline void Endpoint_StallTransaction(void) ATTR_ALWAYS_INLINE;
 489:../../tmk_core/protocol/lufa/LUFA-git/LUFA/Drivers/USB/Core/AVR8/../AVR8/Endpoint_AVR8.h **** 			static inline void Endpoint_StallTransaction(void)
 490:../../tmk_core/protocol/lufa/LUFA-git/LUFA/Drivers/USB/Core/AVR8/../AVR8/Endpoint_AVR8.h **** 			{
 491:../../tmk_core/protocol/lufa/LUFA-git/LUFA/Drivers/USB/Core/AVR8/../AVR8/Endpoint_AVR8.h **** 				UECONX |= (1 << STALLRQ);
 492:../../tmk_core/protocol/lufa/LUFA-git/LUFA/Drivers/USB/Core/AVR8/../AVR8/Endpoint_AVR8.h **** 			}
 493:../../tmk_core/protocol/lufa/LUFA-git/LUFA/Drivers/USB/Core/AVR8/../AVR8/Endpoint_AVR8.h **** 
 494:../../tmk_core/protocol/lufa/LUFA-git/LUFA/Drivers/USB/Core/AVR8/../AVR8/Endpoint_AVR8.h **** 			/** Clears the STALL condition on the currently selected endpoint.
 495:../../tmk_core/protocol/lufa/LUFA-git/LUFA/Drivers/USB/Core/AVR8/../AVR8/Endpoint_AVR8.h **** 			 *
 496:../../tmk_core/protocol/lufa/LUFA-git/LUFA/Drivers/USB/Core/AVR8/../AVR8/Endpoint_AVR8.h **** 			 *  \ingroup Group_EndpointPacketManagement_AVR8
 497:../../tmk_core/protocol/lufa/LUFA-git/LUFA/Drivers/USB/Core/AVR8/../AVR8/Endpoint_AVR8.h **** 			 */
 498:../../tmk_core/protocol/lufa/LUFA-git/LUFA/Drivers/USB/Core/AVR8/../AVR8/Endpoint_AVR8.h **** 			static inline void Endpoint_ClearStall(void) ATTR_ALWAYS_INLINE;
 499:../../tmk_core/protocol/lufa/LUFA-git/LUFA/Drivers/USB/Core/AVR8/../AVR8/Endpoint_AVR8.h **** 			static inline void Endpoint_ClearStall(void)
 500:../../tmk_core/protocol/lufa/LUFA-git/LUFA/Drivers/USB/Core/AVR8/../AVR8/Endpoint_AVR8.h **** 			{
 501:../../tmk_core/protocol/lufa/LUFA-git/LUFA/Drivers/USB/Core/AVR8/../AVR8/Endpoint_AVR8.h **** 				UECONX |= (1 << STALLRQC);
 502:../../tmk_core/protocol/lufa/LUFA-git/LUFA/Drivers/USB/Core/AVR8/../AVR8/Endpoint_AVR8.h **** 			}
 503:../../tmk_core/protocol/lufa/LUFA-git/LUFA/Drivers/USB/Core/AVR8/../AVR8/Endpoint_AVR8.h **** 
 504:../../tmk_core/protocol/lufa/LUFA-git/LUFA/Drivers/USB/Core/AVR8/../AVR8/Endpoint_AVR8.h **** 			/** Determines if the currently selected endpoint is stalled, \c false otherwise.
 505:../../tmk_core/protocol/lufa/LUFA-git/LUFA/Drivers/USB/Core/AVR8/../AVR8/Endpoint_AVR8.h **** 			 *
 506:../../tmk_core/protocol/lufa/LUFA-git/LUFA/Drivers/USB/Core/AVR8/../AVR8/Endpoint_AVR8.h **** 			 *  \ingroup Group_EndpointPacketManagement_AVR8
 507:../../tmk_core/protocol/lufa/LUFA-git/LUFA/Drivers/USB/Core/AVR8/../AVR8/Endpoint_AVR8.h **** 			 *
 508:../../tmk_core/protocol/lufa/LUFA-git/LUFA/Drivers/USB/Core/AVR8/../AVR8/Endpoint_AVR8.h **** 			 *  \return Boolean \c true if the currently selected endpoint is stalled, \c false otherwise.
 509:../../tmk_core/protocol/lufa/LUFA-git/LUFA/Drivers/USB/Core/AVR8/../AVR8/Endpoint_AVR8.h **** 			 */
 510:../../tmk_core/protocol/lufa/LUFA-git/LUFA/Drivers/USB/Core/AVR8/../AVR8/Endpoint_AVR8.h **** 			static inline bool Endpoint_IsStalled(void) ATTR_WARN_UNUSED_RESULT ATTR_ALWAYS_INLINE;
 511:../../tmk_core/protocol/lufa/LUFA-git/LUFA/Drivers/USB/Core/AVR8/../AVR8/Endpoint_AVR8.h **** 			static inline bool Endpoint_IsStalled(void)
 512:../../tmk_core/protocol/lufa/LUFA-git/LUFA/Drivers/USB/Core/AVR8/../AVR8/Endpoint_AVR8.h **** 			{
 513:../../tmk_core/protocol/lufa/LUFA-git/LUFA/Drivers/USB/Core/AVR8/../AVR8/Endpoint_AVR8.h **** 				return ((UECONX & (1 << STALLRQ)) ? true : false);
 514:../../tmk_core/protocol/lufa/LUFA-git/LUFA/Drivers/USB/Core/AVR8/../AVR8/Endpoint_AVR8.h **** 			}
 515:../../tmk_core/protocol/lufa/LUFA-git/LUFA/Drivers/USB/Core/AVR8/../AVR8/Endpoint_AVR8.h **** 
 516:../../tmk_core/protocol/lufa/LUFA-git/LUFA/Drivers/USB/Core/AVR8/../AVR8/Endpoint_AVR8.h **** 			/** Resets the data toggle of the currently selected endpoint. */
 517:../../tmk_core/protocol/lufa/LUFA-git/LUFA/Drivers/USB/Core/AVR8/../AVR8/Endpoint_AVR8.h **** 			static inline void Endpoint_ResetDataToggle(void) ATTR_ALWAYS_INLINE;
 518:../../tmk_core/protocol/lufa/LUFA-git/LUFA/Drivers/USB/Core/AVR8/../AVR8/Endpoint_AVR8.h **** 			static inline void Endpoint_ResetDataToggle(void)
 519:../../tmk_core/protocol/lufa/LUFA-git/LUFA/Drivers/USB/Core/AVR8/../AVR8/Endpoint_AVR8.h **** 			{
 520:../../tmk_core/protocol/lufa/LUFA-git/LUFA/Drivers/USB/Core/AVR8/../AVR8/Endpoint_AVR8.h **** 				UECONX |= (1 << RSTDT);
 521:../../tmk_core/protocol/lufa/LUFA-git/LUFA/Drivers/USB/Core/AVR8/../AVR8/Endpoint_AVR8.h **** 			}
 522:../../tmk_core/protocol/lufa/LUFA-git/LUFA/Drivers/USB/Core/AVR8/../AVR8/Endpoint_AVR8.h **** 
 523:../../tmk_core/protocol/lufa/LUFA-git/LUFA/Drivers/USB/Core/AVR8/../AVR8/Endpoint_AVR8.h **** 			/** Sets the direction of the currently selected endpoint.
 524:../../tmk_core/protocol/lufa/LUFA-git/LUFA/Drivers/USB/Core/AVR8/../AVR8/Endpoint_AVR8.h **** 			 *
 525:../../tmk_core/protocol/lufa/LUFA-git/LUFA/Drivers/USB/Core/AVR8/../AVR8/Endpoint_AVR8.h **** 			 *  \param[in] DirectionMask  New endpoint direction, as a \c ENDPOINT_DIR_* mask.
 526:../../tmk_core/protocol/lufa/LUFA-git/LUFA/Drivers/USB/Core/AVR8/../AVR8/Endpoint_AVR8.h **** 			 */
 527:../../tmk_core/protocol/lufa/LUFA-git/LUFA/Drivers/USB/Core/AVR8/../AVR8/Endpoint_AVR8.h **** 			static inline void Endpoint_SetEndpointDirection(const uint8_t DirectionMask) ATTR_ALWAYS_INLINE
 528:../../tmk_core/protocol/lufa/LUFA-git/LUFA/Drivers/USB/Core/AVR8/../AVR8/Endpoint_AVR8.h **** 			static inline void Endpoint_SetEndpointDirection(const uint8_t DirectionMask)
 529:../../tmk_core/protocol/lufa/LUFA-git/LUFA/Drivers/USB/Core/AVR8/../AVR8/Endpoint_AVR8.h **** 			{
 530:../../tmk_core/protocol/lufa/LUFA-git/LUFA/Drivers/USB/Core/AVR8/../AVR8/Endpoint_AVR8.h **** 				UECFG0X = ((UECFG0X & ~(1 << EPDIR)) | (DirectionMask ? (1 << EPDIR) : 0));
 531:../../tmk_core/protocol/lufa/LUFA-git/LUFA/Drivers/USB/Core/AVR8/../AVR8/Endpoint_AVR8.h **** 			}
 532:../../tmk_core/protocol/lufa/LUFA-git/LUFA/Drivers/USB/Core/AVR8/../AVR8/Endpoint_AVR8.h **** 
 533:../../tmk_core/protocol/lufa/LUFA-git/LUFA/Drivers/USB/Core/AVR8/../AVR8/Endpoint_AVR8.h **** 			/** Reads one byte from the currently selected endpoint's bank, for OUT direction endpoints.
 534:../../tmk_core/protocol/lufa/LUFA-git/LUFA/Drivers/USB/Core/AVR8/../AVR8/Endpoint_AVR8.h **** 			 *
 535:../../tmk_core/protocol/lufa/LUFA-git/LUFA/Drivers/USB/Core/AVR8/../AVR8/Endpoint_AVR8.h **** 			 *  \ingroup Group_EndpointPrimitiveRW_AVR8
 536:../../tmk_core/protocol/lufa/LUFA-git/LUFA/Drivers/USB/Core/AVR8/../AVR8/Endpoint_AVR8.h **** 			 *
 537:../../tmk_core/protocol/lufa/LUFA-git/LUFA/Drivers/USB/Core/AVR8/../AVR8/Endpoint_AVR8.h **** 			 *  \return Next byte in the currently selected endpoint's FIFO buffer.
 538:../../tmk_core/protocol/lufa/LUFA-git/LUFA/Drivers/USB/Core/AVR8/../AVR8/Endpoint_AVR8.h **** 			 */
 539:../../tmk_core/protocol/lufa/LUFA-git/LUFA/Drivers/USB/Core/AVR8/../AVR8/Endpoint_AVR8.h **** 			static inline uint8_t Endpoint_Read_8(void) ATTR_WARN_UNUSED_RESULT ATTR_ALWAYS_INLINE;
 540:../../tmk_core/protocol/lufa/LUFA-git/LUFA/Drivers/USB/Core/AVR8/../AVR8/Endpoint_AVR8.h **** 			static inline uint8_t Endpoint_Read_8(void)
 541:../../tmk_core/protocol/lufa/LUFA-git/LUFA/Drivers/USB/Core/AVR8/../AVR8/Endpoint_AVR8.h **** 			{
 542:../../tmk_core/protocol/lufa/LUFA-git/LUFA/Drivers/USB/Core/AVR8/../AVR8/Endpoint_AVR8.h **** 				return UEDATX;
 543:../../tmk_core/protocol/lufa/LUFA-git/LUFA/Drivers/USB/Core/AVR8/../AVR8/Endpoint_AVR8.h **** 			}
 544:../../tmk_core/protocol/lufa/LUFA-git/LUFA/Drivers/USB/Core/AVR8/../AVR8/Endpoint_AVR8.h **** 
 545:../../tmk_core/protocol/lufa/LUFA-git/LUFA/Drivers/USB/Core/AVR8/../AVR8/Endpoint_AVR8.h **** 			/** Writes one byte to the currently selected endpoint's bank, for IN direction endpoints.
 546:../../tmk_core/protocol/lufa/LUFA-git/LUFA/Drivers/USB/Core/AVR8/../AVR8/Endpoint_AVR8.h **** 			 *
 547:../../tmk_core/protocol/lufa/LUFA-git/LUFA/Drivers/USB/Core/AVR8/../AVR8/Endpoint_AVR8.h **** 			 *  \ingroup Group_EndpointPrimitiveRW_AVR8
 548:../../tmk_core/protocol/lufa/LUFA-git/LUFA/Drivers/USB/Core/AVR8/../AVR8/Endpoint_AVR8.h **** 			 *
 549:../../tmk_core/protocol/lufa/LUFA-git/LUFA/Drivers/USB/Core/AVR8/../AVR8/Endpoint_AVR8.h **** 			 *  \param[in] Data  Data to write into the the currently selected endpoint's FIFO buffer.
 550:../../tmk_core/protocol/lufa/LUFA-git/LUFA/Drivers/USB/Core/AVR8/../AVR8/Endpoint_AVR8.h **** 			 */
 551:../../tmk_core/protocol/lufa/LUFA-git/LUFA/Drivers/USB/Core/AVR8/../AVR8/Endpoint_AVR8.h **** 			static inline void Endpoint_Write_8(const uint8_t Data) ATTR_ALWAYS_INLINE;
 552:../../tmk_core/protocol/lufa/LUFA-git/LUFA/Drivers/USB/Core/AVR8/../AVR8/Endpoint_AVR8.h **** 			static inline void Endpoint_Write_8(const uint8_t Data)
 894               		.loc 2 552 23 is_stmt 1 view .LVU255
 895               	.LBB350:
 553:../../tmk_core/protocol/lufa/LUFA-git/LUFA/Drivers/USB/Core/AVR8/../AVR8/Endpoint_AVR8.h **** 			{
 554:../../tmk_core/protocol/lufa/LUFA-git/LUFA/Drivers/USB/Core/AVR8/../AVR8/Endpoint_AVR8.h **** 				UEDATX = Data;
 896               		.loc 2 554 5 view .LVU256
 897               		.loc 2 554 12 is_stmt 0 view .LVU257
 898 00a6 8093 F100 		sts 241,r24
 899               	.LVL54:
 900               		.loc 2 554 12 view .LVU258
 901               	.LBE350:
 902               	.LBE349:
 145:../../tmk_core/protocol/lufa/lufa.c ****             Endpoint_ClearIN();
 903               		.loc 1 145 9 is_stmt 1 view .LVU259
 904               	.LBB351:
 905               	.LBI351:
 358:../../tmk_core/protocol/lufa/LUFA-git/LUFA/Drivers/USB/Core/AVR8/../AVR8/Endpoint_AVR8.h **** 			{
 906               		.loc 2 358 23 view .LVU260
 907               	.LBB352:
 360:../../tmk_core/protocol/lufa/LUFA-git/LUFA/Drivers/USB/Core/AVR8/../AVR8/Endpoint_AVR8.h **** 			}
 908               		.loc 2 360 5 view .LVU261
 360:../../tmk_core/protocol/lufa/LUFA-git/LUFA/Drivers/USB/Core/AVR8/../AVR8/Endpoint_AVR8.h **** 			}
 909               		.loc 2 360 14 is_stmt 0 view .LVU262
 910 00aa 8091 E800 		lds r24,232
 911               	.LBE352:
 912               	.LBE351:
 145:../../tmk_core/protocol/lufa/lufa.c ****             Endpoint_ClearIN();
 913               		.loc 1 145 12 view .LVU263
 914 00ae 85FD      		sbrc r24,5
 915 00b0 00C0      		rjmp .L58
 916               	.LBB353:
 917               	.LBI353:
 405:../../tmk_core/protocol/lufa/LUFA-git/LUFA/Drivers/USB/Core/AVR8/../AVR8/Endpoint_AVR8.h **** 			{
 918               		.loc 2 405 23 is_stmt 1 view .LVU264
 919               	.LBB354:
 407:../../tmk_core/protocol/lufa/LUFA-git/LUFA/Drivers/USB/Core/AVR8/../AVR8/Endpoint_AVR8.h **** 			}
 920               		.loc 2 407 5 view .LVU265
 407:../../tmk_core/protocol/lufa/LUFA-git/LUFA/Drivers/USB/Core/AVR8/../AVR8/Endpoint_AVR8.h **** 			}
 921               		.loc 2 407 14 is_stmt 0 view .LVU266
 922 00b2 8091 E800 		lds r24,232
 923               	.LBE354:
 924               	.LBE353:
 145:../../tmk_core/protocol/lufa/lufa.c ****             Endpoint_ClearIN();
 925               		.loc 1 145 44 view .LVU267
 926 00b6 80FF      		sbrs r24,0
 927 00b8 00C0      		rjmp .L58
 146:../../tmk_core/protocol/lufa/lufa.c ****         }
 928               		.loc 1 146 13 is_stmt 1 view .LVU268
 929               	.LBB355:
 930               	.LBI355:
 453:../../tmk_core/protocol/lufa/LUFA-git/LUFA/Drivers/USB/Core/AVR8/../AVR8/Endpoint_AVR8.h **** 			{
 931               		.loc 2 453 23 view .LVU269
 932               	.LBB356:
 456:../../tmk_core/protocol/lufa/LUFA-git/LUFA/Drivers/USB/Core/AVR8/../AVR8/Endpoint_AVR8.h **** 				#else
 933               		.loc 2 456 6 view .LVU270
 456:../../tmk_core/protocol/lufa/LUFA-git/LUFA/Drivers/USB/Core/AVR8/../AVR8/Endpoint_AVR8.h **** 				#else
 934               		.loc 2 456 13 is_stmt 0 view .LVU271
 935 00ba 8091 E800 		lds r24,232
 936 00be 8E77      		andi r24,lo8(126)
 937 00c0 8093 E800 		sts 232,r24
 938               	.L58:
 939               	.LVL55:
 456:../../tmk_core/protocol/lufa/LUFA-git/LUFA/Drivers/USB/Core/AVR8/../AVR8/Endpoint_AVR8.h **** 				#else
 940               		.loc 2 456 13 view .LVU272
 941               	.LBE356:
 942               	.LBE355:
 943               	.LBB357:
 944               	.LBI357:
  60:../../tmk_core/common/ringbuf.h **** {
 945               		.loc 4 60 20 is_stmt 1 view .LVU273
 946               	.LBB358:
  62:../../tmk_core/common/ringbuf.h **** }
 947               		.loc 4 62 5 view .LVU274
  62:../../tmk_core/common/ringbuf.h **** }
 948               		.loc 4 62 29 is_stmt 0 view .LVU275
 949 00c4 2091 0000 		lds r18,sendbuf+3
 950               	.LVL56:
  62:../../tmk_core/common/ringbuf.h **** }
 951               		.loc 4 62 29 view .LVU276
 952               	.LBE358:
 953               	.LBE357:
 954               	.LBB359:
 955               	.LBB360:
 360:../../tmk_core/protocol/lufa/LUFA-git/LUFA/Drivers/USB/Core/AVR8/../AVR8/Endpoint_AVR8.h **** 			}
 956               		.loc 2 360 14 view .LVU277
 957 00c8 8091 E800 		lds r24,232
 958               	.LBE360:
 959               	.LBE359:
 141:../../tmk_core/protocol/lufa/lufa.c ****         Endpoint_Write_8(ringbuf_get(&sendbuf));
 960               		.loc 1 141 11 view .LVU278
 961 00cc 3217      		cp r19,r18
 962 00ce 01F0      		breq .L60
 963               	.LBB362:
 964               	.LBI359:
 358:../../tmk_core/protocol/lufa/LUFA-git/LUFA/Drivers/USB/Core/AVR8/../AVR8/Endpoint_AVR8.h **** 			{
 965               		.loc 2 358 23 is_stmt 1 view .LVU279
 966               	.LBB361:
 360:../../tmk_core/protocol/lufa/LUFA-git/LUFA/Drivers/USB/Core/AVR8/../AVR8/Endpoint_AVR8.h **** 			}
 967               		.loc 2 360 5 view .LVU280
 968               	.LBE361:
 969               	.LBE362:
 141:../../tmk_core/protocol/lufa/lufa.c ****         Endpoint_Write_8(ringbuf_get(&sendbuf));
 970               		.loc 1 141 40 is_stmt 0 view .LVU281
 971 00d0 85FD      		sbrc r24,5
 972 00d2 00C0      		rjmp .L61
 973 00d4 00C0      		rjmp .L57
 974               	.L60:
 151:../../tmk_core/protocol/lufa/lufa.c ****         Endpoint_Write_8(c);
 975               		.loc 1 151 5 is_stmt 1 view .LVU282
 976               	.LVL57:
 151:../../tmk_core/protocol/lufa/lufa.c ****         Endpoint_Write_8(c);
 977               		.loc 1 151 5 is_stmt 0 view .LVU283
 978               	.LBE370:
 979               	.LBE373:
  62:../../tmk_core/common/ringbuf.h **** }
 980               		.loc 4 62 5 is_stmt 1 view .LVU284
 981               	.LBB374:
 982               	.LBB371:
 983               	.LBB363:
 984               	.LBI363:
 358:../../tmk_core/protocol/lufa/LUFA-git/LUFA/Drivers/USB/Core/AVR8/../AVR8/Endpoint_AVR8.h **** 			{
 985               		.loc 2 358 23 view .LVU285
 986               	.LBB364:
 360:../../tmk_core/protocol/lufa/LUFA-git/LUFA/Drivers/USB/Core/AVR8/../AVR8/Endpoint_AVR8.h **** 			}
 987               		.loc 2 360 5 view .LVU286
 988               	.LBE364:
 989               	.LBE363:
 151:../../tmk_core/protocol/lufa/lufa.c ****         Endpoint_Write_8(c);
 990               		.loc 1 151 36 is_stmt 0 view .LVU287
 991 00d6 85FF      		sbrs r24,5
 992 00d8 00C0      		rjmp .L57
 152:../../tmk_core/protocol/lufa/lufa.c ****         Endpoint_SelectEndpoint(ep);
 993               		.loc 1 152 9 is_stmt 1 view .LVU288
 994               	.LVL58:
 995               	.LBB365:
 996               	.LBI365:
 552:../../tmk_core/protocol/lufa/LUFA-git/LUFA/Drivers/USB/Core/AVR8/../AVR8/Endpoint_AVR8.h **** 			{
 997               		.loc 2 552 23 view .LVU289
 998               	.LBB366:
 999               		.loc 2 554 5 view .LVU290
 1000               		.loc 2 554 12 is_stmt 0 view .LVU291
 1001 00da C093 F100 		sts 241,r28
 1002               	.LVL59:
 1003               		.loc 2 554 12 view .LVU292
 1004               	.LBE366:
 1005               	.LBE365:
 153:../../tmk_core/protocol/lufa/lufa.c ****         return true;
 1006               		.loc 1 153 9 is_stmt 1 view .LVU293
 1007               	.LBB367:
 1008               	.LBI367:
 267:../../tmk_core/protocol/lufa/LUFA-git/LUFA/Drivers/USB/Core/AVR8/../AVR8/Endpoint_AVR8.h **** 			{
 1009               		.loc 2 267 23 view .LVU294
 1010               	.LBB368:
 270:../../tmk_core/protocol/lufa/LUFA-git/LUFA/Drivers/USB/Core/AVR8/../AVR8/Endpoint_AVR8.h **** 				#endif
 1011               		.loc 2 270 6 view .LVU295
 1012 00de 9F70      		andi r25,lo8(15)
 1013               	.LVL60:
 270:../../tmk_core/protocol/lufa/LUFA-git/LUFA/Drivers/USB/Core/AVR8/../AVR8/Endpoint_AVR8.h **** 				#endif
 1014               		.loc 2 270 12 is_stmt 0 view .LVU296
 1015 00e0 9093 E900 		sts 233,r25
 270:../../tmk_core/protocol/lufa/LUFA-git/LUFA/Drivers/USB/Core/AVR8/../AVR8/Endpoint_AVR8.h **** 				#endif
 1016               		.loc 2 270 12 view .LVU297
 1017               	.LBE368:
 1018               	.LBE367:
 154:../../tmk_core/protocol/lufa/lufa.c ****     }
 1019               		.loc 1 154 9 is_stmt 1 view .LVU298
 1020               	.LVL61:
 1021               	.L68:
 154:../../tmk_core/protocol/lufa/lufa.c ****     }
 1022               		.loc 1 154 9 is_stmt 0 view .LVU299
 1023               	.LBE371:
 1024               	.LBE374:
 601:../../tmk_core/protocol/lufa/lufa.c **** }
 1025               		.loc 1 601 1 view .LVU300
 1026 00e4 80E0      		ldi r24,0
 1027               	/* epilogue start */
 1028 00e6 CF91      		pop r28
 1029               	.LVL62:
 1030               		.loc 1 601 1 view .LVU301
 1031 00e8 0895      		ret
 1032               		.cfi_endproc
 1033               	.LFE127:
 1035               		.section	.text.EVENT_USB_Device_Connect,"ax",@progbits
 1036               	.global	EVENT_USB_Device_Connect
 1038               	EVENT_USB_Device_Connect:
 1039               	.LFB114:
 224:../../tmk_core/protocol/lufa/lufa.c **** #ifdef LUFA_DEBUG
 1040               		.loc 1 224 1 is_stmt 1 view -0
 1041               		.cfi_startproc
 1042               	/* prologue: function */
 1043               	/* frame size = 0 */
 1044               	/* stack size = 0 */
 1045               	.L__stack_usage = 0
 229:../../tmk_core/protocol/lufa/lufa.c ****         USB_Disable();
 1046               		.loc 1 229 5 view .LVU303
 229:../../tmk_core/protocol/lufa/lufa.c ****         USB_Disable();
 1047               		.loc 1 229 9 is_stmt 0 view .LVU304
 1048 0000 8091 0000 		lds r24,USB_IsInitialized
 229:../../tmk_core/protocol/lufa/lufa.c ****         USB_Disable();
 1049               		.loc 1 229 8 view .LVU305
 1050 0004 8111      		cpse r24,__zero_reg__
 1051 0006 00C0      		rjmp .L75
 230:../../tmk_core/protocol/lufa/lufa.c ****         USB_Init();
 1052               		.loc 1 230 9 is_stmt 1 view .LVU306
 1053 0008 0E94 0000 		call USB_Disable
 1054               	.LVL63:
 231:../../tmk_core/protocol/lufa/lufa.c ****         USB_Device_EnableSOFEvents();
 1055               		.loc 1 231 9 view .LVU307
 1056 000c 0E94 0000 		call USB_Init
 1057               	.LVL64:
 232:../../tmk_core/protocol/lufa/lufa.c ****     }
 1058               		.loc 1 232 9 view .LVU308
 1059               	.LBB375:
 1060               	.LBI375:
 1061               		.file 5 "../../tmk_core/protocol/lufa/LUFA-git/LUFA/Drivers/USB/Core/AVR8/../AVR8/Device_AVR8.h"
   1:../../tmk_core/protocol/lufa/LUFA-git/LUFA/Drivers/USB/Core/AVR8/../AVR8/Device_AVR8.h **** /*
   2:../../tmk_core/protocol/lufa/LUFA-git/LUFA/Drivers/USB/Core/AVR8/../AVR8/Device_AVR8.h ****              LUFA Library
   3:../../tmk_core/protocol/lufa/LUFA-git/LUFA/Drivers/USB/Core/AVR8/../AVR8/Device_AVR8.h ****      Copyright (C) Dean Camera, 2014.
   4:../../tmk_core/protocol/lufa/LUFA-git/LUFA/Drivers/USB/Core/AVR8/../AVR8/Device_AVR8.h **** 
   5:../../tmk_core/protocol/lufa/LUFA-git/LUFA/Drivers/USB/Core/AVR8/../AVR8/Device_AVR8.h ****   dean [at] fourwalledcubicle [dot] com
   6:../../tmk_core/protocol/lufa/LUFA-git/LUFA/Drivers/USB/Core/AVR8/../AVR8/Device_AVR8.h ****            www.lufa-lib.org
   7:../../tmk_core/protocol/lufa/LUFA-git/LUFA/Drivers/USB/Core/AVR8/../AVR8/Device_AVR8.h **** */
   8:../../tmk_core/protocol/lufa/LUFA-git/LUFA/Drivers/USB/Core/AVR8/../AVR8/Device_AVR8.h **** 
   9:../../tmk_core/protocol/lufa/LUFA-git/LUFA/Drivers/USB/Core/AVR8/../AVR8/Device_AVR8.h **** /*
  10:../../tmk_core/protocol/lufa/LUFA-git/LUFA/Drivers/USB/Core/AVR8/../AVR8/Device_AVR8.h ****   Copyright 2014  Dean Camera (dean [at] fourwalledcubicle [dot] com)
  11:../../tmk_core/protocol/lufa/LUFA-git/LUFA/Drivers/USB/Core/AVR8/../AVR8/Device_AVR8.h **** 
  12:../../tmk_core/protocol/lufa/LUFA-git/LUFA/Drivers/USB/Core/AVR8/../AVR8/Device_AVR8.h ****   Permission to use, copy, modify, distribute, and sell this
  13:../../tmk_core/protocol/lufa/LUFA-git/LUFA/Drivers/USB/Core/AVR8/../AVR8/Device_AVR8.h ****   software and its documentation for any purpose is hereby granted
  14:../../tmk_core/protocol/lufa/LUFA-git/LUFA/Drivers/USB/Core/AVR8/../AVR8/Device_AVR8.h ****   without fee, provided that the above copyright notice appear in
  15:../../tmk_core/protocol/lufa/LUFA-git/LUFA/Drivers/USB/Core/AVR8/../AVR8/Device_AVR8.h ****   all copies and that both that the copyright notice and this
  16:../../tmk_core/protocol/lufa/LUFA-git/LUFA/Drivers/USB/Core/AVR8/../AVR8/Device_AVR8.h ****   permission notice and warranty disclaimer appear in supporting
  17:../../tmk_core/protocol/lufa/LUFA-git/LUFA/Drivers/USB/Core/AVR8/../AVR8/Device_AVR8.h ****   documentation, and that the name of the author not be used in
  18:../../tmk_core/protocol/lufa/LUFA-git/LUFA/Drivers/USB/Core/AVR8/../AVR8/Device_AVR8.h ****   advertising or publicity pertaining to distribution of the
  19:../../tmk_core/protocol/lufa/LUFA-git/LUFA/Drivers/USB/Core/AVR8/../AVR8/Device_AVR8.h ****   software without specific, written prior permission.
  20:../../tmk_core/protocol/lufa/LUFA-git/LUFA/Drivers/USB/Core/AVR8/../AVR8/Device_AVR8.h **** 
  21:../../tmk_core/protocol/lufa/LUFA-git/LUFA/Drivers/USB/Core/AVR8/../AVR8/Device_AVR8.h ****   The author disclaims all warranties with regard to this
  22:../../tmk_core/protocol/lufa/LUFA-git/LUFA/Drivers/USB/Core/AVR8/../AVR8/Device_AVR8.h ****   software, including all implied warranties of merchantability
  23:../../tmk_core/protocol/lufa/LUFA-git/LUFA/Drivers/USB/Core/AVR8/../AVR8/Device_AVR8.h ****   and fitness.  In no event shall the author be liable for any
  24:../../tmk_core/protocol/lufa/LUFA-git/LUFA/Drivers/USB/Core/AVR8/../AVR8/Device_AVR8.h ****   special, indirect or consequential damages or any damages
  25:../../tmk_core/protocol/lufa/LUFA-git/LUFA/Drivers/USB/Core/AVR8/../AVR8/Device_AVR8.h ****   whatsoever resulting from loss of use, data or profits, whether
  26:../../tmk_core/protocol/lufa/LUFA-git/LUFA/Drivers/USB/Core/AVR8/../AVR8/Device_AVR8.h ****   in an action of contract, negligence or other tortious action,
  27:../../tmk_core/protocol/lufa/LUFA-git/LUFA/Drivers/USB/Core/AVR8/../AVR8/Device_AVR8.h ****   arising out of or in connection with the use or performance of
  28:../../tmk_core/protocol/lufa/LUFA-git/LUFA/Drivers/USB/Core/AVR8/../AVR8/Device_AVR8.h ****   this software.
  29:../../tmk_core/protocol/lufa/LUFA-git/LUFA/Drivers/USB/Core/AVR8/../AVR8/Device_AVR8.h **** */
  30:../../tmk_core/protocol/lufa/LUFA-git/LUFA/Drivers/USB/Core/AVR8/../AVR8/Device_AVR8.h **** 
  31:../../tmk_core/protocol/lufa/LUFA-git/LUFA/Drivers/USB/Core/AVR8/../AVR8/Device_AVR8.h **** /** \file
  32:../../tmk_core/protocol/lufa/LUFA-git/LUFA/Drivers/USB/Core/AVR8/../AVR8/Device_AVR8.h ****  *  \brief USB Device definitions for the AVR8 microcontrollers.
  33:../../tmk_core/protocol/lufa/LUFA-git/LUFA/Drivers/USB/Core/AVR8/../AVR8/Device_AVR8.h ****  *  \copydetails Group_Device_AVR8
  34:../../tmk_core/protocol/lufa/LUFA-git/LUFA/Drivers/USB/Core/AVR8/../AVR8/Device_AVR8.h ****  *
  35:../../tmk_core/protocol/lufa/LUFA-git/LUFA/Drivers/USB/Core/AVR8/../AVR8/Device_AVR8.h ****  *  \note This file should not be included directly. It is automatically included as needed by the 
  36:../../tmk_core/protocol/lufa/LUFA-git/LUFA/Drivers/USB/Core/AVR8/../AVR8/Device_AVR8.h ****  *        dispatch header located in LUFA/Drivers/USB/USB.h.
  37:../../tmk_core/protocol/lufa/LUFA-git/LUFA/Drivers/USB/Core/AVR8/../AVR8/Device_AVR8.h ****  */
  38:../../tmk_core/protocol/lufa/LUFA-git/LUFA/Drivers/USB/Core/AVR8/../AVR8/Device_AVR8.h **** 
  39:../../tmk_core/protocol/lufa/LUFA-git/LUFA/Drivers/USB/Core/AVR8/../AVR8/Device_AVR8.h **** /** \ingroup Group_Device
  40:../../tmk_core/protocol/lufa/LUFA-git/LUFA/Drivers/USB/Core/AVR8/../AVR8/Device_AVR8.h ****  *  \defgroup Group_Device_AVR8 Device Management (AVR8)
  41:../../tmk_core/protocol/lufa/LUFA-git/LUFA/Drivers/USB/Core/AVR8/../AVR8/Device_AVR8.h ****  *  \brief USB Device definitions for the AVR8 microcontrollers.
  42:../../tmk_core/protocol/lufa/LUFA-git/LUFA/Drivers/USB/Core/AVR8/../AVR8/Device_AVR8.h ****  *
  43:../../tmk_core/protocol/lufa/LUFA-git/LUFA/Drivers/USB/Core/AVR8/../AVR8/Device_AVR8.h ****  *  Architecture specific USB Device definitions for the Atmel 8-bit AVR microcontrollers.
  44:../../tmk_core/protocol/lufa/LUFA-git/LUFA/Drivers/USB/Core/AVR8/../AVR8/Device_AVR8.h ****  *
  45:../../tmk_core/protocol/lufa/LUFA-git/LUFA/Drivers/USB/Core/AVR8/../AVR8/Device_AVR8.h ****  *  @{
  46:../../tmk_core/protocol/lufa/LUFA-git/LUFA/Drivers/USB/Core/AVR8/../AVR8/Device_AVR8.h ****  */
  47:../../tmk_core/protocol/lufa/LUFA-git/LUFA/Drivers/USB/Core/AVR8/../AVR8/Device_AVR8.h **** 
  48:../../tmk_core/protocol/lufa/LUFA-git/LUFA/Drivers/USB/Core/AVR8/../AVR8/Device_AVR8.h **** #ifndef __USBDEVICE_AVR8_H__
  49:../../tmk_core/protocol/lufa/LUFA-git/LUFA/Drivers/USB/Core/AVR8/../AVR8/Device_AVR8.h **** #define __USBDEVICE_AVR8_H__
  50:../../tmk_core/protocol/lufa/LUFA-git/LUFA/Drivers/USB/Core/AVR8/../AVR8/Device_AVR8.h **** 
  51:../../tmk_core/protocol/lufa/LUFA-git/LUFA/Drivers/USB/Core/AVR8/../AVR8/Device_AVR8.h **** 	/* Includes: */
  52:../../tmk_core/protocol/lufa/LUFA-git/LUFA/Drivers/USB/Core/AVR8/../AVR8/Device_AVR8.h **** 		#include "../../../../Common/Common.h"
  53:../../tmk_core/protocol/lufa/LUFA-git/LUFA/Drivers/USB/Core/AVR8/../AVR8/Device_AVR8.h **** 		#include "../USBController.h"
  54:../../tmk_core/protocol/lufa/LUFA-git/LUFA/Drivers/USB/Core/AVR8/../AVR8/Device_AVR8.h **** 		#include "../StdDescriptors.h"
  55:../../tmk_core/protocol/lufa/LUFA-git/LUFA/Drivers/USB/Core/AVR8/../AVR8/Device_AVR8.h **** 		#include "../USBInterrupt.h"
  56:../../tmk_core/protocol/lufa/LUFA-git/LUFA/Drivers/USB/Core/AVR8/../AVR8/Device_AVR8.h **** 		#include "../Endpoint.h"
  57:../../tmk_core/protocol/lufa/LUFA-git/LUFA/Drivers/USB/Core/AVR8/../AVR8/Device_AVR8.h **** 
  58:../../tmk_core/protocol/lufa/LUFA-git/LUFA/Drivers/USB/Core/AVR8/../AVR8/Device_AVR8.h **** 	/* Enable C linkage for C++ Compilers: */
  59:../../tmk_core/protocol/lufa/LUFA-git/LUFA/Drivers/USB/Core/AVR8/../AVR8/Device_AVR8.h **** 		#if defined(__cplusplus)
  60:../../tmk_core/protocol/lufa/LUFA-git/LUFA/Drivers/USB/Core/AVR8/../AVR8/Device_AVR8.h **** 			extern "C" {
  61:../../tmk_core/protocol/lufa/LUFA-git/LUFA/Drivers/USB/Core/AVR8/../AVR8/Device_AVR8.h **** 		#endif
  62:../../tmk_core/protocol/lufa/LUFA-git/LUFA/Drivers/USB/Core/AVR8/../AVR8/Device_AVR8.h **** 
  63:../../tmk_core/protocol/lufa/LUFA-git/LUFA/Drivers/USB/Core/AVR8/../AVR8/Device_AVR8.h **** 	/* Preprocessor Checks: */
  64:../../tmk_core/protocol/lufa/LUFA-git/LUFA/Drivers/USB/Core/AVR8/../AVR8/Device_AVR8.h **** 		#if !defined(__INCLUDE_FROM_USB_DRIVER)
  65:../../tmk_core/protocol/lufa/LUFA-git/LUFA/Drivers/USB/Core/AVR8/../AVR8/Device_AVR8.h **** 			#error Do not include this file directly. Include LUFA/Drivers/USB/USB.h instead.
  66:../../tmk_core/protocol/lufa/LUFA-git/LUFA/Drivers/USB/Core/AVR8/../AVR8/Device_AVR8.h **** 		#endif
  67:../../tmk_core/protocol/lufa/LUFA-git/LUFA/Drivers/USB/Core/AVR8/../AVR8/Device_AVR8.h **** 
  68:../../tmk_core/protocol/lufa/LUFA-git/LUFA/Drivers/USB/Core/AVR8/../AVR8/Device_AVR8.h **** 		#if (defined(USE_RAM_DESCRIPTORS) && defined(USE_EEPROM_DESCRIPTORS))
  69:../../tmk_core/protocol/lufa/LUFA-git/LUFA/Drivers/USB/Core/AVR8/../AVR8/Device_AVR8.h **** 			#error USE_RAM_DESCRIPTORS and USE_EEPROM_DESCRIPTORS are mutually exclusive.
  70:../../tmk_core/protocol/lufa/LUFA-git/LUFA/Drivers/USB/Core/AVR8/../AVR8/Device_AVR8.h **** 		#endif
  71:../../tmk_core/protocol/lufa/LUFA-git/LUFA/Drivers/USB/Core/AVR8/../AVR8/Device_AVR8.h **** 
  72:../../tmk_core/protocol/lufa/LUFA-git/LUFA/Drivers/USB/Core/AVR8/../AVR8/Device_AVR8.h **** 		#if (defined(USE_FLASH_DESCRIPTORS) && defined(USE_EEPROM_DESCRIPTORS))
  73:../../tmk_core/protocol/lufa/LUFA-git/LUFA/Drivers/USB/Core/AVR8/../AVR8/Device_AVR8.h **** 			#error USE_FLASH_DESCRIPTORS and USE_EEPROM_DESCRIPTORS are mutually exclusive.
  74:../../tmk_core/protocol/lufa/LUFA-git/LUFA/Drivers/USB/Core/AVR8/../AVR8/Device_AVR8.h **** 		#endif
  75:../../tmk_core/protocol/lufa/LUFA-git/LUFA/Drivers/USB/Core/AVR8/../AVR8/Device_AVR8.h **** 
  76:../../tmk_core/protocol/lufa/LUFA-git/LUFA/Drivers/USB/Core/AVR8/../AVR8/Device_AVR8.h **** 		#if (defined(USE_FLASH_DESCRIPTORS) && defined(USE_RAM_DESCRIPTORS))
  77:../../tmk_core/protocol/lufa/LUFA-git/LUFA/Drivers/USB/Core/AVR8/../AVR8/Device_AVR8.h **** 			#error USE_FLASH_DESCRIPTORS and USE_RAM_DESCRIPTORS are mutually exclusive.
  78:../../tmk_core/protocol/lufa/LUFA-git/LUFA/Drivers/USB/Core/AVR8/../AVR8/Device_AVR8.h **** 		#endif
  79:../../tmk_core/protocol/lufa/LUFA-git/LUFA/Drivers/USB/Core/AVR8/../AVR8/Device_AVR8.h **** 
  80:../../tmk_core/protocol/lufa/LUFA-git/LUFA/Drivers/USB/Core/AVR8/../AVR8/Device_AVR8.h **** 	/* Public Interface - May be used in end-application: */
  81:../../tmk_core/protocol/lufa/LUFA-git/LUFA/Drivers/USB/Core/AVR8/../AVR8/Device_AVR8.h **** 		/* Macros: */
  82:../../tmk_core/protocol/lufa/LUFA-git/LUFA/Drivers/USB/Core/AVR8/../AVR8/Device_AVR8.h **** 			/** \name USB Device Mode Option Masks */
  83:../../tmk_core/protocol/lufa/LUFA-git/LUFA/Drivers/USB/Core/AVR8/../AVR8/Device_AVR8.h **** 			//@{
  84:../../tmk_core/protocol/lufa/LUFA-git/LUFA/Drivers/USB/Core/AVR8/../AVR8/Device_AVR8.h **** 			#if defined(USB_SERIES_4_AVR) || defined(USB_SERIES_6_AVR) || defined(USB_SERIES_7_AVR) || defin
  85:../../tmk_core/protocol/lufa/LUFA-git/LUFA/Drivers/USB/Core/AVR8/../AVR8/Device_AVR8.h **** 				/** Mask for the Options parameter of the \ref USB_Init() function. This indicates that the
  86:../../tmk_core/protocol/lufa/LUFA-git/LUFA/Drivers/USB/Core/AVR8/../AVR8/Device_AVR8.h **** 				 *  USB interface should be initialized in low speed (1.5Mb/s) mode.
  87:../../tmk_core/protocol/lufa/LUFA-git/LUFA/Drivers/USB/Core/AVR8/../AVR8/Device_AVR8.h **** 				 *
  88:../../tmk_core/protocol/lufa/LUFA-git/LUFA/Drivers/USB/Core/AVR8/../AVR8/Device_AVR8.h **** 				 *  \note Low Speed mode is not available on all USB AVR models.
  89:../../tmk_core/protocol/lufa/LUFA-git/LUFA/Drivers/USB/Core/AVR8/../AVR8/Device_AVR8.h **** 				 *        \n
  90:../../tmk_core/protocol/lufa/LUFA-git/LUFA/Drivers/USB/Core/AVR8/../AVR8/Device_AVR8.h **** 				 *
  91:../../tmk_core/protocol/lufa/LUFA-git/LUFA/Drivers/USB/Core/AVR8/../AVR8/Device_AVR8.h **** 				 *  \note Restrictions apply on the number, size and type of endpoints which can be used
  92:../../tmk_core/protocol/lufa/LUFA-git/LUFA/Drivers/USB/Core/AVR8/../AVR8/Device_AVR8.h **** 				 *        when running in low speed mode - please refer to the USB 2.0 specification.
  93:../../tmk_core/protocol/lufa/LUFA-git/LUFA/Drivers/USB/Core/AVR8/../AVR8/Device_AVR8.h **** 				 */
  94:../../tmk_core/protocol/lufa/LUFA-git/LUFA/Drivers/USB/Core/AVR8/../AVR8/Device_AVR8.h **** 				#define USB_DEVICE_OPT_LOWSPEED            (1 << 0)
  95:../../tmk_core/protocol/lufa/LUFA-git/LUFA/Drivers/USB/Core/AVR8/../AVR8/Device_AVR8.h **** 			#endif
  96:../../tmk_core/protocol/lufa/LUFA-git/LUFA/Drivers/USB/Core/AVR8/../AVR8/Device_AVR8.h **** 
  97:../../tmk_core/protocol/lufa/LUFA-git/LUFA/Drivers/USB/Core/AVR8/../AVR8/Device_AVR8.h **** 			/** Mask for the Options parameter of the \ref USB_Init() function. This indicates that the
  98:../../tmk_core/protocol/lufa/LUFA-git/LUFA/Drivers/USB/Core/AVR8/../AVR8/Device_AVR8.h **** 			 *  USB interface should be initialized in full speed (12Mb/s) mode.
  99:../../tmk_core/protocol/lufa/LUFA-git/LUFA/Drivers/USB/Core/AVR8/../AVR8/Device_AVR8.h **** 			 */
 100:../../tmk_core/protocol/lufa/LUFA-git/LUFA/Drivers/USB/Core/AVR8/../AVR8/Device_AVR8.h **** 			#define USB_DEVICE_OPT_FULLSPEED               (0 << 0)
 101:../../tmk_core/protocol/lufa/LUFA-git/LUFA/Drivers/USB/Core/AVR8/../AVR8/Device_AVR8.h **** 			//@}
 102:../../tmk_core/protocol/lufa/LUFA-git/LUFA/Drivers/USB/Core/AVR8/../AVR8/Device_AVR8.h **** 
 103:../../tmk_core/protocol/lufa/LUFA-git/LUFA/Drivers/USB/Core/AVR8/../AVR8/Device_AVR8.h **** 			#if (!defined(NO_INTERNAL_SERIAL) && \
 104:../../tmk_core/protocol/lufa/LUFA-git/LUFA/Drivers/USB/Core/AVR8/../AVR8/Device_AVR8.h **** 			     (defined(USB_SERIES_7_AVR) || defined(USB_SERIES_6_AVR) || \
 105:../../tmk_core/protocol/lufa/LUFA-git/LUFA/Drivers/USB/Core/AVR8/../AVR8/Device_AVR8.h **** 			      defined(USB_SERIES_4_AVR) || defined(USB_SERIES_2_AVR) || \
 106:../../tmk_core/protocol/lufa/LUFA-git/LUFA/Drivers/USB/Core/AVR8/../AVR8/Device_AVR8.h **** 				  defined(__DOXYGEN__)))
 107:../../tmk_core/protocol/lufa/LUFA-git/LUFA/Drivers/USB/Core/AVR8/../AVR8/Device_AVR8.h **** 				/** String descriptor index for the device's unique serial number string descriptor within the 
 108:../../tmk_core/protocol/lufa/LUFA-git/LUFA/Drivers/USB/Core/AVR8/../AVR8/Device_AVR8.h **** 				 *  This unique serial number is used by the host to associate resources to the device (such as
 109:../../tmk_core/protocol/lufa/LUFA-git/LUFA/Drivers/USB/Core/AVR8/../AVR8/Device_AVR8.h **** 				 *  number allocations) to a device regardless of the port it is plugged in to on the host. Som
 110:../../tmk_core/protocol/lufa/LUFA-git/LUFA/Drivers/USB/Core/AVR8/../AVR8/Device_AVR8.h **** 				 *  a unique serial number internally, and setting the device descriptors serial number string 
 111:../../tmk_core/protocol/lufa/LUFA-git/LUFA/Drivers/USB/Core/AVR8/../AVR8/Device_AVR8.h **** 				 *  will cause it to use the internal serial number.
 112:../../tmk_core/protocol/lufa/LUFA-git/LUFA/Drivers/USB/Core/AVR8/../AVR8/Device_AVR8.h **** 				 *
 113:../../tmk_core/protocol/lufa/LUFA-git/LUFA/Drivers/USB/Core/AVR8/../AVR8/Device_AVR8.h **** 				 *  On unsupported devices, this will evaluate to \ref NO_DESCRIPTOR and so will force the host
 114:../../tmk_core/protocol/lufa/LUFA-git/LUFA/Drivers/USB/Core/AVR8/../AVR8/Device_AVR8.h **** 				 *  number for the device.
 115:../../tmk_core/protocol/lufa/LUFA-git/LUFA/Drivers/USB/Core/AVR8/../AVR8/Device_AVR8.h **** 				 */
 116:../../tmk_core/protocol/lufa/LUFA-git/LUFA/Drivers/USB/Core/AVR8/../AVR8/Device_AVR8.h **** 				#define USE_INTERNAL_SERIAL            0xDC
 117:../../tmk_core/protocol/lufa/LUFA-git/LUFA/Drivers/USB/Core/AVR8/../AVR8/Device_AVR8.h **** 
 118:../../tmk_core/protocol/lufa/LUFA-git/LUFA/Drivers/USB/Core/AVR8/../AVR8/Device_AVR8.h **** 				/** Length of the device's unique internal serial number, in bits, if present on the selected m
 119:../../tmk_core/protocol/lufa/LUFA-git/LUFA/Drivers/USB/Core/AVR8/../AVR8/Device_AVR8.h **** 				 *  model.
 120:../../tmk_core/protocol/lufa/LUFA-git/LUFA/Drivers/USB/Core/AVR8/../AVR8/Device_AVR8.h **** 				 */
 121:../../tmk_core/protocol/lufa/LUFA-git/LUFA/Drivers/USB/Core/AVR8/../AVR8/Device_AVR8.h **** 				#define INTERNAL_SERIAL_LENGTH_BITS    80
 122:../../tmk_core/protocol/lufa/LUFA-git/LUFA/Drivers/USB/Core/AVR8/../AVR8/Device_AVR8.h **** 
 123:../../tmk_core/protocol/lufa/LUFA-git/LUFA/Drivers/USB/Core/AVR8/../AVR8/Device_AVR8.h **** 				/** Start address of the internal serial number, in the appropriate address space, if present o
 124:../../tmk_core/protocol/lufa/LUFA-git/LUFA/Drivers/USB/Core/AVR8/../AVR8/Device_AVR8.h **** 				 *  model.
 125:../../tmk_core/protocol/lufa/LUFA-git/LUFA/Drivers/USB/Core/AVR8/../AVR8/Device_AVR8.h **** 				 */
 126:../../tmk_core/protocol/lufa/LUFA-git/LUFA/Drivers/USB/Core/AVR8/../AVR8/Device_AVR8.h **** 				#define INTERNAL_SERIAL_START_ADDRESS  0x0E
 127:../../tmk_core/protocol/lufa/LUFA-git/LUFA/Drivers/USB/Core/AVR8/../AVR8/Device_AVR8.h **** 			#else
 128:../../tmk_core/protocol/lufa/LUFA-git/LUFA/Drivers/USB/Core/AVR8/../AVR8/Device_AVR8.h **** 				#define USE_INTERNAL_SERIAL            NO_DESCRIPTOR
 129:../../tmk_core/protocol/lufa/LUFA-git/LUFA/Drivers/USB/Core/AVR8/../AVR8/Device_AVR8.h **** 
 130:../../tmk_core/protocol/lufa/LUFA-git/LUFA/Drivers/USB/Core/AVR8/../AVR8/Device_AVR8.h **** 				#define INTERNAL_SERIAL_LENGTH_BITS    0
 131:../../tmk_core/protocol/lufa/LUFA-git/LUFA/Drivers/USB/Core/AVR8/../AVR8/Device_AVR8.h **** 				#define INTERNAL_SERIAL_START_ADDRESS  0
 132:../../tmk_core/protocol/lufa/LUFA-git/LUFA/Drivers/USB/Core/AVR8/../AVR8/Device_AVR8.h **** 			#endif
 133:../../tmk_core/protocol/lufa/LUFA-git/LUFA/Drivers/USB/Core/AVR8/../AVR8/Device_AVR8.h **** 
 134:../../tmk_core/protocol/lufa/LUFA-git/LUFA/Drivers/USB/Core/AVR8/../AVR8/Device_AVR8.h **** 		/* Function Prototypes: */
 135:../../tmk_core/protocol/lufa/LUFA-git/LUFA/Drivers/USB/Core/AVR8/../AVR8/Device_AVR8.h **** 			/** Sends a Remote Wakeup request to the host. This signals to the host that the device should
 136:../../tmk_core/protocol/lufa/LUFA-git/LUFA/Drivers/USB/Core/AVR8/../AVR8/Device_AVR8.h **** 			 *  be taken out of suspended mode, and communications should resume.
 137:../../tmk_core/protocol/lufa/LUFA-git/LUFA/Drivers/USB/Core/AVR8/../AVR8/Device_AVR8.h **** 			 *
 138:../../tmk_core/protocol/lufa/LUFA-git/LUFA/Drivers/USB/Core/AVR8/../AVR8/Device_AVR8.h **** 			 *  Typically, this is implemented so that HID devices (mice, keyboards, etc.) can wake up the
 139:../../tmk_core/protocol/lufa/LUFA-git/LUFA/Drivers/USB/Core/AVR8/../AVR8/Device_AVR8.h **** 			 *  host computer when the host has suspended all USB devices to enter a low power state.
 140:../../tmk_core/protocol/lufa/LUFA-git/LUFA/Drivers/USB/Core/AVR8/../AVR8/Device_AVR8.h **** 			 *
 141:../../tmk_core/protocol/lufa/LUFA-git/LUFA/Drivers/USB/Core/AVR8/../AVR8/Device_AVR8.h **** 			 *  \attention This function should only be used if the device has indicated to the host that it
 142:../../tmk_core/protocol/lufa/LUFA-git/LUFA/Drivers/USB/Core/AVR8/../AVR8/Device_AVR8.h **** 			 *             supports the Remote Wakeup feature in the device descriptors, and should only be
 143:../../tmk_core/protocol/lufa/LUFA-git/LUFA/Drivers/USB/Core/AVR8/../AVR8/Device_AVR8.h **** 			 *             issued if the host is currently allowing remote wakeup events from the device (i.
 144:../../tmk_core/protocol/lufa/LUFA-git/LUFA/Drivers/USB/Core/AVR8/../AVR8/Device_AVR8.h **** 			 *             the \ref USB_Device_RemoteWakeupEnabled flag is set). When the \c NO_DEVICE_REMOT
 145:../../tmk_core/protocol/lufa/LUFA-git/LUFA/Drivers/USB/Core/AVR8/../AVR8/Device_AVR8.h **** 			 *             compile time option is used, this function is unavailable.
 146:../../tmk_core/protocol/lufa/LUFA-git/LUFA/Drivers/USB/Core/AVR8/../AVR8/Device_AVR8.h **** 			 *             \n\n
 147:../../tmk_core/protocol/lufa/LUFA-git/LUFA/Drivers/USB/Core/AVR8/../AVR8/Device_AVR8.h **** 			 *
 148:../../tmk_core/protocol/lufa/LUFA-git/LUFA/Drivers/USB/Core/AVR8/../AVR8/Device_AVR8.h **** 			 *  \attention The USB clock must be running for this function to operate. If the stack is initi
 149:../../tmk_core/protocol/lufa/LUFA-git/LUFA/Drivers/USB/Core/AVR8/../AVR8/Device_AVR8.h **** 			 *             the \ref USB_OPT_MANUAL_PLL option enabled, the user must ensure that the PLL is 
 150:../../tmk_core/protocol/lufa/LUFA-git/LUFA/Drivers/USB/Core/AVR8/../AVR8/Device_AVR8.h **** 			 *             before attempting to call this function.
 151:../../tmk_core/protocol/lufa/LUFA-git/LUFA/Drivers/USB/Core/AVR8/../AVR8/Device_AVR8.h **** 			 *
 152:../../tmk_core/protocol/lufa/LUFA-git/LUFA/Drivers/USB/Core/AVR8/../AVR8/Device_AVR8.h **** 			 *  \see \ref Group_StdDescriptors for more information on the RMWAKEUP feature and device descr
 153:../../tmk_core/protocol/lufa/LUFA-git/LUFA/Drivers/USB/Core/AVR8/../AVR8/Device_AVR8.h **** 			 */
 154:../../tmk_core/protocol/lufa/LUFA-git/LUFA/Drivers/USB/Core/AVR8/../AVR8/Device_AVR8.h **** 			void USB_Device_SendRemoteWakeup(void);
 155:../../tmk_core/protocol/lufa/LUFA-git/LUFA/Drivers/USB/Core/AVR8/../AVR8/Device_AVR8.h **** 
 156:../../tmk_core/protocol/lufa/LUFA-git/LUFA/Drivers/USB/Core/AVR8/../AVR8/Device_AVR8.h **** 		/* Inline Functions: */
 157:../../tmk_core/protocol/lufa/LUFA-git/LUFA/Drivers/USB/Core/AVR8/../AVR8/Device_AVR8.h **** 			/** Returns the current USB frame number, when in device mode. Every millisecond the USB bus is 
 158:../../tmk_core/protocol/lufa/LUFA-git/LUFA/Drivers/USB/Core/AVR8/../AVR8/Device_AVR8.h **** 			 *  the frame number is incremented by one.
 159:../../tmk_core/protocol/lufa/LUFA-git/LUFA/Drivers/USB/Core/AVR8/../AVR8/Device_AVR8.h **** 			 *
 160:../../tmk_core/protocol/lufa/LUFA-git/LUFA/Drivers/USB/Core/AVR8/../AVR8/Device_AVR8.h **** 			 *  \return Current USB frame number from the USB controller.
 161:../../tmk_core/protocol/lufa/LUFA-git/LUFA/Drivers/USB/Core/AVR8/../AVR8/Device_AVR8.h **** 			 */
 162:../../tmk_core/protocol/lufa/LUFA-git/LUFA/Drivers/USB/Core/AVR8/../AVR8/Device_AVR8.h **** 			static inline uint16_t USB_Device_GetFrameNumber(void) ATTR_ALWAYS_INLINE ATTR_WARN_UNUSED_RESUL
 163:../../tmk_core/protocol/lufa/LUFA-git/LUFA/Drivers/USB/Core/AVR8/../AVR8/Device_AVR8.h **** 			static inline uint16_t USB_Device_GetFrameNumber(void)
 164:../../tmk_core/protocol/lufa/LUFA-git/LUFA/Drivers/USB/Core/AVR8/../AVR8/Device_AVR8.h **** 			{
 165:../../tmk_core/protocol/lufa/LUFA-git/LUFA/Drivers/USB/Core/AVR8/../AVR8/Device_AVR8.h **** 				return UDFNUM;
 166:../../tmk_core/protocol/lufa/LUFA-git/LUFA/Drivers/USB/Core/AVR8/../AVR8/Device_AVR8.h **** 			}
 167:../../tmk_core/protocol/lufa/LUFA-git/LUFA/Drivers/USB/Core/AVR8/../AVR8/Device_AVR8.h **** 
 168:../../tmk_core/protocol/lufa/LUFA-git/LUFA/Drivers/USB/Core/AVR8/../AVR8/Device_AVR8.h **** 			#if !defined(NO_SOF_EVENTS)
 169:../../tmk_core/protocol/lufa/LUFA-git/LUFA/Drivers/USB/Core/AVR8/../AVR8/Device_AVR8.h **** 				/** Enables the device mode Start Of Frame events. When enabled, this causes the
 170:../../tmk_core/protocol/lufa/LUFA-git/LUFA/Drivers/USB/Core/AVR8/../AVR8/Device_AVR8.h **** 				 *  \ref EVENT_USB_Device_StartOfFrame() event to fire once per millisecond, synchronized to th
 171:../../tmk_core/protocol/lufa/LUFA-git/LUFA/Drivers/USB/Core/AVR8/../AVR8/Device_AVR8.h **** 				 *  at the start of each USB frame when enumerated in device mode.
 172:../../tmk_core/protocol/lufa/LUFA-git/LUFA/Drivers/USB/Core/AVR8/../AVR8/Device_AVR8.h **** 				 *
 173:../../tmk_core/protocol/lufa/LUFA-git/LUFA/Drivers/USB/Core/AVR8/../AVR8/Device_AVR8.h **** 				 *  \note This function is not available when the \c NO_SOF_EVENTS compile time token is define
 174:../../tmk_core/protocol/lufa/LUFA-git/LUFA/Drivers/USB/Core/AVR8/../AVR8/Device_AVR8.h **** 				 */
 175:../../tmk_core/protocol/lufa/LUFA-git/LUFA/Drivers/USB/Core/AVR8/../AVR8/Device_AVR8.h **** 				static inline void USB_Device_EnableSOFEvents(void) ATTR_ALWAYS_INLINE;
 176:../../tmk_core/protocol/lufa/LUFA-git/LUFA/Drivers/USB/Core/AVR8/../AVR8/Device_AVR8.h **** 				static inline void USB_Device_EnableSOFEvents(void)
 1062               		.loc 5 176 24 view .LVU309
 1063               	.LBB376:
 177:../../tmk_core/protocol/lufa/LUFA-git/LUFA/Drivers/USB/Core/AVR8/../AVR8/Device_AVR8.h **** 				{
 178:../../tmk_core/protocol/lufa/LUFA-git/LUFA/Drivers/USB/Core/AVR8/../AVR8/Device_AVR8.h **** 					USB_INT_Enable(USB_INT_SOFI);
 1064               		.loc 5 178 6 view .LVU310
 1065               	.LBB377:
 1066               	.LBI377:
 1067               		.file 6 "../../tmk_core/protocol/lufa/LUFA-git/LUFA/Drivers/USB/Core/AVR8/../AVR8/USBInterrupt_AVR
   1:../../tmk_core/protocol/lufa/LUFA-git/LUFA/Drivers/USB/Core/AVR8/../AVR8/USBInterrupt_AVR8.h **** /*
   2:../../tmk_core/protocol/lufa/LUFA-git/LUFA/Drivers/USB/Core/AVR8/../AVR8/USBInterrupt_AVR8.h ****              LUFA Library
   3:../../tmk_core/protocol/lufa/LUFA-git/LUFA/Drivers/USB/Core/AVR8/../AVR8/USBInterrupt_AVR8.h ****      Copyright (C) Dean Camera, 2014.
   4:../../tmk_core/protocol/lufa/LUFA-git/LUFA/Drivers/USB/Core/AVR8/../AVR8/USBInterrupt_AVR8.h **** 
   5:../../tmk_core/protocol/lufa/LUFA-git/LUFA/Drivers/USB/Core/AVR8/../AVR8/USBInterrupt_AVR8.h ****   dean [at] fourwalledcubicle [dot] com
   6:../../tmk_core/protocol/lufa/LUFA-git/LUFA/Drivers/USB/Core/AVR8/../AVR8/USBInterrupt_AVR8.h ****            www.lufa-lib.org
   7:../../tmk_core/protocol/lufa/LUFA-git/LUFA/Drivers/USB/Core/AVR8/../AVR8/USBInterrupt_AVR8.h **** */
   8:../../tmk_core/protocol/lufa/LUFA-git/LUFA/Drivers/USB/Core/AVR8/../AVR8/USBInterrupt_AVR8.h **** 
   9:../../tmk_core/protocol/lufa/LUFA-git/LUFA/Drivers/USB/Core/AVR8/../AVR8/USBInterrupt_AVR8.h **** /*
  10:../../tmk_core/protocol/lufa/LUFA-git/LUFA/Drivers/USB/Core/AVR8/../AVR8/USBInterrupt_AVR8.h ****   Copyright 2014  Dean Camera (dean [at] fourwalledcubicle [dot] com)
  11:../../tmk_core/protocol/lufa/LUFA-git/LUFA/Drivers/USB/Core/AVR8/../AVR8/USBInterrupt_AVR8.h **** 
  12:../../tmk_core/protocol/lufa/LUFA-git/LUFA/Drivers/USB/Core/AVR8/../AVR8/USBInterrupt_AVR8.h ****   Permission to use, copy, modify, distribute, and sell this
  13:../../tmk_core/protocol/lufa/LUFA-git/LUFA/Drivers/USB/Core/AVR8/../AVR8/USBInterrupt_AVR8.h ****   software and its documentation for any purpose is hereby granted
  14:../../tmk_core/protocol/lufa/LUFA-git/LUFA/Drivers/USB/Core/AVR8/../AVR8/USBInterrupt_AVR8.h ****   without fee, provided that the above copyright notice appear in
  15:../../tmk_core/protocol/lufa/LUFA-git/LUFA/Drivers/USB/Core/AVR8/../AVR8/USBInterrupt_AVR8.h ****   all copies and that both that the copyright notice and this
  16:../../tmk_core/protocol/lufa/LUFA-git/LUFA/Drivers/USB/Core/AVR8/../AVR8/USBInterrupt_AVR8.h ****   permission notice and warranty disclaimer appear in supporting
  17:../../tmk_core/protocol/lufa/LUFA-git/LUFA/Drivers/USB/Core/AVR8/../AVR8/USBInterrupt_AVR8.h ****   documentation, and that the name of the author not be used in
  18:../../tmk_core/protocol/lufa/LUFA-git/LUFA/Drivers/USB/Core/AVR8/../AVR8/USBInterrupt_AVR8.h ****   advertising or publicity pertaining to distribution of the
  19:../../tmk_core/protocol/lufa/LUFA-git/LUFA/Drivers/USB/Core/AVR8/../AVR8/USBInterrupt_AVR8.h ****   software without specific, written prior permission.
  20:../../tmk_core/protocol/lufa/LUFA-git/LUFA/Drivers/USB/Core/AVR8/../AVR8/USBInterrupt_AVR8.h **** 
  21:../../tmk_core/protocol/lufa/LUFA-git/LUFA/Drivers/USB/Core/AVR8/../AVR8/USBInterrupt_AVR8.h ****   The author disclaims all warranties with regard to this
  22:../../tmk_core/protocol/lufa/LUFA-git/LUFA/Drivers/USB/Core/AVR8/../AVR8/USBInterrupt_AVR8.h ****   software, including all implied warranties of merchantability
  23:../../tmk_core/protocol/lufa/LUFA-git/LUFA/Drivers/USB/Core/AVR8/../AVR8/USBInterrupt_AVR8.h ****   and fitness.  In no event shall the author be liable for any
  24:../../tmk_core/protocol/lufa/LUFA-git/LUFA/Drivers/USB/Core/AVR8/../AVR8/USBInterrupt_AVR8.h ****   special, indirect or consequential damages or any damages
  25:../../tmk_core/protocol/lufa/LUFA-git/LUFA/Drivers/USB/Core/AVR8/../AVR8/USBInterrupt_AVR8.h ****   whatsoever resulting from loss of use, data or profits, whether
  26:../../tmk_core/protocol/lufa/LUFA-git/LUFA/Drivers/USB/Core/AVR8/../AVR8/USBInterrupt_AVR8.h ****   in an action of contract, negligence or other tortious action,
  27:../../tmk_core/protocol/lufa/LUFA-git/LUFA/Drivers/USB/Core/AVR8/../AVR8/USBInterrupt_AVR8.h ****   arising out of or in connection with the use or performance of
  28:../../tmk_core/protocol/lufa/LUFA-git/LUFA/Drivers/USB/Core/AVR8/../AVR8/USBInterrupt_AVR8.h ****   this software.
  29:../../tmk_core/protocol/lufa/LUFA-git/LUFA/Drivers/USB/Core/AVR8/../AVR8/USBInterrupt_AVR8.h **** */
  30:../../tmk_core/protocol/lufa/LUFA-git/LUFA/Drivers/USB/Core/AVR8/../AVR8/USBInterrupt_AVR8.h **** 
  31:../../tmk_core/protocol/lufa/LUFA-git/LUFA/Drivers/USB/Core/AVR8/../AVR8/USBInterrupt_AVR8.h **** /** \file
  32:../../tmk_core/protocol/lufa/LUFA-git/LUFA/Drivers/USB/Core/AVR8/../AVR8/USBInterrupt_AVR8.h ****  *  \brief USB Controller Interrupt definitions for the AVR8 microcontrollers.
  33:../../tmk_core/protocol/lufa/LUFA-git/LUFA/Drivers/USB/Core/AVR8/../AVR8/USBInterrupt_AVR8.h ****  *
  34:../../tmk_core/protocol/lufa/LUFA-git/LUFA/Drivers/USB/Core/AVR8/../AVR8/USBInterrupt_AVR8.h ****  *  This file contains definitions required for the correct handling of low level USB service routi
  35:../../tmk_core/protocol/lufa/LUFA-git/LUFA/Drivers/USB/Core/AVR8/../AVR8/USBInterrupt_AVR8.h ****  *  from the USB controller.
  36:../../tmk_core/protocol/lufa/LUFA-git/LUFA/Drivers/USB/Core/AVR8/../AVR8/USBInterrupt_AVR8.h ****  *
  37:../../tmk_core/protocol/lufa/LUFA-git/LUFA/Drivers/USB/Core/AVR8/../AVR8/USBInterrupt_AVR8.h ****  *  \note This file should not be included directly. It is automatically included as needed by the 
  38:../../tmk_core/protocol/lufa/LUFA-git/LUFA/Drivers/USB/Core/AVR8/../AVR8/USBInterrupt_AVR8.h ****  *        dispatch header located in LUFA/Drivers/USB/USB.h.
  39:../../tmk_core/protocol/lufa/LUFA-git/LUFA/Drivers/USB/Core/AVR8/../AVR8/USBInterrupt_AVR8.h ****  */
  40:../../tmk_core/protocol/lufa/LUFA-git/LUFA/Drivers/USB/Core/AVR8/../AVR8/USBInterrupt_AVR8.h **** 
  41:../../tmk_core/protocol/lufa/LUFA-git/LUFA/Drivers/USB/Core/AVR8/../AVR8/USBInterrupt_AVR8.h **** #ifndef __USBINTERRUPT_AVR8_H__
  42:../../tmk_core/protocol/lufa/LUFA-git/LUFA/Drivers/USB/Core/AVR8/../AVR8/USBInterrupt_AVR8.h **** #define __USBINTERRUPT_AVR8_H__
  43:../../tmk_core/protocol/lufa/LUFA-git/LUFA/Drivers/USB/Core/AVR8/../AVR8/USBInterrupt_AVR8.h **** 
  44:../../tmk_core/protocol/lufa/LUFA-git/LUFA/Drivers/USB/Core/AVR8/../AVR8/USBInterrupt_AVR8.h **** 	/* Includes: */
  45:../../tmk_core/protocol/lufa/LUFA-git/LUFA/Drivers/USB/Core/AVR8/../AVR8/USBInterrupt_AVR8.h **** 		#include "../../../../Common/Common.h"
  46:../../tmk_core/protocol/lufa/LUFA-git/LUFA/Drivers/USB/Core/AVR8/../AVR8/USBInterrupt_AVR8.h **** 
  47:../../tmk_core/protocol/lufa/LUFA-git/LUFA/Drivers/USB/Core/AVR8/../AVR8/USBInterrupt_AVR8.h **** 	/* Enable C linkage for C++ Compilers: */
  48:../../tmk_core/protocol/lufa/LUFA-git/LUFA/Drivers/USB/Core/AVR8/../AVR8/USBInterrupt_AVR8.h **** 		#if defined(__cplusplus)
  49:../../tmk_core/protocol/lufa/LUFA-git/LUFA/Drivers/USB/Core/AVR8/../AVR8/USBInterrupt_AVR8.h **** 			extern "C" {
  50:../../tmk_core/protocol/lufa/LUFA-git/LUFA/Drivers/USB/Core/AVR8/../AVR8/USBInterrupt_AVR8.h **** 		#endif
  51:../../tmk_core/protocol/lufa/LUFA-git/LUFA/Drivers/USB/Core/AVR8/../AVR8/USBInterrupt_AVR8.h **** 
  52:../../tmk_core/protocol/lufa/LUFA-git/LUFA/Drivers/USB/Core/AVR8/../AVR8/USBInterrupt_AVR8.h **** 	/* Preprocessor Checks: */
  53:../../tmk_core/protocol/lufa/LUFA-git/LUFA/Drivers/USB/Core/AVR8/../AVR8/USBInterrupt_AVR8.h **** 		#if !defined(__INCLUDE_FROM_USB_DRIVER)
  54:../../tmk_core/protocol/lufa/LUFA-git/LUFA/Drivers/USB/Core/AVR8/../AVR8/USBInterrupt_AVR8.h **** 			#error Do not include this file directly. Include LUFA/Drivers/USB/USB.h instead.
  55:../../tmk_core/protocol/lufa/LUFA-git/LUFA/Drivers/USB/Core/AVR8/../AVR8/USBInterrupt_AVR8.h **** 		#endif
  56:../../tmk_core/protocol/lufa/LUFA-git/LUFA/Drivers/USB/Core/AVR8/../AVR8/USBInterrupt_AVR8.h **** 
  57:../../tmk_core/protocol/lufa/LUFA-git/LUFA/Drivers/USB/Core/AVR8/../AVR8/USBInterrupt_AVR8.h **** 	/* Private Interface - For use in library only: */
  58:../../tmk_core/protocol/lufa/LUFA-git/LUFA/Drivers/USB/Core/AVR8/../AVR8/USBInterrupt_AVR8.h **** 	#if !defined(__DOXYGEN__)
  59:../../tmk_core/protocol/lufa/LUFA-git/LUFA/Drivers/USB/Core/AVR8/../AVR8/USBInterrupt_AVR8.h **** 		/* Enums: */
  60:../../tmk_core/protocol/lufa/LUFA-git/LUFA/Drivers/USB/Core/AVR8/../AVR8/USBInterrupt_AVR8.h **** 			enum USB_Interrupts_t
  61:../../tmk_core/protocol/lufa/LUFA-git/LUFA/Drivers/USB/Core/AVR8/../AVR8/USBInterrupt_AVR8.h **** 			{
