   1               		.file	"util.c"
   2               	__SP_H__ = 0x3e
   3               	__SP_L__ = 0x3d
   4               	__SREG__ = 0x3f
   5               	__tmp_reg__ = 0
   6               	__zero_reg__ = 1
   7               		.text
   8               	.Ltext0:
   9               		.cfi_sections	.debug_frame
  10               		.section	.text.bitpop,"ax",@progbits
  11               	.global	bitpop
  13               	bitpop:
  14               	.LVL0:
  15               	.LFB0:
  16               		.file 1 "../../tmk_core/common/util.c"
   1:../../tmk_core/common/util.c **** /*
   2:../../tmk_core/common/util.c **** Copyright 2011 Jun Wako <wakojun@gmail.com>
   3:../../tmk_core/common/util.c **** 
   4:../../tmk_core/common/util.c **** This program is free software: you can redistribute it and/or modify
   5:../../tmk_core/common/util.c **** it under the terms of the GNU General Public License as published by
   6:../../tmk_core/common/util.c **** the Free Software Foundation, either version 2 of the License, or
   7:../../tmk_core/common/util.c **** (at your option) any later version.
   8:../../tmk_core/common/util.c **** 
   9:../../tmk_core/common/util.c **** This program is distributed in the hope that it will be useful,
  10:../../tmk_core/common/util.c **** but WITHOUT ANY WARRANTY; without even the implied warranty of
  11:../../tmk_core/common/util.c **** MERCHANTABILITY or FITNESS FOR A PARTICULAR PURPOSE.  See the
  12:../../tmk_core/common/util.c **** GNU General Public License for more details.
  13:../../tmk_core/common/util.c **** 
  14:../../tmk_core/common/util.c **** You should have received a copy of the GNU General Public License
  15:../../tmk_core/common/util.c **** along with this program.  If not, see <http://www.gnu.org/licenses/>.
  16:../../tmk_core/common/util.c **** */
  17:../../tmk_core/common/util.c **** 
  18:../../tmk_core/common/util.c **** #include "util.h"
  19:../../tmk_core/common/util.c **** 
  20:../../tmk_core/common/util.c **** // bit population - return number of on-bit
  21:../../tmk_core/common/util.c **** uint8_t bitpop(uint8_t bits)
  22:../../tmk_core/common/util.c **** {
  17               		.loc 1 22 1 view -0
  18               		.cfi_startproc
  19               	/* prologue: function */
  20               	/* frame size = 0 */
  21               	/* stack size = 0 */
  22               	.L__stack_usage = 0
  23               		.loc 1 22 1 is_stmt 0 view .LVU1
  24 0000 982F      		mov r25,r24
  23:../../tmk_core/common/util.c ****     uint8_t c;
  25               		.loc 1 23 5 is_stmt 1 view .LVU2
  24:../../tmk_core/common/util.c ****     for (c = 0; bits; c++)
  26               		.loc 1 24 5 view .LVU3
  27               	.LVL1:
  28               		.loc 1 24 12 is_stmt 0 view .LVU4
  29 0002 80E0      		ldi r24,0
  30               	.LVL2:
  31               	.L2:
  32               		.loc 1 24 5 discriminator 1 view .LVU5
  33 0004 9111      		cpse r25,__zero_reg__
  34 0006 00C0      		rjmp .L3
  35               	/* epilogue start */
  25:../../tmk_core/common/util.c ****         bits &= bits - 1;
  26:../../tmk_core/common/util.c ****     return c;
  27:../../tmk_core/common/util.c **** /*
  28:../../tmk_core/common/util.c ****     const uint8_t bit_count[] = { 0, 1, 1, 2, 1, 2, 2, 3, 1, 2, 2, 3, 2, 3, 3, 4 };
  29:../../tmk_core/common/util.c ****     return bit_count[bits>>4] + bit_count[bits&0x0F]
  30:../../tmk_core/common/util.c **** */
  31:../../tmk_core/common/util.c **** }
  36               		.loc 1 31 1 view .LVU6
  37 0008 0895      		ret
  38               	.L3:
  25:../../tmk_core/common/util.c ****         bits &= bits - 1;
  39               		.loc 1 25 9 is_stmt 1 discriminator 3 view .LVU7
  25:../../tmk_core/common/util.c ****         bits &= bits - 1;
  40               		.loc 1 25 22 is_stmt 0 discriminator 3 view .LVU8
  41 000a 2FEF      		ldi r18,lo8(-1)
  42 000c 290F      		add r18,r25
  25:../../tmk_core/common/util.c ****         bits &= bits - 1;
  43               		.loc 1 25 14 discriminator 3 view .LVU9
  44 000e 9223      		and r25,r18
  45               	.LVL3:
  24:../../tmk_core/common/util.c ****     for (c = 0; bits; c++)
  46               		.loc 1 24 24 discriminator 3 view .LVU10
  47 0010 8F5F      		subi r24,lo8(-(1))
  48               	.LVL4:
  24:../../tmk_core/common/util.c ****     for (c = 0; bits; c++)
  49               		.loc 1 24 24 discriminator 3 view .LVU11
  50 0012 00C0      		rjmp .L2
  51               		.cfi_endproc
  52               	.LFE0:
  54               		.section	.text.bitpop16,"ax",@progbits
  55               	.global	bitpop16
  57               	bitpop16:
  58               	.LVL5:
  59               	.LFB1:
  32:../../tmk_core/common/util.c **** 
  33:../../tmk_core/common/util.c **** uint8_t bitpop16(uint16_t bits)
  34:../../tmk_core/common/util.c **** {
  60               		.loc 1 34 1 is_stmt 1 view -0
  61               		.cfi_startproc
  62               	/* prologue: function */
  63               	/* frame size = 0 */
  64               	/* stack size = 0 */
  65               	.L__stack_usage = 0
  35:../../tmk_core/common/util.c ****     uint8_t c;
  66               		.loc 1 35 5 view .LVU13
  36:../../tmk_core/common/util.c ****     for (c = 0; bits; c++)
  67               		.loc 1 36 5 view .LVU14
  68               		.loc 1 36 5 is_stmt 0 view .LVU15
  69 0000 0E94 0000 		call __popcounthi2
  37:../../tmk_core/common/util.c ****         bits &= bits - 1;
  38:../../tmk_core/common/util.c ****     return c;
  70               		.loc 1 38 5 is_stmt 1 view .LVU16
  71               	/* epilogue start */
  39:../../tmk_core/common/util.c **** }
  72               		.loc 1 39 1 is_stmt 0 view .LVU17
  73 0004 0895      		ret
  74               		.cfi_endproc
  75               	.LFE1:
  77               		.section	.text.bitpop32,"ax",@progbits
  78               	.global	bitpop32
  80               	bitpop32:
  81               	.LVL6:
  82               	.LFB2:
  40:../../tmk_core/common/util.c **** 
  41:../../tmk_core/common/util.c **** uint8_t bitpop32(uint32_t bits)
  42:../../tmk_core/common/util.c **** {
  83               		.loc 1 42 1 is_stmt 1 view -0
  84               		.cfi_startproc
  85               	/* prologue: function */
  86               	/* frame size = 0 */
  87               	/* stack size = 0 */
  88               	.L__stack_usage = 0
  43:../../tmk_core/common/util.c ****     uint8_t c;
  89               		.loc 1 43 5 view .LVU19
  44:../../tmk_core/common/util.c ****     for (c = 0; bits; c++)
  90               		.loc 1 44 5 view .LVU20
  91               		.loc 1 44 5 is_stmt 0 view .LVU21
  92 0000 0E94 0000 		call __popcountsi2
  45:../../tmk_core/common/util.c ****         bits &= bits - 1;
  46:../../tmk_core/common/util.c ****     return c;
  93               		.loc 1 46 5 is_stmt 1 view .LVU22
  94               	/* epilogue start */
  47:../../tmk_core/common/util.c **** }
  95               		.loc 1 47 1 is_stmt 0 view .LVU23
  96 0004 0895      		ret
  97               		.cfi_endproc
  98               	.LFE2:
 100               		.section	.text.biton,"ax",@progbits
 101               	.global	biton
 103               	biton:
 104               	.LVL7:
 105               	.LFB3:
  48:../../tmk_core/common/util.c **** 
  49:../../tmk_core/common/util.c **** // most significant on-bit - return highest location of on-bit
  50:../../tmk_core/common/util.c **** // NOTE: return 0 when bit0 is on or all bits are off
  51:../../tmk_core/common/util.c **** uint8_t biton(uint8_t bits)
  52:../../tmk_core/common/util.c **** {
 106               		.loc 1 52 1 is_stmt 1 view -0
 107               		.cfi_startproc
 108               	/* prologue: function */
 109               	/* frame size = 0 */
 110               	/* stack size = 0 */
 111               	.L__stack_usage = 0
 112               		.loc 1 52 1 is_stmt 0 view .LVU25
 113 0000 982F      		mov r25,r24
  53:../../tmk_core/common/util.c ****     uint8_t n = 0;
 114               		.loc 1 53 5 is_stmt 1 view .LVU26
 115               	.LVL8:
  54:../../tmk_core/common/util.c ****     if (bits >> 4) { bits >>= 4; n += 4;}
 116               		.loc 1 54 5 view .LVU27
 117               		.loc 1 54 9 is_stmt 0 view .LVU28
 118 0002 8295      		swap r24
 119               	.LVL9:
 120               		.loc 1 54 9 view .LVU29
 121 0004 8F70      		andi r24,lo8(15)
 122               		.loc 1 54 8 view .LVU30
 123 0006 01F0      		breq .L7
 124 0008 982F      		mov r25,r24
 125               	.LVL10:
 126               		.loc 1 54 36 view .LVU31
 127 000a 84E0      		ldi r24,lo8(4)
 128               	.L7:
 129               	.LVL11:
  55:../../tmk_core/common/util.c ****     if (bits >> 2) { bits >>= 2; n += 2;}
 130               		.loc 1 55 5 is_stmt 1 view .LVU32
 131               		.loc 1 55 9 is_stmt 0 view .LVU33
 132 000c 292F      		mov r18,r25
 133 000e 2695      		lsr r18
 134 0010 2695      		lsr r18
 135               		.loc 1 55 8 view .LVU34
 136 0012 01F0      		breq .L8
 137               		.loc 1 55 22 is_stmt 1 discriminator 1 view .LVU35
 138               	.LVL12:
 139               		.loc 1 55 34 discriminator 1 view .LVU36
 140               		.loc 1 55 36 is_stmt 0 discriminator 1 view .LVU37
 141 0014 8E5F      		subi r24,lo8(-(2))
 142               	.LVL13:
 143               		.loc 1 55 36 discriminator 1 view .LVU38
 144 0016 922F      		mov r25,r18
 145               	.LVL14:
 146               	.L8:
  56:../../tmk_core/common/util.c ****     if (bits >> 1) { bits >>= 1; n += 1;}
 147               		.loc 1 56 5 is_stmt 1 view .LVU39
 148               		.loc 1 56 9 is_stmt 0 view .LVU40
 149 0018 9695      		lsr r25
 150               	.LVL15:
 151               		.loc 1 56 8 view .LVU41
 152 001a 01F0      		breq .L6
 153               		.loc 1 56 22 is_stmt 1 discriminator 1 view .LVU42
 154               	.LVL16:
 155               		.loc 1 56 34 discriminator 1 view .LVU43
 156               		.loc 1 56 36 is_stmt 0 discriminator 1 view .LVU44
 157 001c 8F5F      		subi r24,lo8(-(1))
 158               	.LVL17:
  57:../../tmk_core/common/util.c ****     return n;
 159               		.loc 1 57 5 is_stmt 1 discriminator 1 view .LVU45
 160               	.L6:
 161               	/* epilogue start */
  58:../../tmk_core/common/util.c **** }
 162               		.loc 1 58 1 is_stmt 0 view .LVU46
 163 001e 0895      		ret
 164               		.cfi_endproc
 165               	.LFE3:
 167               		.section	.text.biton16,"ax",@progbits
 168               	.global	biton16
 170               	biton16:
 171               	.LVL18:
 172               	.LFB4:
  59:../../tmk_core/common/util.c **** 
  60:../../tmk_core/common/util.c **** uint8_t biton16(uint16_t bits)
  61:../../tmk_core/common/util.c **** {
 173               		.loc 1 61 1 is_stmt 1 view -0
 174               		.cfi_startproc
 175               	/* prologue: function */
 176               	/* frame size = 0 */
 177               	/* stack size = 0 */
 178               	.L__stack_usage = 0
 179               		.loc 1 61 1 is_stmt 0 view .LVU48
 180 0000 9C01      		movw r18,r24
  62:../../tmk_core/common/util.c ****     uint8_t n = 0;
 181               		.loc 1 62 5 is_stmt 1 view .LVU49
 182               	.LVL19:
  63:../../tmk_core/common/util.c ****     if (bits >> 8) { bits >>= 8; n += 8;}
 183               		.loc 1 63 5 view .LVU50
 184               		.loc 1 63 14 is_stmt 0 view .LVU51
 185 0002 892F      		mov r24,r25
 186 0004 9927      		clr r25
 187               	.LVL20:
 188               		.loc 1 63 8 view .LVU52
 189 0006 0097      		sbiw r24,0
 190 0008 01F0      		breq .L24
 191 000a 9C01      		movw r18,r24
 192               	.LVL21:
 193               		.loc 1 63 36 view .LVU53
 194 000c 88E0      		ldi r24,lo8(8)
 195               	.L20:
 196               	.LVL22:
  64:../../tmk_core/common/util.c ****     if (bits >> 4) { bits >>= 4; n += 4;}
 197               		.loc 1 64 5 is_stmt 1 view .LVU54
 198               		.loc 1 64 14 is_stmt 0 view .LVU55
 199 000e A901      		movw r20,r18
 200 0010 74E0      		ldi r23,4
 201               		1:
 202 0012 5695      		lsr r21
 203 0014 4795      		ror r20
 204 0016 7A95      		dec r23
 205 0018 01F4      		brne 1b
 206               		.loc 1 64 8 view .LVU56
 207 001a 4115      		cp r20,__zero_reg__
 208 001c 5105      		cpc r21,__zero_reg__
 209 001e 01F0      		breq .L21
 210               		.loc 1 64 22 is_stmt 1 discriminator 1 view .LVU57
 211               	.LVL23:
 212               		.loc 1 64 34 discriminator 1 view .LVU58
 213               		.loc 1 64 36 is_stmt 0 discriminator 1 view .LVU59
 214 0020 8C5F      		subi r24,lo8(-(4))
 215               	.LVL24:
 216               		.loc 1 64 36 discriminator 1 view .LVU60
 217 0022 9A01      		movw r18,r20
 218               	.LVL25:
 219               	.L21:
  65:../../tmk_core/common/util.c ****     if (bits >> 2) { bits >>= 2; n += 2;}
 220               		.loc 1 65 5 is_stmt 1 view .LVU61
 221               		.loc 1 65 14 is_stmt 0 view .LVU62
 222 0024 A901      		movw r20,r18
 223 0026 5695      		lsr r21
 224 0028 4795      		ror r20
 225 002a 5695      		lsr r21
 226 002c 4795      		ror r20
 227               		.loc 1 65 8 view .LVU63
 228 002e 4115      		cp r20,__zero_reg__
 229 0030 5105      		cpc r21,__zero_reg__
 230 0032 01F0      		breq .L22
 231               		.loc 1 65 22 is_stmt 1 discriminator 1 view .LVU64
 232               	.LVL26:
 233               		.loc 1 65 34 discriminator 1 view .LVU65
 234               		.loc 1 65 36 is_stmt 0 discriminator 1 view .LVU66
 235 0034 8E5F      		subi r24,lo8(-(2))
 236               	.LVL27:
 237               		.loc 1 65 36 discriminator 1 view .LVU67
 238 0036 9A01      		movw r18,r20
 239               	.LVL28:
 240               	.L22:
  66:../../tmk_core/common/util.c ****     if (bits >> 1) { bits >>= 1; n += 1;}
 241               		.loc 1 66 5 is_stmt 1 view .LVU68
 242               		.loc 1 66 14 is_stmt 0 view .LVU69
 243 0038 3695      		lsr r19
 244 003a 2795      		ror r18
 245               	.LVL29:
 246               		.loc 1 66 8 view .LVU70
 247 003c 232B      		or r18,r19
 248 003e 01F0      		breq .L19
 249               		.loc 1 66 22 is_stmt 1 discriminator 1 view .LVU71
 250               	.LVL30:
 251               		.loc 1 66 34 discriminator 1 view .LVU72
 252               		.loc 1 66 36 is_stmt 0 discriminator 1 view .LVU73
 253 0040 8F5F      		subi r24,lo8(-(1))
 254               	.LVL31:
  67:../../tmk_core/common/util.c ****     return n;
 255               		.loc 1 67 5 is_stmt 1 discriminator 1 view .LVU74
 256               	.L19:
 257               	/* epilogue start */
  68:../../tmk_core/common/util.c **** }
 258               		.loc 1 68 1 is_stmt 0 view .LVU75
 259 0042 0895      		ret
 260               	.LVL32:
 261               	.L24:
  62:../../tmk_core/common/util.c ****     if (bits >> 8) { bits >>= 8; n += 8;}
 262               		.loc 1 62 13 view .LVU76
 263 0044 80E0      		ldi r24,0
 264 0046 00C0      		rjmp .L20
 265               		.cfi_endproc
 266               	.LFE4:
 268               		.section	.text.biton32,"ax",@progbits
 269               	.global	biton32
 271               	biton32:
 272               	.LVL33:
 273               	.LFB5:
  69:../../tmk_core/common/util.c **** 
  70:../../tmk_core/common/util.c **** uint8_t biton32(uint32_t bits)
  71:../../tmk_core/common/util.c **** {
 274               		.loc 1 71 1 is_stmt 1 view -0
 275               		.cfi_startproc
 276               		.loc 1 71 1 is_stmt 0 view .LVU78
 277 0000 0F93      		push r16
 278               	.LCFI0:
 279               		.cfi_def_cfa_offset 3
 280               		.cfi_offset 16, -2
 281 0002 1F93      		push r17
 282               	.LCFI1:
 283               		.cfi_def_cfa_offset 4
 284               		.cfi_offset 17, -3
 285               	/* prologue: function */
 286               	/* frame size = 0 */
 287               	/* stack size = 2 */
 288               	.L__stack_usage = 2
 289 0004 462F      		mov r20,r22
 290 0006 572F      		mov r21,r23
 291 0008 BC01      		movw r22,r24
 292               	.LVL34:
  72:../../tmk_core/common/util.c ****     uint8_t n = 0;
 293               		.loc 1 72 5 is_stmt 1 view .LVU79
  73:../../tmk_core/common/util.c ****     if (bits >>16) { bits >>=16; n +=16;}
 294               		.loc 1 73 5 view .LVU80
 295               		.loc 1 73 14 is_stmt 0 view .LVU81
 296 000a CB01      		movw r24,r22
 297 000c AA27      		clr r26
 298 000e BB27      		clr r27
 299               		.loc 1 73 8 view .LVU82
 300 0010 0097      		sbiw r24,0
 301 0012 A105      		cpc r26,__zero_reg__
 302 0014 B105      		cpc r27,__zero_reg__
 303 0016 01F0      		breq .L40
 304 0018 AC01      		movw r20,r24
 305 001a BD01      		movw r22,r26
 306               		.loc 1 73 36 view .LVU83
 307 001c 80E1      		ldi r24,lo8(16)
 308               	.L35:
 309               	.LVL35:
  74:../../tmk_core/common/util.c ****     if (bits >> 8) { bits >>= 8; n += 8;}
 310               		.loc 1 74 5 is_stmt 1 view .LVU84
 311               		.loc 1 74 14 is_stmt 0 view .LVU85
 312 001e 052F      		mov r16,r21
 313 0020 162F      		mov r17,r22
 314 0022 272F      		mov r18,r23
 315 0024 3327      		clr r19
 316               		.loc 1 74 8 view .LVU86
 317 0026 0115      		cp r16,__zero_reg__
 318 0028 1105      		cpc r17,__zero_reg__
 319 002a 2105      		cpc r18,__zero_reg__
 320 002c 3105      		cpc r19,__zero_reg__
 321 002e 01F0      		breq .L36
 322               		.loc 1 74 22 is_stmt 1 discriminator 1 view .LVU87
 323               	.LVL36:
 324               		.loc 1 74 34 discriminator 1 view .LVU88
 325               		.loc 1 74 36 is_stmt 0 discriminator 1 view .LVU89
 326 0030 885F      		subi r24,lo8(-(8))
 327               	.LVL37:
 328               		.loc 1 74 36 discriminator 1 view .LVU90
 329 0032 B901      		movw r22,r18
 330 0034 A801      		movw r20,r16
 331               	.LVL38:
 332               	.L36:
  75:../../tmk_core/common/util.c ****     if (bits >> 4) { bits >>= 4; n += 4;}
 333               		.loc 1 75 5 is_stmt 1 view .LVU91
 334               		.loc 1 75 14 is_stmt 0 view .LVU92
 335 0036 8A01      		movw r16,r20
 336 0038 9B01      		movw r18,r22
 337 003a F4E0      		ldi r31,4
 338               		1:
 339 003c 3695      		lsr r19
 340 003e 2795      		ror r18
 341 0040 1795      		ror r17
 342 0042 0795      		ror r16
 343 0044 FA95      		dec r31
 344 0046 01F4      		brne 1b
 345               		.loc 1 75 8 view .LVU93
 346 0048 0115      		cp r16,__zero_reg__
 347 004a 1105      		cpc r17,__zero_reg__
 348 004c 2105      		cpc r18,__zero_reg__
 349 004e 3105      		cpc r19,__zero_reg__
 350 0050 01F0      		breq .L37
 351               		.loc 1 75 22 is_stmt 1 discriminator 1 view .LVU94
 352               	.LVL39:
 353               		.loc 1 75 34 discriminator 1 view .LVU95
 354               		.loc 1 75 36 is_stmt 0 discriminator 1 view .LVU96
 355 0052 8C5F      		subi r24,lo8(-(4))
 356               	.LVL40:
 357               		.loc 1 75 36 discriminator 1 view .LVU97
 358 0054 B901      		movw r22,r18
 359 0056 A801      		movw r20,r16
 360               	.LVL41:
 361               	.L37:
  76:../../tmk_core/common/util.c ****     if (bits >> 2) { bits >>= 2; n += 2;}
 362               		.loc 1 76 5 is_stmt 1 view .LVU98
 363               		.loc 1 76 14 is_stmt 0 view .LVU99
 364 0058 8A01      		movw r16,r20
 365 005a 9B01      		movw r18,r22
 366 005c E2E0      		ldi r30,2
 367               		1:
 368 005e 3695      		lsr r19
 369 0060 2795      		ror r18
 370 0062 1795      		ror r17
 371 0064 0795      		ror r16
 372 0066 EA95      		dec r30
 373 0068 01F4      		brne 1b
 374               		.loc 1 76 8 view .LVU100
 375 006a 0115      		cp r16,__zero_reg__
 376 006c 1105      		cpc r17,__zero_reg__
 377 006e 2105      		cpc r18,__zero_reg__
 378 0070 3105      		cpc r19,__zero_reg__
 379 0072 01F0      		breq .L38
 380               		.loc 1 76 22 is_stmt 1 discriminator 1 view .LVU101
 381               	.LVL42:
 382               		.loc 1 76 34 discriminator 1 view .LVU102
 383               		.loc 1 76 36 is_stmt 0 discriminator 1 view .LVU103
 384 0074 8E5F      		subi r24,lo8(-(2))
 385               	.LVL43:
 386               		.loc 1 76 36 discriminator 1 view .LVU104
 387 0076 B901      		movw r22,r18
 388 0078 A801      		movw r20,r16
 389               	.LVL44:
 390               	.L38:
  77:../../tmk_core/common/util.c ****     if (bits >> 1) { bits >>= 1; n += 1;}
 391               		.loc 1 77 5 is_stmt 1 view .LVU105
 392               		.loc 1 77 14 is_stmt 0 view .LVU106
 393 007a 7695      		lsr r23
 394 007c 6795      		ror r22
 395 007e 5795      		ror r21
 396 0080 4795      		ror r20
 397               	.LVL45:
 398               		.loc 1 77 8 view .LVU107
 399 0082 452B      		or r20,r21
 400 0084 462B      		or r20,r22
 401 0086 472B      		or r20,r23
 402 0088 01F0      		breq .L34
 403               		.loc 1 77 22 is_stmt 1 discriminator 1 view .LVU108
 404               	.LVL46:
 405               		.loc 1 77 34 discriminator 1 view .LVU109
 406               		.loc 1 77 36 is_stmt 0 discriminator 1 view .LVU110
 407 008a 8F5F      		subi r24,lo8(-(1))
 408               	.LVL47:
  78:../../tmk_core/common/util.c ****     return n;
 409               		.loc 1 78 5 is_stmt 1 discriminator 1 view .LVU111
 410               	.L34:
 411               	/* epilogue start */
  79:../../tmk_core/common/util.c **** }
 412               		.loc 1 79 1 is_stmt 0 view .LVU112
 413 008c 1F91      		pop r17
 414 008e 0F91      		pop r16
 415 0090 0895      		ret
 416               	.LVL48:
 417               	.L40:
  72:../../tmk_core/common/util.c ****     if (bits >>16) { bits >>=16; n +=16;}
 418               		.loc 1 72 13 view .LVU113
 419 0092 80E0      		ldi r24,0
 420 0094 00C0      		rjmp .L35
 421               		.cfi_endproc
 422               	.LFE5:
 424               		.section	.text.bitrev,"ax",@progbits
 425               	.global	bitrev
 427               	bitrev:
 428               	.LVL49:
 429               	.LFB6:
  80:../../tmk_core/common/util.c **** 
  81:../../tmk_core/common/util.c **** 
  82:../../tmk_core/common/util.c **** 
  83:../../tmk_core/common/util.c **** uint8_t bitrev(uint8_t bits)
  84:../../tmk_core/common/util.c **** {
 430               		.loc 1 84 1 is_stmt 1 view -0
 431               		.cfi_startproc
 432               	/* prologue: function */
 433               	/* frame size = 0 */
 434               	/* stack size = 0 */
 435               	.L__stack_usage = 0
  85:../../tmk_core/common/util.c ****     bits = (bits & 0x0f)<<4 | (bits & 0xf0)>>4;
 436               		.loc 1 85 5 view .LVU115
 437               		.loc 1 85 29 is_stmt 0 view .LVU116
 438 0000 8295      		swap r24
 439               	.LVL50:
  86:../../tmk_core/common/util.c ****     bits = (bits & 0b00110011)<<2 | (bits & 0b11001100)>>2;
 440               		.loc 1 86 5 is_stmt 1 view .LVU117
 441               		.loc 1 86 31 is_stmt 0 view .LVU118
 442 0002 90E0      		ldi r25,0
 443               	.LVL51:
  87:../../tmk_core/common/util.c ****     bits = (bits & 0b01010101)<<1 | (bits & 0b10101010)>>1;
 444               		.loc 1 87 5 is_stmt 1 view .LVU119
  86:../../tmk_core/common/util.c ****     bits = (bits & 0b00110011)<<2 | (bits & 0b11001100)>>2;
 445               		.loc 1 86 31 is_stmt 0 view .LVU120
 446 0004 9C01      		movw r18,r24
 447 0006 220F      		lsl r18
 448 0008 331F      		rol r19
 449 000a 220F      		lsl r18
 450 000c 331F      		rol r19
 451 000e 2C7C      		andi r18,lo8(-52)
  86:../../tmk_core/common/util.c ****     bits = (bits & 0b00110011)<<2 | (bits & 0b11001100)>>2;
 452               		.loc 1 86 56 view .LVU121
 453 0010 9595      		asr r25
 454 0012 8795      		ror r24
 455 0014 9595      		asr r25
 456 0016 8795      		ror r24
 457               	.LVL52:
  86:../../tmk_core/common/util.c ****     bits = (bits & 0b00110011)<<2 | (bits & 0b11001100)>>2;
 458               		.loc 1 86 56 view .LVU122
 459 0018 8373      		andi r24,lo8(51)
  86:../../tmk_core/common/util.c ****     bits = (bits & 0b00110011)<<2 | (bits & 0b11001100)>>2;
 460               		.loc 1 86 35 view .LVU123
 461 001a 282B      		or r18,r24
 462               		.loc 1 87 31 view .LVU124
 463 001c 30E0      		ldi r19,0
 464               	.LVL53:
  88:../../tmk_core/common/util.c ****     return bits;
 465               		.loc 1 88 5 is_stmt 1 view .LVU125
  87:../../tmk_core/common/util.c ****     bits = (bits & 0b01010101)<<1 | (bits & 0b10101010)>>1;
 466               		.loc 1 87 31 is_stmt 0 view .LVU126
 467 001e C901      		movw r24,r18
 468 0020 880F      		lsl r24
 469 0022 991F      		rol r25
 470 0024 8A7A      		andi r24,lo8(-86)
  87:../../tmk_core/common/util.c ****     bits = (bits & 0b01010101)<<1 | (bits & 0b10101010)>>1;
 471               		.loc 1 87 56 view .LVU127
 472 0026 3595      		asr r19
 473 0028 2795      		ror r18
 474               	.LVL54:
  87:../../tmk_core/common/util.c ****     bits = (bits & 0b01010101)<<1 | (bits & 0b10101010)>>1;
 475               		.loc 1 87 56 view .LVU128
 476 002a 2575      		andi r18,lo8(85)
  89:../../tmk_core/common/util.c **** }
 477               		.loc 1 89 1 view .LVU129
 478 002c 822B      		or r24,r18
 479               	/* epilogue start */
 480 002e 0895      		ret
 481               		.cfi_endproc
 482               	.LFE6:
 484               		.section	.text.bitrev16,"ax",@progbits
 485               	.global	bitrev16
 487               	bitrev16:
 488               	.LVL55:
 489               	.LFB7:
  90:../../tmk_core/common/util.c **** 
  91:../../tmk_core/common/util.c **** uint16_t bitrev16(uint16_t bits)
  92:../../tmk_core/common/util.c **** {
 490               		.loc 1 92 1 is_stmt 1 view -0
 491               		.cfi_startproc
 492               		.loc 1 92 1 is_stmt 0 view .LVU131
 493 0000 CF93      		push r28
 494               	.LCFI2:
 495               		.cfi_def_cfa_offset 3
 496               		.cfi_offset 28, -2
 497 0002 DF93      		push r29
 498               	.LCFI3:
 499               		.cfi_def_cfa_offset 4
 500               		.cfi_offset 29, -3
 501               	/* prologue: function */
 502               	/* frame size = 0 */
 503               	/* stack size = 2 */
 504               	.L__stack_usage = 2
 505 0004 D92F      		mov r29,r25
  93:../../tmk_core/common/util.c ****     bits = bitrev(bits & 0x00ff)<<8 | bitrev((bits & 0xff00)>>8);
 506               		.loc 1 93 5 is_stmt 1 view .LVU132
 507               		.loc 1 93 12 is_stmt 0 view .LVU133
 508 0006 0E94 0000 		call bitrev
 509               	.LVL56:
 510               		.loc 1 93 12 view .LVU134
 511 000a C82F      		mov r28,r24
 512               		.loc 1 93 39 view .LVU135
 513 000c 8D2F      		mov r24,r29
 514 000e 0E94 0000 		call bitrev
 515               	.LVL57:
  94:../../tmk_core/common/util.c ****     return bits;
 516               		.loc 1 94 5 is_stmt 1 view .LVU136
  95:../../tmk_core/common/util.c **** }
 517               		.loc 1 95 1 is_stmt 0 view .LVU137
 518 0012 9C2F      		mov r25,r28
 519               	/* epilogue start */
 520 0014 DF91      		pop r29
 521 0016 CF91      		pop r28
 522               	.LVL58:
 523               		.loc 1 95 1 view .LVU138
 524 0018 0895      		ret
 525               		.cfi_endproc
 526               	.LFE7:
 528               		.section	.text.bitrev32,"ax",@progbits
 529               	.global	bitrev32
 531               	bitrev32:
 532               	.LVL59:
 533               	.LFB8:
  96:../../tmk_core/common/util.c **** 
  97:../../tmk_core/common/util.c **** uint32_t bitrev32(uint32_t bits)
  98:../../tmk_core/common/util.c **** {
 534               		.loc 1 98 1 is_stmt 1 view -0
 535               		.cfi_startproc
 536               		.loc 1 98 1 is_stmt 0 view .LVU140
 537 0000 0F93      		push r16
 538               	.LCFI4:
 539               		.cfi_def_cfa_offset 3
 540               		.cfi_offset 16, -2
 541 0002 1F93      		push r17
 542               	.LCFI5:
 543               		.cfi_def_cfa_offset 4
 544               		.cfi_offset 17, -3
 545 0004 CF93      		push r28
 546               	.LCFI6:
 547               		.cfi_def_cfa_offset 5
 548               		.cfi_offset 28, -4
 549 0006 DF93      		push r29
 550               	.LCFI7:
 551               		.cfi_def_cfa_offset 6
 552               		.cfi_offset 29, -5
 553 0008 00D0      		rcall .
 554 000a 00D0      		rcall .
 555               	.LCFI8:
 556               		.cfi_def_cfa_offset 10
 557 000c CDB7      		in r28,__SP_L__
 558 000e DEB7      		in r29,__SP_H__
 559               	.LCFI9:
 560               		.cfi_def_cfa_register 28
 561               	/* prologue: function */
 562               	/* frame size = 4 */
 563               	/* stack size = 8 */
 564               	.L__stack_usage = 8
 565 0010 8C01      		movw r16,r24
  99:../../tmk_core/common/util.c ****     bits = (uint32_t)bitrev16(bits & 0x0000ffff)<<16 | bitrev16((bits & 0xffff0000)>>16);
 566               		.loc 1 99 5 is_stmt 1 view .LVU141
 567               		.loc 1 99 22 is_stmt 0 view .LVU142
 568 0012 CB01      		movw r24,r22
 569 0014 0E94 0000 		call bitrev16
 570               	.LVL60:
 571               		.loc 1 99 22 view .LVU143
 572 0018 8983      		std Y+1,r24
 573 001a 9A83      		std Y+2,r25
 574               		.loc 1 99 56 view .LVU144
 575 001c C801      		movw r24,r16
 576 001e 0E94 0000 		call bitrev16
 577               	.LVL61:
 100:../../tmk_core/common/util.c ****     return bits;
 578               		.loc 1 100 5 is_stmt 1 view .LVU145
  99:../../tmk_core/common/util.c ****     bits = (uint32_t)bitrev16(bits & 0x0000ffff)<<16 | bitrev16((bits & 0xffff0000)>>16);
 579               		.loc 1 99 12 is_stmt 0 view .LVU146
 580 0022 0981      		ldd r16,Y+1
 581 0024 1A81      		ldd r17,Y+2
 582 0026 A801      		movw r20,r16
 583 0028 70E0      		ldi r23,0
 584 002a 60E0      		ldi r22,0
  99:../../tmk_core/common/util.c ****     bits = (uint32_t)bitrev16(bits & 0x0000ffff)<<16 | bitrev16((bits & 0xffff0000)>>16);
 585               		.loc 1 99 49 view .LVU147
 586 002c BA01      		movw r22,r20
 587 002e 5527      		clr r21
 588 0030 4427      		clr r20
  99:../../tmk_core/common/util.c ****     bits = (uint32_t)bitrev16(bits & 0x0000ffff)<<16 | bitrev16((bits & 0xffff0000)>>16);
 589               		.loc 1 99 56 view .LVU148
 590 0032 B0E0      		ldi r27,0
 591 0034 A0E0      		ldi r26,0
  99:../../tmk_core/common/util.c ****     bits = (uint32_t)bitrev16(bits & 0x0000ffff)<<16 | bitrev16((bits & 0xffff0000)>>16);
 592               		.loc 1 99 10 view .LVU149
 593 0036 8A01      		movw r16,r20
 594 0038 9B01      		movw r18,r22
 595 003a 082B      		or r16,r24
 596 003c 192B      		or r17,r25
 597 003e 2A2B      		or r18,r26
 598 0040 3B2B      		or r19,r27
 101:../../tmk_core/common/util.c **** }
 599               		.loc 1 101 1 view .LVU150
 600 0042 C901      		movw r24,r18
 601               	.LVL62:
 602               		.loc 1 101 1 view .LVU151
 603 0044 B801      		movw r22,r16
 604               	/* epilogue start */
 605 0046 0F90      		pop __tmp_reg__
 606 0048 0F90      		pop __tmp_reg__
 607 004a 0F90      		pop __tmp_reg__
 608 004c 0F90      		pop __tmp_reg__
 609 004e DF91      		pop r29
 610 0050 CF91      		pop r28
 611               		.loc 1 101 1 view .LVU152
 612 0052 1F91      		pop r17
 613               		.loc 1 101 1 view .LVU153
 614 0054 0F91      		pop r16
 615               		.loc 1 101 1 view .LVU154
 616 0056 0895      		ret
 617               		.cfi_endproc
 618               	.LFE8:
 620               		.text
 621               	.Letext0:
 622               		.file 2 "/usr/local/Cellar/avr-gcc/9.1.0/avr/include/stdint.h"